GAS LISTING /tmp/ccZSb1dC.s 			page 1


   1              		.file	"_sem.cpp"
   2              		.option pic
   3              		.option norelax
   4              		.text
   5              	.Ltext0:
   6              		.align	2
   7              		.globl	_ZN4_sem4openEj
   9              	_ZN4_sem4openEj:
  10              	.LFB31:
  11              		.file 1 "src/_sem.cpp"
   1:src/_sem.cpp  **** //
   2:src/_sem.cpp  **** // Created by os on 6/4/24.
   3:src/_sem.cpp  **** //
   4:src/_sem.cpp  **** 
   5:src/_sem.cpp  **** #include "../h/_sem.hpp"
   6:src/_sem.cpp  **** 
   7:src/_sem.cpp  **** sem_t _sem::open(unsigned init) {
  12              		.loc 1 7 33
  13              		.cfi_startproc
  14              	.LVL0:
  15 0000 130101FE 		addi	sp,sp,-32
  16              		.cfi_def_cfa_offset 32
  17 0004 233C1100 		sd	ra,24(sp)
  18 0008 23388100 		sd	s0,16(sp)
  19 000c 23349100 		sd	s1,8(sp)
  20 0010 23302101 		sd	s2,0(sp)
  21              		.cfi_offset 1, -8
  22              		.cfi_offset 8, -16
  23              		.cfi_offset 9, -24
  24              		.cfi_offset 18, -32
  25 0014 13040102 		addi	s0,sp,32
  26              		.cfi_def_cfa 8, 0
  27 0018 13090500 		mv	s2,a0
   8:src/_sem.cpp  ****     sem_t sem = (sem_t) mem_alloc(sizeof(_sem));
  28              		.loc 1 8 5
  29              		.loc 1 8 34 is_stmt 0
  30 001c 13058001 		li	a0,24
  31              	.LVL1:
  32 0020 97000000 		call	_Z9mem_allocm@plt
  32      E7800000 
  33              	.LVL2:
  34 0028 93040500 		mv	s1,a0
  35              	.LVL3:
   9:src/_sem.cpp  ****     if (!sem) return nullptr;
  36              		.loc 1 9 5 is_stmt 1
  37 002c 63040502 		beqz	a0,.L1
  10:src/_sem.cpp  ****     sem->value = init;
  38              		.loc 1 10 5
  39              		.loc 1 10 16 is_stmt 0
  40 0030 23202501 		sw	s2,0(a0)
  11:src/_sem.cpp  ****     sem->opened = true;
  41              		.loc 1 11 5 is_stmt 1
  42              		.loc 1 11 17 is_stmt 0
  43 0034 93071000 		li	a5,1
  44 0038 2308F500 		sb	a5,16(a0)
  12:src/_sem.cpp  ****     sem->waitlist = new waitSemList();
  45              		.loc 1 12 5 is_stmt 1
GAS LISTING /tmp/ccZSb1dC.s 			page 2


  46              		.loc 1 12 37 is_stmt 0
  47 003c 13050001 		li	a0,16
  48 0040 97000000 		call	_Znwm@plt
  48      E7800000 
  49              	.LVL4:
  50              	.LBB16:
  51              	.LBB17:
  52              		.file 2 "src/../h/waitSemList.hpp"
   1:src/../h/waitSemList.hpp **** //
   2:src/../h/waitSemList.hpp **** // Created by os on 6/4/24.
   3:src/../h/waitSemList.hpp **** //
   4:src/../h/waitSemList.hpp **** 
   5:src/../h/waitSemList.hpp **** #ifndef WAITSEMLIST_HPP
   6:src/../h/waitSemList.hpp **** #define WAITSEMLIST_HPP
   7:src/../h/waitSemList.hpp **** #include "PCB.hpp"
   8:src/../h/waitSemList.hpp **** #include "../lib/mem.h"
   9:src/../h/waitSemList.hpp **** #include "_sem.hpp"
  10:src/../h/waitSemList.hpp **** 
  11:src/../h/waitSemList.hpp **** 
  12:src/../h/waitSemList.hpp **** class waitSemList {
  13:src/../h/waitSemList.hpp **** public:
  14:src/../h/waitSemList.hpp ****     waitSemList():head(nullptr), tail(nullptr){}
  53              		.loc 2 14 46
  54 0048 23300500 		sd	zero,0(a0)
  55 004c 23340500 		sd	zero,8(a0)
  56              	.LVL5:
  57              	.LBE17:
  58              	.LBE16:
  59              		.loc 1 12 19
  60 0050 23B4A400 		sd	a0,8(s1)
  13:src/_sem.cpp  ****     return sem;
  61              		.loc 1 13 5 is_stmt 1
  62              	.L1:
  14:src/_sem.cpp  **** }
  63              		.loc 1 14 1 is_stmt 0
  64 0054 13850400 		mv	a0,s1
  65 0058 83308101 		ld	ra,24(sp)
  66              		.cfi_restore 1
  67 005c 03340101 		ld	s0,16(sp)
  68              		.cfi_restore 8
  69              		.cfi_def_cfa 2, 32
  70 0060 83348100 		ld	s1,8(sp)
  71              		.cfi_restore 9
  72              	.LVL6:
  73 0064 03390100 		ld	s2,0(sp)
  74              		.cfi_restore 18
  75 0068 13010102 		addi	sp,sp,32
  76              		.cfi_def_cfa_offset 0
  77 006c 67800000 		jr	ra
  78              		.cfi_endproc
  79              	.LFE31:
  81              		.align	2
  82              		.globl	_ZN4_sem4waitEPS_
  84              	_ZN4_sem4waitEPS_:
  85              	.LFB32:
  15:src/_sem.cpp  **** 
  16:src/_sem.cpp  **** int _sem::wait(sem_t id) {
GAS LISTING /tmp/ccZSb1dC.s 			page 3


  86              		.loc 1 16 26 is_stmt 1
  87              		.cfi_startproc
  88              	.LVL7:
  17:src/_sem.cpp  ****     if (!id)return -1;
  89              		.loc 1 17 5
  90 0070 63020508 		beqz	a0,.L7
  16:src/_sem.cpp  ****     if (!id)return -1;
  91              		.loc 1 16 26 is_stmt 0
  92 0074 130101FE 		addi	sp,sp,-32
  93              		.cfi_def_cfa_offset 32
  94 0078 233C1100 		sd	ra,24(sp)
  95 007c 23388100 		sd	s0,16(sp)
  96 0080 23349100 		sd	s1,8(sp)
  97              		.cfi_offset 1, -8
  98              		.cfi_offset 8, -16
  99              		.cfi_offset 9, -24
 100 0084 13040102 		addi	s0,sp,32
 101              		.cfi_def_cfa 8, 0
 102 0088 93040500 		mv	s1,a0
  18:src/_sem.cpp  ****     if (!id->opened) { return -1; }
 103              		.loc 1 18 5 is_stmt 1
 104              		.loc 1 18 14 is_stmt 0
 105 008c 83470501 		lbu	a5,16(a0)
 106              		.loc 1 18 5
 107 0090 63860706 		beqz	a5,.L8
  19:src/_sem.cpp  ****     if (--id->value < 0) {
 108              		.loc 1 19 5 is_stmt 1
 109              		.loc 1 19 15 is_stmt 0
 110 0094 83270500 		lw	a5,0(a0)
 111              		.loc 1 19 9
 112 0098 9B87F7FF 		addiw	a5,a5,-1
 113              		.loc 1 19 21
 114 009c 2320F500 		sw	a5,0(a0)
 115              		.loc 1 19 5
 116 00a0 13970702 		slli	a4,a5,32
 117 00a4 63420702 		bltz	a4,.L14
 118              	.LVL8:
 119              	.L6:
  20:src/_sem.cpp  ****         PCB::running->setState(PCB::BLOCKED);
  21:src/_sem.cpp  ****         id->waitlist->add(PCB::running);
  22:src/_sem.cpp  ****         PCB::dispatch();
  23:src/_sem.cpp  ****     }
  24:src/_sem.cpp  ****     return id->opened ? 0 : -1;
 120              		.loc 1 24 5 is_stmt 1
 121              		.loc 1 24 16 is_stmt 0
 122 00a8 83C70401 		lbu	a5,16(s1)
 123              		.loc 1 24 23
 124 00ac 638C0704 		beqz	a5,.L9
 125 00b0 13050000 		li	a0,0
 126              	.L5:
  25:src/_sem.cpp  **** }
 127              		.loc 1 25 1
 128 00b4 83308101 		ld	ra,24(sp)
 129              		.cfi_remember_state
 130              		.cfi_restore 1
 131 00b8 03340101 		ld	s0,16(sp)
 132              		.cfi_restore 8
GAS LISTING /tmp/ccZSb1dC.s 			page 4


 133              		.cfi_def_cfa 2, 32
 134 00bc 83348100 		ld	s1,8(sp)
 135              		.cfi_restore 9
 136              	.LVL9:
 137 00c0 13010102 		addi	sp,sp,32
 138              		.cfi_def_cfa_offset 0
 139 00c4 67800000 		jr	ra
 140              	.LVL10:
 141              	.L14:
 142              		.cfi_restore_state
  20:src/_sem.cpp  ****         PCB::running->setState(PCB::BLOCKED);
 143              		.loc 1 20 9 is_stmt 1
  20:src/_sem.cpp  ****         PCB::running->setState(PCB::BLOCKED);
 144              		.loc 1 20 31 is_stmt 0
 145 00c8 97070000 		la	a5,_ZN3PCB7runningE
 145      83B70700 
 146 00d0 83B50700 		ld	a1,0(a5)
 147              	.LVL11:
 148              	.LBB18:
 149              	.LBB19:
 150              		.file 3 "src/../h/PCB.hpp"
   1:src/../h/PCB.hpp **** //
   2:src/../h/PCB.hpp **** // Created by marko on 20.4.22..
   3:src/../h/PCB.hpp **** //
   4:src/../h/PCB.hpp **** 
   5:src/../h/PCB.hpp **** #ifndef OS1_VEZBE07_RISCV_CONTEXT_SWITCH_1_SYNCHRONOUS_CCB_HPP
   6:src/../h/PCB.hpp **** #define OS1_VEZBE07_RISCV_CONTEXT_SWITCH_1_SYNCHRONOUS_CCB_HPP
   7:src/../h/PCB.hpp **** 
   8:src/../h/PCB.hpp **** 
   9:src/../h/PCB.hpp **** #include "../lib/hw.h"
  10:src/../h/PCB.hpp **** #include "scheduler.hpp"
  11:src/../h/PCB.hpp **** #include "../h/syscall_c.hpp"
  12:src/../h/PCB.hpp **** #include "MemoryAllocator.hpp"
  13:src/../h/PCB.hpp **** // static int id = 0;
  14:src/../h/PCB.hpp **** 
  15:src/../h/PCB.hpp **** class PCB {
  16:src/../h/PCB.hpp **** public:
  17:src/../h/PCB.hpp ****     ~PCB() { delete[] stack; }
  18:src/../h/PCB.hpp **** 
  19:src/../h/PCB.hpp ****     enum threadState {
  20:src/../h/PCB.hpp ****         CREATED, READY, RUNNING, SLEEPING, BLOCKED, FINISHED, IDLE
  21:src/../h/PCB.hpp ****     };
  22:src/../h/PCB.hpp **** 
  23:src/../h/PCB.hpp ****     bool isSystem() const { return system; }
  24:src/../h/PCB.hpp **** 
  25:src/../h/PCB.hpp ****     void setSystem(bool value) { system = value; }
  26:src/../h/PCB.hpp **** 
  27:src/../h/PCB.hpp ****     bool isParentWaitng() const { return isWaiting; }
  28:src/../h/PCB.hpp **** 
  29:src/../h/PCB.hpp ****     void parentNotWaitng() { isWaiting = false; }
  30:src/../h/PCB.hpp **** 
  31:src/../h/PCB.hpp ****     PCB *getParent() const { return parent; }
  32:src/../h/PCB.hpp **** 
  33:src/../h/PCB.hpp ****     void setParent(PCB *pcb) { parent = pcb; }
  34:src/../h/PCB.hpp **** 
  35:src/../h/PCB.hpp ****     using Body = void (*)(void *);
  36:src/../h/PCB.hpp **** 
GAS LISTING /tmp/ccZSb1dC.s 			page 5


  37:src/../h/PCB.hpp ****     static thread_t create_thread(Body body, void *arg, uint64 *stack_space);
  38:src/../h/PCB.hpp **** 
  39:src/../h/PCB.hpp ****     static void yield();
  40:src/../h/PCB.hpp **** 
  41:src/../h/PCB.hpp ****     static void dispatch();
  42:src/../h/PCB.hpp **** 
  43:src/../h/PCB.hpp ****     threadState getState() const { return state; }
  44:src/../h/PCB.hpp **** 
  45:src/../h/PCB.hpp ****     void setState(threadState st) { state = st; }
 151              		.loc 3 45 37 is_stmt 1
 152              		.loc 3 45 43 is_stmt 0
 153 00d4 93074000 		li	a5,4
 154 00d8 23A8F502 		sw	a5,48(a1)
 155              	.LVL12:
 156              	.LBE19:
 157              	.LBE18:
  21:src/_sem.cpp  ****         PCB::dispatch();
 158              		.loc 1 21 9 is_stmt 1
  21:src/_sem.cpp  ****         PCB::dispatch();
 159              		.loc 1 21 26 is_stmt 0
 160 00dc 03358500 		ld	a0,8(a0)
 161 00e0 97000000 		call	_ZN11waitSemList3addEP3PCB@plt
 161      E7800000 
 162              	.LVL13:
  22:src/_sem.cpp  ****     }
 163              		.loc 1 22 9 is_stmt 1
  22:src/_sem.cpp  ****     }
 164              		.loc 1 22 22 is_stmt 0
 165 00e8 97000000 		call	_ZN3PCB8dispatchEv@plt
 165      E7800000 
 166              	.LVL14:
 167 00f0 6FF09FFB 		j	.L6
 168              	.LVL15:
 169              	.L7:
 170              		.cfi_def_cfa_register 2
 171              		.cfi_restore 1
 172              		.cfi_restore 8
 173              		.cfi_restore 9
  17:src/_sem.cpp  ****     if (!id->opened) { return -1; }
 174              		.loc 1 17 21
 175 00f4 1305F0FF 		li	a0,-1
 176              	.LVL16:
 177              		.loc 1 25 1
 178 00f8 67800000 		ret
 179              	.LVL17:
 180              	.L8:
 181              		.cfi_def_cfa_register 8
 182              		.cfi_offset 1, -8
 183              		.cfi_offset 8, -16
 184              		.cfi_offset 9, -24
  18:src/_sem.cpp  ****     if (--id->value < 0) {
 185              		.loc 1 18 32
 186 00fc 1305F0FF 		li	a0,-1
 187 0100 6FF05FFB 		j	.L5
 188              	.L9:
  24:src/_sem.cpp  **** }
 189              		.loc 1 24 23
GAS LISTING /tmp/ccZSb1dC.s 			page 6


 190 0104 1305F0FF 		li	a0,-1
 191 0108 6FF0DFFA 		j	.L5
 192              		.cfi_endproc
 193              	.LFE32:
 195              		.align	2
 196              		.globl	_ZN4_sem7trywaitEPS_
 198              	_ZN4_sem7trywaitEPS_:
 199              	.LFB33:
  26:src/_sem.cpp  **** 
  27:src/_sem.cpp  **** int _sem::trywait(sem_t id) {
 200              		.loc 1 27 29 is_stmt 1
 201              		.cfi_startproc
 202              	.LVL18:
 203 010c 130101FF 		addi	sp,sp,-16
 204              		.cfi_def_cfa_offset 16
 205 0110 23348100 		sd	s0,8(sp)
 206              		.cfi_offset 8, -8
 207 0114 13040101 		addi	s0,sp,16
 208              		.cfi_def_cfa 8, 0
  28:src/_sem.cpp  ****     if (!id)return -1;
 209              		.loc 1 28 5
 210 0118 63080502 		beqz	a0,.L17
  29:src/_sem.cpp  ****     if (!id->opened) {
 211              		.loc 1 29 5
 212              		.loc 1 29 14 is_stmt 0
 213 011c 83470501 		lbu	a5,16(a0)
 214              		.loc 1 29 5
 215 0120 63880702 		beqz	a5,.L18
  30:src/_sem.cpp  ****         return -1;
  31:src/_sem.cpp  ****     }
  32:src/_sem.cpp  ****     if (--id->value >= 0) {
 216              		.loc 1 32 5 is_stmt 1
 217              		.loc 1 32 15 is_stmt 0
 218 0124 83270500 		lw	a5,0(a0)
 219              		.loc 1 32 9
 220 0128 9B87F7FF 		addiw	a5,a5,-1
 221              		.loc 1 32 21
 222 012c 2320F500 		sw	a5,0(a0)
 223              		.loc 1 32 5
 224 0130 13970702 		slli	a4,a5,32
 225 0134 63520702 		bgez	a4,.L19
  33:src/_sem.cpp  ****         return 1;
  34:src/_sem.cpp  ****     }
  35:src/_sem.cpp  ****     return 0;
 226              		.loc 1 35 12
 227 0138 13050000 		li	a0,0
 228              	.LVL19:
 229              	.L16:
  36:src/_sem.cpp  **** }
 230              		.loc 1 36 1
 231 013c 03348100 		ld	s0,8(sp)
 232              		.cfi_remember_state
 233              		.cfi_restore 8
 234              		.cfi_def_cfa 2, 16
 235 0140 13010101 		addi	sp,sp,16
 236              		.cfi_def_cfa_offset 0
 237 0144 67800000 		jr	ra
GAS LISTING /tmp/ccZSb1dC.s 			page 7


 238              	.LVL20:
 239              	.L17:
 240              		.cfi_restore_state
  28:src/_sem.cpp  ****     if (!id->opened) {
 241              		.loc 1 28 21
 242 0148 1305F0FF 		li	a0,-1
 243              	.LVL21:
 244 014c 6FF01FFF 		j	.L16
 245              	.LVL22:
 246              	.L18:
  30:src/_sem.cpp  ****     }
 247              		.loc 1 30 17
 248 0150 1305F0FF 		li	a0,-1
 249              	.LVL23:
 250 0154 6FF09FFE 		j	.L16
 251              	.LVL24:
 252              	.L19:
  33:src/_sem.cpp  ****     }
 253              		.loc 1 33 16
 254 0158 13051000 		li	a0,1
 255              	.LVL25:
 256 015c 6FF01FFE 		j	.L16
 257              		.cfi_endproc
 258              	.LFE33:
 260              		.align	2
 261              		.globl	_ZN4_sem6signalEPS_
 263              	_ZN4_sem6signalEPS_:
 264              	.LFB34:
  37:src/_sem.cpp  **** 
  38:src/_sem.cpp  **** int _sem::signal(sem_t id) {
 265              		.loc 1 38 28 is_stmt 1
 266              		.cfi_startproc
 267              	.LVL26:
  39:src/_sem.cpp  ****     if (!id) return -1;
 268              		.loc 1 39 5
 269 0160 63040506 		beqz	a0,.L23
  40:src/_sem.cpp  ****     if (!id->opened) { return -1; }
 270              		.loc 1 40 5
 271              		.loc 1 40 14 is_stmt 0
 272 0164 83470501 		lbu	a5,16(a0)
 273              		.loc 1 40 5
 274 0168 63840706 		beqz	a5,.L24
  41:src/_sem.cpp  ****     if (++id->value <= 0) {
 275              		.loc 1 41 5 is_stmt 1
 276              	.LBB20:
 277              		.loc 1 41 15 is_stmt 0
 278 016c 83270500 		lw	a5,0(a0)
 279              		.loc 1 41 9
 280 0170 9B871700 		addiw	a5,a5,1
 281 0174 1B870700 		sext.w	a4,a5
 282              		.loc 1 41 21
 283 0178 2320F500 		sw	a5,0(a0)
 284              		.loc 1 41 5
 285 017c 6356E000 		blez	a4,.L30
 286              	.LBE20:
  42:src/_sem.cpp  ****         PCB *thread = id->waitlist->get();
  43:src/_sem.cpp  ****         thread->setState(PCB::READY);
GAS LISTING /tmp/ccZSb1dC.s 			page 8


  44:src/_sem.cpp  ****         Scheduler::put(thread);
  45:src/_sem.cpp  ****     }
  46:src/_sem.cpp  ****     return 0;
 287              		.loc 1 46 12
 288 0180 13050000 		li	a0,0
 289              	.LVL27:
  47:src/_sem.cpp  **** }
 290              		.loc 1 47 1
 291 0184 67800000 		ret
 292              	.LVL28:
 293              	.L30:
  38:src/_sem.cpp  ****     if (!id) return -1;
 294              		.loc 1 38 28
 295 0188 130101FF 		addi	sp,sp,-16
 296              		.cfi_def_cfa_offset 16
 297 018c 23341100 		sd	ra,8(sp)
 298 0190 23308100 		sd	s0,0(sp)
 299              		.cfi_offset 1, -8
 300              		.cfi_offset 8, -16
 301 0194 13040101 		addi	s0,sp,16
 302              		.cfi_def_cfa 8, 0
 303              	.LBB24:
 304              	.LBB21:
  42:src/_sem.cpp  ****         PCB *thread = id->waitlist->get();
 305              		.loc 1 42 9 is_stmt 1
  42:src/_sem.cpp  ****         PCB *thread = id->waitlist->get();
 306              		.loc 1 42 40 is_stmt 0
 307 0198 03358500 		ld	a0,8(a0)
 308              	.LVL29:
 309 019c 97000000 		call	_ZN11waitSemList3getEv@plt
 309      E7800000 
 310              	.LVL30:
  43:src/_sem.cpp  ****         Scheduler::put(thread);
 311              		.loc 1 43 9 is_stmt 1
 312              	.LBB22:
 313              	.LBB23:
 314              		.loc 3 45 37
 315              		.loc 3 45 43 is_stmt 0
 316 01a4 93071000 		li	a5,1
 317 01a8 2328F502 		sw	a5,48(a0)
 318              	.LVL31:
 319              	.LBE23:
 320              	.LBE22:
  44:src/_sem.cpp  ****     }
 321              		.loc 1 44 9 is_stmt 1
  44:src/_sem.cpp  ****     }
 322              		.loc 1 44 23 is_stmt 0
 323 01ac 97000000 		call	_ZN9Scheduler3putEP3PCB@plt
 323      E7800000 
 324              	.LVL32:
 325              	.LBE21:
 326              	.LBE24:
  46:src/_sem.cpp  **** }
 327              		.loc 1 46 12
 328 01b4 13050000 		li	a0,0
 329              		.loc 1 47 1
 330 01b8 83308100 		ld	ra,8(sp)
GAS LISTING /tmp/ccZSb1dC.s 			page 9


 331              		.cfi_restore 1
 332 01bc 03340100 		ld	s0,0(sp)
 333              		.cfi_restore 8
 334              		.cfi_def_cfa 2, 16
 335 01c0 13010101 		addi	sp,sp,16
 336              		.cfi_def_cfa_offset 0
 337 01c4 67800000 		jr	ra
 338              	.LVL33:
 339              	.L23:
  39:src/_sem.cpp  ****     if (!id->opened) { return -1; }
 340              		.loc 1 39 22
 341 01c8 1305F0FF 		li	a0,-1
 342              	.LVL34:
 343 01cc 67800000 		ret
 344              	.LVL35:
 345              	.L24:
  40:src/_sem.cpp  ****     if (++id->value <= 0) {
 346              		.loc 1 40 32
 347 01d0 1305F0FF 		li	a0,-1
 348              	.LVL36:
 349 01d4 67800000 		ret
 350              		.cfi_endproc
 351              	.LFE34:
 353              		.align	2
 354              		.globl	_ZN4_sem5closeEPS_
 356              	_ZN4_sem5closeEPS_:
 357              	.LFB35:
  48:src/_sem.cpp  **** 
  49:src/_sem.cpp  **** int _sem::close(sem_t handler) {
 358              		.loc 1 49 32 is_stmt 1
 359              		.cfi_startproc
 360              	.LVL37:
  50:src/_sem.cpp  ****     if (!handler) { return -1; }
 361              		.loc 1 50 5
 362 01d8 63060508 		beqz	a0,.L36
  49:src/_sem.cpp  ****     if (!handler) { return -1; }
 363              		.loc 1 49 32 is_stmt 0
 364 01dc 130101FE 		addi	sp,sp,-32
 365              		.cfi_def_cfa_offset 32
 366 01e0 233C1100 		sd	ra,24(sp)
 367 01e4 23388100 		sd	s0,16(sp)
 368 01e8 23349100 		sd	s1,8(sp)
 369              		.cfi_offset 1, -8
 370              		.cfi_offset 8, -16
 371              		.cfi_offset 9, -24
 372 01ec 13040102 		addi	s0,sp,32
 373              		.cfi_def_cfa 8, 0
 374 01f0 93040500 		mv	s1,a0
  51:src/_sem.cpp  ****     if (!handler->opened) { return -1; }
 375              		.loc 1 51 5 is_stmt 1
 376              		.loc 1 51 19 is_stmt 0
 377 01f4 83470501 		lbu	a5,16(a0)
 378              		.loc 1 51 5
 379 01f8 638A0706 		beqz	a5,.L37
  52:src/_sem.cpp  ****     handler->opened = false;
 380              		.loc 1 52 5 is_stmt 1
 381              		.loc 1 52 21 is_stmt 0
GAS LISTING /tmp/ccZSb1dC.s 			page 10


 382 01fc 23080500 		sb	zero,16(a0)
  53:src/_sem.cpp  ****     handler->value = 0;
 383              		.loc 1 53 5 is_stmt 1
 384              		.loc 1 53 20 is_stmt 0
 385 0200 23200500 		sw	zero,0(a0)
 386              	.LVL38:
 387              	.L34:
  54:src/_sem.cpp  **** 
  55:src/_sem.cpp  ****     while (!handler->waitlist->empty() && handler->waitlist->head->thread) {
 388              		.loc 1 55 5 is_stmt 1
 389              		.loc 1 55 40
 390              		.loc 1 55 22 is_stmt 0
 391 0204 03B58400 		ld	a0,8(s1)
 392              	.LVL39:
 393              	.LBB25:
 394              	.LBB26:
  15:src/../h/waitSemList.hpp ****     struct waitSemElem {
  16:src/../h/waitSemList.hpp ****         PCB *thread;
  17:src/../h/waitSemList.hpp ****         waitSemElem *next;
  18:src/../h/waitSemList.hpp ****     };
  19:src/../h/waitSemList.hpp **** 
  20:src/../h/waitSemList.hpp ****     waitSemElem *head;
  21:src/../h/waitSemList.hpp ****     waitSemElem *tail;
  22:src/../h/waitSemList.hpp ****     bool empty() { return head == nullptr; }
 395              		.loc 2 22 20 is_stmt 1
 396              		.loc 2 22 27 is_stmt 0
 397 0208 83370500 		ld	a5,0(a0)
 398              	.LVL40:
 399              	.LBE26:
 400              	.LBE25:
 401              		.loc 1 55 40
 402 020c 63840702 		beqz	a5,.L33
 403              		.loc 1 55 68 discriminator 1
 404 0210 83B70700 		ld	a5,0(a5)
 405              		.loc 1 55 40 discriminator 1
 406 0214 63800702 		beqz	a5,.L33
 407              	.LBB27:
  56:src/_sem.cpp  ****         PCB *thread = handler->waitlist->get();
 408              		.loc 1 56 9 is_stmt 1
 409              		.loc 1 56 45 is_stmt 0
 410 0218 97000000 		call	_ZN11waitSemList3getEv@plt
 410      E7800000 
 411              	.LVL41:
  57:src/_sem.cpp  ****         thread->setState(PCB::READY);
 412              		.loc 1 57 9 is_stmt 1
 413              	.LBB28:
 414              	.LBB29:
 415              		.loc 3 45 37
 416              		.loc 3 45 43 is_stmt 0
 417 0220 93071000 		li	a5,1
 418 0224 2328F502 		sw	a5,48(a0)
 419              	.LVL42:
 420              	.LBE29:
 421              	.LBE28:
  58:src/_sem.cpp  ****         Scheduler::put(thread);
 422              		.loc 1 58 9 is_stmt 1
 423              		.loc 1 58 23 is_stmt 0
GAS LISTING /tmp/ccZSb1dC.s 			page 11


 424 0228 97000000 		call	_ZN9Scheduler3putEP3PCB@plt
 424      E7800000 
 425              	.LVL43:
 426              	.LBE27:
  55:src/_sem.cpp  ****         PCB *thread = handler->waitlist->get();
 427              		.loc 1 55 5
 428 0230 6FF05FFD 		j	.L34
 429              	.L33:
  59:src/_sem.cpp  ****     }
  60:src/_sem.cpp  ****     delete handler->waitlist;
 430              		.loc 1 60 5 is_stmt 1
 431              		.loc 1 60 29 is_stmt 0
 432 0234 63060500 		beqz	a0,.L35
 433              		.loc 1 60 21 discriminator 1
 434 0238 97000000 		call	_ZdlPv@plt
 434      E7800000 
 435              	.LVL44:
 436              	.L35:
  61:src/_sem.cpp  ****     mem_free(handler);
 437              		.loc 1 61 5 is_stmt 1
 438              		.loc 1 61 13 is_stmt 0
 439 0240 13850400 		mv	a0,s1
 440 0244 97000000 		call	_Z8mem_freePv@plt
 440      E7800000 
 441              	.LVL45:
  62:src/_sem.cpp  ****     return 0;
 442              		.loc 1 62 5 is_stmt 1
 443              		.loc 1 62 12 is_stmt 0
 444 024c 13050000 		li	a0,0
 445              	.L32:
  63:src/_sem.cpp  **** }
 446              		.loc 1 63 1
 447 0250 83308101 		ld	ra,24(sp)
 448              		.cfi_restore 1
 449 0254 03340101 		ld	s0,16(sp)
 450              		.cfi_restore 8
 451              		.cfi_def_cfa 2, 32
 452 0258 83348100 		ld	s1,8(sp)
 453              		.cfi_restore 9
 454              	.LVL46:
 455 025c 13010102 		addi	sp,sp,32
 456              		.cfi_def_cfa_offset 0
 457 0260 67800000 		jr	ra
 458              	.LVL47:
 459              	.L36:
  50:src/_sem.cpp  ****     if (!handler->opened) { return -1; }
 460              		.loc 1 50 29
 461 0264 1305F0FF 		li	a0,-1
 462              	.LVL48:
 463              		.loc 1 63 1
 464 0268 67800000 		ret
 465              	.LVL49:
 466              	.L37:
 467              		.cfi_def_cfa_register 8
 468              		.cfi_offset 1, -8
 469              		.cfi_offset 8, -16
 470              		.cfi_offset 9, -24
GAS LISTING /tmp/ccZSb1dC.s 			page 12


  51:src/_sem.cpp  ****     handler->opened = false;
 471              		.loc 1 51 37
 472 026c 1305F0FF 		li	a0,-1
 473 0270 6FF01FFE 		j	.L32
 474              		.cfi_endproc
 475              	.LFE35:
 477              	.Letext0:
 478              		.file 4 "src/../h/../lib/hw.h"
 479              		.file 5 "src/../h/syscall_c.hpp"
 480              		.file 6 "src/../h/_sem.hpp"
 481              		.file 7 "src/../h/scheduler.hpp"
GAS LISTING /tmp/ccZSb1dC.s 			page 13


DEFINED SYMBOLS
                            *ABS*:0000000000000000 _sem.cpp
     /tmp/ccZSb1dC.s:9      .text:0000000000000000 _ZN4_sem4openEj
     /tmp/ccZSb1dC.s:13     .text:0000000000000000 .L0 
     /tmp/ccZSb1dC.s:15     .text:0000000000000000 .L0 
     /tmp/ccZSb1dC.s:16     .text:0000000000000004 .L0 
     /tmp/ccZSb1dC.s:21     .text:0000000000000014 .L0 
     /tmp/ccZSb1dC.s:22     .text:0000000000000014 .L0 
     /tmp/ccZSb1dC.s:23     .text:0000000000000014 .L0 
     /tmp/ccZSb1dC.s:24     .text:0000000000000014 .L0 
     /tmp/ccZSb1dC.s:26     .text:0000000000000018 .L0 
     /tmp/ccZSb1dC.s:29     .text:000000000000001c .L0 
     /tmp/ccZSb1dC.s:30     .text:000000000000001c .L0 
     /tmp/ccZSb1dC.s:37     .text:000000000000002c .L0 
     /tmp/ccZSb1dC.s:39     .text:0000000000000030 .L0 
     /tmp/ccZSb1dC.s:40     .text:0000000000000030 .L0 
     /tmp/ccZSb1dC.s:42     .text:0000000000000034 .L0 
     /tmp/ccZSb1dC.s:43     .text:0000000000000034 .L0 
     /tmp/ccZSb1dC.s:46     .text:000000000000003c .L0 
     /tmp/ccZSb1dC.s:47     .text:000000000000003c .L0 
     /tmp/ccZSb1dC.s:54     .text:0000000000000048 .L0 
     /tmp/ccZSb1dC.s:60     .text:0000000000000050 .L0 
     /tmp/ccZSb1dC.s:63     .text:0000000000000054 .L0 
     /tmp/ccZSb1dC.s:64     .text:0000000000000054 .L0 
     /tmp/ccZSb1dC.s:66     .text:000000000000005c .L0 
     /tmp/ccZSb1dC.s:68     .text:0000000000000060 .L0 
     /tmp/ccZSb1dC.s:69     .text:0000000000000060 .L0 
     /tmp/ccZSb1dC.s:71     .text:0000000000000064 .L0 
     /tmp/ccZSb1dC.s:74     .text:0000000000000068 .L0 
     /tmp/ccZSb1dC.s:76     .text:000000000000006c .L0 
     /tmp/ccZSb1dC.s:78     .text:0000000000000070 .L0 
     /tmp/ccZSb1dC.s:84     .text:0000000000000070 _ZN4_sem4waitEPS_
     /tmp/ccZSb1dC.s:87     .text:0000000000000070 .L0 
     /tmp/ccZSb1dC.s:89     .text:0000000000000070 .L0 
     /tmp/ccZSb1dC.s:90     .text:0000000000000070 .L0 
     /tmp/ccZSb1dC.s:92     .text:0000000000000074 .L0 
     /tmp/ccZSb1dC.s:93     .text:0000000000000078 .L0 
     /tmp/ccZSb1dC.s:97     .text:0000000000000084 .L0 
     /tmp/ccZSb1dC.s:98     .text:0000000000000084 .L0 
     /tmp/ccZSb1dC.s:99     .text:0000000000000084 .L0 
     /tmp/ccZSb1dC.s:101    .text:0000000000000088 .L0 
     /tmp/ccZSb1dC.s:104    .text:000000000000008c .L0 
     /tmp/ccZSb1dC.s:105    .text:000000000000008c .L0 
     /tmp/ccZSb1dC.s:107    .text:0000000000000090 .L0 
     /tmp/ccZSb1dC.s:109    .text:0000000000000094 .L0 
     /tmp/ccZSb1dC.s:110    .text:0000000000000094 .L0 
     /tmp/ccZSb1dC.s:112    .text:0000000000000098 .L0 
     /tmp/ccZSb1dC.s:114    .text:000000000000009c .L0 
     /tmp/ccZSb1dC.s:116    .text:00000000000000a0 .L0 
     /tmp/ccZSb1dC.s:121    .text:00000000000000a8 .L0 
     /tmp/ccZSb1dC.s:122    .text:00000000000000a8 .L0 
     /tmp/ccZSb1dC.s:124    .text:00000000000000ac .L0 
     /tmp/ccZSb1dC.s:128    .text:00000000000000b4 .L0 
     /tmp/ccZSb1dC.s:129    .text:00000000000000b8 .L0 
     /tmp/ccZSb1dC.s:130    .text:00000000000000b8 .L0 
     /tmp/ccZSb1dC.s:132    .text:00000000000000bc .L0 
     /tmp/ccZSb1dC.s:133    .text:00000000000000bc .L0 
GAS LISTING /tmp/ccZSb1dC.s 			page 14


     /tmp/ccZSb1dC.s:135    .text:00000000000000c0 .L0 
     /tmp/ccZSb1dC.s:138    .text:00000000000000c4 .L0 
     /tmp/ccZSb1dC.s:142    .text:00000000000000c8 .L0 
     /tmp/ccZSb1dC.s:144    .text:00000000000000c8 .L0 
     /tmp/ccZSb1dC.s:145    .text:00000000000000c8 .L0 
     /tmp/ccZSb1dC.s:152    .text:00000000000000d4 .L0 
     /tmp/ccZSb1dC.s:153    .text:00000000000000d4 .L0 
     /tmp/ccZSb1dC.s:159    .text:00000000000000dc .L0 
     /tmp/ccZSb1dC.s:160    .text:00000000000000dc .L0 
     /tmp/ccZSb1dC.s:164    .text:00000000000000e8 .L0 
     /tmp/ccZSb1dC.s:165    .text:00000000000000e8 .L0 
     /tmp/ccZSb1dC.s:170    .text:00000000000000f4 .L0 
     /tmp/ccZSb1dC.s:171    .text:00000000000000f4 .L0 
     /tmp/ccZSb1dC.s:172    .text:00000000000000f4 .L0 
     /tmp/ccZSb1dC.s:173    .text:00000000000000f4 .L0 
     /tmp/ccZSb1dC.s:175    .text:00000000000000f4 .L0 
     /tmp/ccZSb1dC.s:178    .text:00000000000000f8 .L0 
     /tmp/ccZSb1dC.s:181    .text:00000000000000fc .L0 
     /tmp/ccZSb1dC.s:182    .text:00000000000000fc .L0 
     /tmp/ccZSb1dC.s:183    .text:00000000000000fc .L0 
     /tmp/ccZSb1dC.s:184    .text:00000000000000fc .L0 
     /tmp/ccZSb1dC.s:186    .text:00000000000000fc .L0 
     /tmp/ccZSb1dC.s:190    .text:0000000000000104 .L0 
     /tmp/ccZSb1dC.s:192    .text:000000000000010c .L0 
     /tmp/ccZSb1dC.s:198    .text:000000000000010c _ZN4_sem7trywaitEPS_
     /tmp/ccZSb1dC.s:201    .text:000000000000010c .L0 
     /tmp/ccZSb1dC.s:203    .text:000000000000010c .L0 
     /tmp/ccZSb1dC.s:204    .text:0000000000000110 .L0 
     /tmp/ccZSb1dC.s:206    .text:0000000000000114 .L0 
     /tmp/ccZSb1dC.s:208    .text:0000000000000118 .L0 
     /tmp/ccZSb1dC.s:210    .text:0000000000000118 .L0 
     /tmp/ccZSb1dC.s:212    .text:000000000000011c .L0 
     /tmp/ccZSb1dC.s:213    .text:000000000000011c .L0 
     /tmp/ccZSb1dC.s:215    .text:0000000000000120 .L0 
     /tmp/ccZSb1dC.s:217    .text:0000000000000124 .L0 
     /tmp/ccZSb1dC.s:218    .text:0000000000000124 .L0 
     /tmp/ccZSb1dC.s:220    .text:0000000000000128 .L0 
     /tmp/ccZSb1dC.s:222    .text:000000000000012c .L0 
     /tmp/ccZSb1dC.s:224    .text:0000000000000130 .L0 
     /tmp/ccZSb1dC.s:227    .text:0000000000000138 .L0 
     /tmp/ccZSb1dC.s:231    .text:000000000000013c .L0 
     /tmp/ccZSb1dC.s:232    .text:0000000000000140 .L0 
     /tmp/ccZSb1dC.s:233    .text:0000000000000140 .L0 
     /tmp/ccZSb1dC.s:234    .text:0000000000000140 .L0 
     /tmp/ccZSb1dC.s:236    .text:0000000000000144 .L0 
     /tmp/ccZSb1dC.s:240    .text:0000000000000148 .L0 
     /tmp/ccZSb1dC.s:242    .text:0000000000000148 .L0 
     /tmp/ccZSb1dC.s:248    .text:0000000000000150 .L0 
     /tmp/ccZSb1dC.s:254    .text:0000000000000158 .L0 
     /tmp/ccZSb1dC.s:257    .text:0000000000000160 .L0 
     /tmp/ccZSb1dC.s:263    .text:0000000000000160 _ZN4_sem6signalEPS_
     /tmp/ccZSb1dC.s:266    .text:0000000000000160 .L0 
     /tmp/ccZSb1dC.s:268    .text:0000000000000160 .L0 
     /tmp/ccZSb1dC.s:269    .text:0000000000000160 .L0 
     /tmp/ccZSb1dC.s:271    .text:0000000000000164 .L0 
     /tmp/ccZSb1dC.s:272    .text:0000000000000164 .L0 
     /tmp/ccZSb1dC.s:274    .text:0000000000000168 .L0 
GAS LISTING /tmp/ccZSb1dC.s 			page 15


     /tmp/ccZSb1dC.s:277    .text:000000000000016c .L0 
     /tmp/ccZSb1dC.s:278    .text:000000000000016c .L0 
     /tmp/ccZSb1dC.s:280    .text:0000000000000170 .L0 
     /tmp/ccZSb1dC.s:283    .text:0000000000000178 .L0 
     /tmp/ccZSb1dC.s:285    .text:000000000000017c .L0 
     /tmp/ccZSb1dC.s:288    .text:0000000000000180 .L0 
     /tmp/ccZSb1dC.s:291    .text:0000000000000184 .L0 
     /tmp/ccZSb1dC.s:295    .text:0000000000000188 .L0 
     /tmp/ccZSb1dC.s:296    .text:000000000000018c .L0 
     /tmp/ccZSb1dC.s:299    .text:0000000000000194 .L0 
     /tmp/ccZSb1dC.s:300    .text:0000000000000194 .L0 
     /tmp/ccZSb1dC.s:302    .text:0000000000000198 .L0 
     /tmp/ccZSb1dC.s:306    .text:0000000000000198 .L0 
     /tmp/ccZSb1dC.s:307    .text:0000000000000198 .L0 
     /tmp/ccZSb1dC.s:314    .text:00000000000001a4 .L0 
     /tmp/ccZSb1dC.s:315    .text:00000000000001a4 .L0 
     /tmp/ccZSb1dC.s:316    .text:00000000000001a4 .L0 
     /tmp/ccZSb1dC.s:322    .text:00000000000001ac .L0 
     /tmp/ccZSb1dC.s:323    .text:00000000000001ac .L0 
     /tmp/ccZSb1dC.s:328    .text:00000000000001b4 .L0 
     /tmp/ccZSb1dC.s:330    .text:00000000000001b8 .L0 
     /tmp/ccZSb1dC.s:331    .text:00000000000001bc .L0 
     /tmp/ccZSb1dC.s:333    .text:00000000000001c0 .L0 
     /tmp/ccZSb1dC.s:334    .text:00000000000001c0 .L0 
     /tmp/ccZSb1dC.s:336    .text:00000000000001c4 .L0 
     /tmp/ccZSb1dC.s:341    .text:00000000000001c8 .L0 
     /tmp/ccZSb1dC.s:347    .text:00000000000001d0 .L0 
     /tmp/ccZSb1dC.s:350    .text:00000000000001d8 .L0 
     /tmp/ccZSb1dC.s:356    .text:00000000000001d8 _ZN4_sem5closeEPS_
     /tmp/ccZSb1dC.s:359    .text:00000000000001d8 .L0 
     /tmp/ccZSb1dC.s:361    .text:00000000000001d8 .L0 
     /tmp/ccZSb1dC.s:362    .text:00000000000001d8 .L0 
     /tmp/ccZSb1dC.s:364    .text:00000000000001dc .L0 
     /tmp/ccZSb1dC.s:365    .text:00000000000001e0 .L0 
     /tmp/ccZSb1dC.s:369    .text:00000000000001ec .L0 
     /tmp/ccZSb1dC.s:370    .text:00000000000001ec .L0 
     /tmp/ccZSb1dC.s:371    .text:00000000000001ec .L0 
     /tmp/ccZSb1dC.s:373    .text:00000000000001f0 .L0 
     /tmp/ccZSb1dC.s:376    .text:00000000000001f4 .L0 
     /tmp/ccZSb1dC.s:377    .text:00000000000001f4 .L0 
     /tmp/ccZSb1dC.s:379    .text:00000000000001f8 .L0 
     /tmp/ccZSb1dC.s:381    .text:00000000000001fc .L0 
     /tmp/ccZSb1dC.s:382    .text:00000000000001fc .L0 
     /tmp/ccZSb1dC.s:384    .text:0000000000000200 .L0 
     /tmp/ccZSb1dC.s:385    .text:0000000000000200 .L0 
     /tmp/ccZSb1dC.s:389    .text:0000000000000204 .L0 
     /tmp/ccZSb1dC.s:390    .text:0000000000000204 .L0 
     /tmp/ccZSb1dC.s:391    .text:0000000000000204 .L0 
     /tmp/ccZSb1dC.s:396    .text:0000000000000208 .L0 
     /tmp/ccZSb1dC.s:397    .text:0000000000000208 .L0 
     /tmp/ccZSb1dC.s:402    .text:000000000000020c .L0 
     /tmp/ccZSb1dC.s:404    .text:0000000000000210 .L0 
     /tmp/ccZSb1dC.s:406    .text:0000000000000214 .L0 
     /tmp/ccZSb1dC.s:409    .text:0000000000000218 .L0 
     /tmp/ccZSb1dC.s:410    .text:0000000000000218 .L0 
     /tmp/ccZSb1dC.s:415    .text:0000000000000220 .L0 
     /tmp/ccZSb1dC.s:416    .text:0000000000000220 .L0 
GAS LISTING /tmp/ccZSb1dC.s 			page 16


     /tmp/ccZSb1dC.s:417    .text:0000000000000220 .L0 
     /tmp/ccZSb1dC.s:423    .text:0000000000000228 .L0 
     /tmp/ccZSb1dC.s:424    .text:0000000000000228 .L0 
     /tmp/ccZSb1dC.s:428    .text:0000000000000230 .L0 
     /tmp/ccZSb1dC.s:431    .text:0000000000000234 .L0 
     /tmp/ccZSb1dC.s:432    .text:0000000000000234 .L0 
     /tmp/ccZSb1dC.s:434    .text:0000000000000238 .L0 
     /tmp/ccZSb1dC.s:438    .text:0000000000000240 .L0 
     /tmp/ccZSb1dC.s:439    .text:0000000000000240 .L0 
     /tmp/ccZSb1dC.s:443    .text:000000000000024c .L0 
     /tmp/ccZSb1dC.s:444    .text:000000000000024c .L0 
     /tmp/ccZSb1dC.s:447    .text:0000000000000250 .L0 
     /tmp/ccZSb1dC.s:448    .text:0000000000000254 .L0 
     /tmp/ccZSb1dC.s:450    .text:0000000000000258 .L0 
     /tmp/ccZSb1dC.s:451    .text:0000000000000258 .L0 
     /tmp/ccZSb1dC.s:453    .text:000000000000025c .L0 
     /tmp/ccZSb1dC.s:456    .text:0000000000000260 .L0 
     /tmp/ccZSb1dC.s:461    .text:0000000000000264 .L0 
     /tmp/ccZSb1dC.s:464    .text:0000000000000268 .L0 
     /tmp/ccZSb1dC.s:467    .text:000000000000026c .L0 
     /tmp/ccZSb1dC.s:468    .text:000000000000026c .L0 
     /tmp/ccZSb1dC.s:469    .text:000000000000026c .L0 
     /tmp/ccZSb1dC.s:470    .text:000000000000026c .L0 
     /tmp/ccZSb1dC.s:472    .text:000000000000026c .L0 
     /tmp/ccZSb1dC.s:474    .text:0000000000000274 .L0 
     /tmp/ccZSb1dC.s:482    .text:0000000000000274 .L0 
     /tmp/ccZSb1dC.s:145    .text:00000000000000c8 .L0 
     /tmp/ccZSb1dC.s:62     .text:0000000000000054 .L1
     /tmp/ccZSb1dC.s:169    .text:00000000000000f4 .L7
     /tmp/ccZSb1dC.s:180    .text:00000000000000fc .L8
     /tmp/ccZSb1dC.s:141    .text:00000000000000c8 .L14
     /tmp/ccZSb1dC.s:188    .text:0000000000000104 .L9
     /tmp/ccZSb1dC.s:119    .text:00000000000000a8 .L6
     /tmp/ccZSb1dC.s:126    .text:00000000000000b4 .L5
     /tmp/ccZSb1dC.s:239    .text:0000000000000148 .L17
     /tmp/ccZSb1dC.s:246    .text:0000000000000150 .L18
     /tmp/ccZSb1dC.s:252    .text:0000000000000158 .L19
     /tmp/ccZSb1dC.s:229    .text:000000000000013c .L16
     /tmp/ccZSb1dC.s:339    .text:00000000000001c8 .L23
     /tmp/ccZSb1dC.s:345    .text:00000000000001d0 .L24
     /tmp/ccZSb1dC.s:293    .text:0000000000000188 .L30
     /tmp/ccZSb1dC.s:459    .text:0000000000000264 .L36
     /tmp/ccZSb1dC.s:466    .text:000000000000026c .L37
     /tmp/ccZSb1dC.s:429    .text:0000000000000234 .L33
     /tmp/ccZSb1dC.s:387    .text:0000000000000204 .L34
     /tmp/ccZSb1dC.s:436    .text:0000000000000240 .L35
     /tmp/ccZSb1dC.s:445    .text:0000000000000250 .L32
     /tmp/ccZSb1dC.s:1595   .debug_abbrev:0000000000000000 .Ldebug_abbrev0
     /tmp/ccZSb1dC.s:3097   .debug_str:0000000000000573 .LASF109
     /tmp/ccZSb1dC.s:2899   .debug_str:000000000000003b .LASF110
     /tmp/ccZSb1dC.s:3001   .debug_str:00000000000002d8 .LASF111
     /tmp/ccZSb1dC.s:5      .text:0000000000000000 .Ltext0
     /tmp/ccZSb1dC.s:477    .text:0000000000000274 .Letext0
     /tmp/ccZSb1dC.s:2885   .debug_line:0000000000000000 .Ldebug_line0
     /tmp/ccZSb1dC.s:3037   .debug_str:00000000000003dd .LASF0
     /tmp/ccZSb1dC.s:3049   .debug_str:000000000000042b .LASF1
     /tmp/ccZSb1dC.s:3011   .debug_str:0000000000000322 .LASF2
GAS LISTING /tmp/ccZSb1dC.s 			page 17


     /tmp/ccZSb1dC.s:2985   .debug_str:000000000000026e .LASF4
     /tmp/ccZSb1dC.s:3087   .debug_str:0000000000000532 .LASF3
     /tmp/ccZSb1dC.s:2911   .debug_str:0000000000000098 .LASF5
     /tmp/ccZSb1dC.s:2951   .debug_str:000000000000019d .LASF6
     /tmp/ccZSb1dC.s:3051   .debug_str:000000000000043e .LASF7
     /tmp/ccZSb1dC.s:3035   .debug_str:00000000000003ca .LASF8
     /tmp/ccZSb1dC.s:3109   .debug_str:00000000000006a1 .LASF9
     /tmp/ccZSb1dC.s:2975   .debug_str:0000000000000227 .LASF10
     /tmp/ccZSb1dC.s:3067   .debug_str:00000000000004b2 .LASF11
     /tmp/ccZSb1dC.s:3101   .debug_str:000000000000063f .LASF12
     /tmp/ccZSb1dC.s:2917   .debug_str:00000000000000af .LASF13
     /tmp/ccZSb1dC.s:2891   .debug_str:000000000000000f .LASF14
     /tmp/ccZSb1dC.s:2929   .debug_str:0000000000000119 .LASF15
     /tmp/ccZSb1dC.s:3081   .debug_str:000000000000050f .LASF16
     /tmp/ccZSb1dC.s:2943   .debug_str:0000000000000167 .LASF17
     /tmp/ccZSb1dC.s:2887   .debug_str:0000000000000000 .LASF18
     /tmp/ccZSb1dC.s:2969   .debug_str:000000000000020d .LASF112
     /tmp/ccZSb1dC.s:3099   .debug_str:0000000000000637 .LASF19
     /tmp/ccZSb1dC.s:3065   .debug_str:00000000000004ac .LASF20
     /tmp/ccZSb1dC.s:3059   .debug_str:0000000000000481 .LASF21
     /tmp/ccZSb1dC.s:3089   .debug_str:0000000000000544 .LASF22
     /tmp/ccZSb1dC.s:2987   .debug_str:0000000000000275 .LASF23
     /tmp/ccZSb1dC.s:3091   .debug_str:000000000000054d .LASF24
     /tmp/ccZSb1dC.s:2971   .debug_str:0000000000000219 .LASF25
     /tmp/ccZSb1dC.s:2897   .debug_str:0000000000000033 .LASF60
     /tmp/ccZSb1dC.s:2967   .debug_str:00000000000001f8 .LASF65
     /tmp/ccZSb1dC.s:3093   .debug_str:0000000000000556 .LASF62
     /tmp/ccZSb1dC.s:3079   .debug_str:000000000000050a .LASF26
     /tmp/ccZSb1dC.s:2921   .debug_str:00000000000000d3 .LASF28
     /tmp/ccZSb1dC.s:3095   .debug_str:000000000000056a .LASF30
     /tmp/ccZSb1dC.s:3077   .debug_str:00000000000004f6 .LASF32
     /tmp/ccZSb1dC.s:2893   .debug_str:000000000000001f .LASF27
     /tmp/ccZSb1dC.s:3045   .debug_str:0000000000000410 .LASF29
     /tmp/ccZSb1dC.s:3013   .debug_str:0000000000000330 .LASF31
     /tmp/ccZSb1dC.s:2981   .debug_str:000000000000024e .LASF33
     /tmp/ccZSb1dC.s:2995   .debug_str:00000000000002a5 .LASF34
     /tmp/ccZSb1dC.s:3103   .debug_str:000000000000064e .LASF35
     /tmp/ccZSb1dC.s:2913   .debug_str:000000000000009f .LASF36
     /tmp/ccZSb1dC.s:2953   .debug_str:00000000000001a4 .LASF37
     /tmp/ccZSb1dC.s:3033   .debug_str:00000000000003c0 .LASF38
     /tmp/ccZSb1dC.s:2907   .debug_str:000000000000007c .LASF39
     /tmp/ccZSb1dC.s:3115   .debug_str:00000000000006cb .LASF40
     /tmp/ccZSb1dC.s:2903   .debug_str:000000000000004d .LASF41
     /tmp/ccZSb1dC.s:3075   .debug_str:00000000000004f1 .LASF113
     /tmp/ccZSb1dC.s:3083   .debug_str:0000000000000525 .LASF42
     /tmp/ccZSb1dC.s:3113   .debug_str:00000000000006bb .LASF44
     /tmp/ccZSb1dC.s:3039   .debug_str:00000000000003ea .LASF43
     /tmp/ccZSb1dC.s:2977   .debug_str:0000000000000235 .LASF45
     /tmp/ccZSb1dC.s:2993   .debug_str:000000000000029c .LASF46
     /tmp/ccZSb1dC.s:3005   .debug_str:00000000000002fb .LASF47
     /tmp/ccZSb1dC.s:3021   .debug_str:0000000000000364 .LASF48
     /tmp/ccZSb1dC.s:3107   .debug_str:000000000000067e .LASF49
     /tmp/ccZSb1dC.s:2965   .debug_str:00000000000001f0 .LASF50
     /tmp/ccZSb1dC.s:2925   .debug_str:00000000000000ec .LASF51
     /tmp/ccZSb1dC.s:2905   .debug_str:0000000000000070 .LASF88
     /tmp/ccZSb1dC.s:2989   .debug_str:000000000000027d .LASF114
     /tmp/ccZSb1dC.s:2963   .debug_str:00000000000001eb .LASF52
GAS LISTING /tmp/ccZSb1dC.s 			page 18


     /tmp/ccZSb1dC.s:3015   .debug_str:000000000000033f .LASF53
     /tmp/ccZSb1dC.s:2979   .debug_str:0000000000000248 .LASF54
     /tmp/ccZSb1dC.s:2991   .debug_str:0000000000000294 .LASF55
     /tmp/ccZSb1dC.s:2909   .debug_str:0000000000000092 .LASF56
     /tmp/ccZSb1dC.s:2957   .debug_str:00000000000001cd .LASF57
     /tmp/ccZSb1dC.s:3085   .debug_str:000000000000052b .LASF58
     /tmp/ccZSb1dC.s:3127   .debug_str:0000000000000717 .LASF59
     /tmp/ccZSb1dC.s:3007   .debug_str:000000000000030f .LASF115
     /tmp/ccZSb1dC.s:3061   .debug_str:0000000000000489 .LASF116
     /tmp/ccZSb1dC.s:3119   .debug_str:00000000000006ed .LASF61
     /tmp/ccZSb1dC.s:2927   .debug_str:00000000000000f1 .LASF63
     /tmp/ccZSb1dC.s:3041   .debug_str:00000000000003f3 .LASF64
     /tmp/ccZSb1dC.s:3019   .debug_str:0000000000000354 .LASF66
     /tmp/ccZSb1dC.s:2997   .debug_str:00000000000002b5 .LASF117
     /tmp/ccZSb1dC.s:2915   .debug_str:00000000000000a9 .LASF67
     /tmp/ccZSb1dC.s:2983   .debug_str:0000000000000269 .LASF68
     /tmp/ccZSb1dC.s:2945   .debug_str:000000000000017d .LASF69
     /tmp/ccZSb1dC.s:2931   .debug_str:0000000000000125 .LASF70
     /tmp/ccZSb1dC.s:2889   .debug_str:0000000000000009 .LASF71
     /tmp/ccZSb1dC.s:3025   .debug_str:0000000000000386 .LASF72
     /tmp/ccZSb1dC.s:3009   .debug_str:000000000000031d .LASF73
     /tmp/ccZSb1dC.s:3027   .debug_str:0000000000000399 .LASF74
     /tmp/ccZSb1dC.s:3131   .debug_str:0000000000000726 .LASF75
     /tmp/ccZSb1dC.s:3031   .debug_str:00000000000003ae .LASF76
     /tmp/ccZSb1dC.s:3057   .debug_str:000000000000047a .LASF77
     /tmp/ccZSb1dC.s:2955   .debug_str:00000000000001b9 .LASF78
     /tmp/ccZSb1dC.s:2941   .debug_str:000000000000015f .LASF79
     /tmp/ccZSb1dC.s:2949   .debug_str:0000000000000188 .LASF80
     /tmp/ccZSb1dC.s:3121   .debug_str:00000000000006fb .LASF81
     /tmp/ccZSb1dC.s:2933   .debug_str:000000000000012e .LASF82
     /tmp/ccZSb1dC.s:2973   .debug_str:000000000000021e .LASF83
     /tmp/ccZSb1dC.s:3055   .debug_str:0000000000000466 .LASF84
     /tmp/ccZSb1dC.s:2961   .debug_str:00000000000001e4 .LASF86
     /tmp/ccZSb1dC.s:3063   .debug_str:00000000000004a2 .LASF85
     /tmp/ccZSb1dC.s:3117   .debug_str:00000000000006d9 .LASF87
     /tmp/ccZSb1dC.s:2919   .debug_str:00000000000000bf .LASF118
     /tmp/ccZSb1dC.s:2999   .debug_str:00000000000002c0 .LASF119
     /tmp/ccZSb1dC.s:2895   .debug_str:0000000000000029 .LASF120
     /tmp/ccZSb1dC.s:2901   .debug_str:0000000000000048 .LASF89
     /tmp/ccZSb1dC.s:3017   .debug_str:0000000000000348 .LASF90
     /tmp/ccZSb1dC.s:3071   .debug_str:00000000000004ca .LASF121
     /tmp/ccZSb1dC.s:3047   .debug_str:0000000000000424 .LASF91
     /tmp/ccZSb1dC.s:3129   .debug_str:0000000000000721 .LASF92
     /tmp/ccZSb1dC.s:3053   .debug_str:0000000000000451 .LASF93
     /tmp/ccZSb1dC.s:2947   .debug_str:0000000000000183 .LASF94
     /tmp/ccZSb1dC.s:3029   .debug_str:00000000000003a9 .LASF95
     /tmp/ccZSb1dC.s:2939   .debug_str:0000000000000159 .LASF96
     /tmp/ccZSb1dC.s:3023   .debug_str:000000000000036d .LASF97
     /tmp/ccZSb1dC.s:3043   .debug_str:00000000000003f9 .LASF122
     /tmp/ccZSb1dC.s:3073   .debug_str:00000000000004d6 .LASF123
     /tmp/ccZSb1dC.s:357    .text:00000000000001d8 .LFB35
     /tmp/ccZSb1dC.s:475    .text:0000000000000274 .LFE35
     /tmp/ccZSb1dC.s:2935   .debug_str:0000000000000143 .LASF98
     /tmp/ccZSb1dC.s:2610   .debug_loc:0000000000000000 .LLST11
     /tmp/ccZSb1dC.s:407    .text:0000000000000218 .LBB27
     /tmp/ccZSb1dC.s:426    .text:0000000000000230 .LBE27
     /tmp/ccZSb1dC.s:2643   .debug_loc:0000000000000088 .LLST13
GAS LISTING /tmp/ccZSb1dC.s 			page 19


     /tmp/ccZSb1dC.s:413    .text:0000000000000220 .LBB28
     /tmp/ccZSb1dC.s:421    .text:0000000000000228 .LBE28
     /tmp/ccZSb1dC.s:2650   .debug_loc:00000000000000ab .LLST14
     /tmp/ccZSb1dC.s:2658   .debug_loc:00000000000000cf .LLST15
     /tmp/ccZSb1dC.s:411    .text:0000000000000220 .LVL41
     /tmp/ccZSb1dC.s:425    .text:0000000000000230 .LVL43
     /tmp/ccZSb1dC.s:393    .text:0000000000000208 .LBB25
     /tmp/ccZSb1dC.s:400    .text:000000000000020c .LBE25
     /tmp/ccZSb1dC.s:2665   .debug_loc:00000000000000f2 .LLST12
     /tmp/ccZSb1dC.s:435    .text:0000000000000240 .LVL44
     /tmp/ccZSb1dC.s:441    .text:000000000000024c .LVL45
     /tmp/ccZSb1dC.s:264    .text:0000000000000160 .LFB34
     /tmp/ccZSb1dC.s:351    .text:00000000000001d8 .LFE34
     /tmp/ccZSb1dC.s:2672   .debug_loc:0000000000000115 .LLST7
     /tmp/ccZSb1dC.s:304    .text:0000000000000198 .LBB21
     /tmp/ccZSb1dC.s:325    .text:00000000000001b4 .LBE21
     /tmp/ccZSb1dC.s:2719   .debug_loc:00000000000001c9 .LLST8
     /tmp/ccZSb1dC.s:312    .text:00000000000001a4 .LBB22
     /tmp/ccZSb1dC.s:320    .text:00000000000001ac .LBE22
     /tmp/ccZSb1dC.s:2726   .debug_loc:00000000000001ec .LLST9
     /tmp/ccZSb1dC.s:2734   .debug_loc:0000000000000210 .LLST10
     /tmp/ccZSb1dC.s:310    .text:00000000000001a4 .LVL30
     /tmp/ccZSb1dC.s:324    .text:00000000000001b4 .LVL32
     /tmp/ccZSb1dC.s:199    .text:000000000000010c .LFB33
     /tmp/ccZSb1dC.s:258    .text:0000000000000160 .LFE33
     /tmp/ccZSb1dC.s:2741   .debug_loc:0000000000000233 .LLST6
     /tmp/ccZSb1dC.s:85     .text:0000000000000070 .LFB32
     /tmp/ccZSb1dC.s:193    .text:000000000000010c .LFE32
     /tmp/ccZSb1dC.s:2788   .debug_loc:00000000000002e7 .LLST3
     /tmp/ccZSb1dC.s:148    .text:00000000000000d4 .LBB18
     /tmp/ccZSb1dC.s:157    .text:00000000000000dc .LBE18
     /tmp/ccZSb1dC.s:2825   .debug_loc:0000000000000382 .LLST4
     /tmp/ccZSb1dC.s:2833   .debug_loc:00000000000003a6 .LLST5
     /tmp/ccZSb1dC.s:162    .text:00000000000000e8 .LVL13
     /tmp/ccZSb1dC.s:166    .text:00000000000000f0 .LVL14
     /tmp/ccZSb1dC.s:10     .text:0000000000000000 .LFB31
     /tmp/ccZSb1dC.s:79     .text:0000000000000070 .LFE31
     /tmp/ccZSb1dC.s:3133   .debug_str:000000000000072b .LASF99
     /tmp/ccZSb1dC.s:2840   .debug_loc:00000000000003c9 .LLST0
     /tmp/ccZSb1dC.s:2854   .debug_loc:0000000000000402 .LLST1
     /tmp/ccZSb1dC.s:50     .text:0000000000000048 .LBB16
     /tmp/ccZSb1dC.s:58     .text:0000000000000050 .LBE16
     /tmp/ccZSb1dC.s:2865   .debug_loc:0000000000000438 .LLST2
     /tmp/ccZSb1dC.s:33     .text:0000000000000028 .LVL2
     /tmp/ccZSb1dC.s:49     .text:0000000000000048 .LVL4
     /tmp/ccZSb1dC.s:3123   .debug_str:0000000000000704 .LASF100
     /tmp/ccZSb1dC.s:3105   .debug_str:0000000000000669 .LASF124
     /tmp/ccZSb1dC.s:3135   .debug_str:0000000000000730 .LASF105
     /tmp/ccZSb1dC.s:2959   .debug_str:00000000000001d4 .LASF107
     /tmp/ccZSb1dC.s:3125   .debug_str:0000000000000709 .LASF101
     /tmp/ccZSb1dC.s:3069   .debug_str:00000000000004c1 .LASF103
     /tmp/ccZSb1dC.s:2937   .debug_str:000000000000014b .LASF102
     /tmp/ccZSb1dC.s:3111   .debug_str:00000000000006b1 .LASF104
     /tmp/ccZSb1dC.s:3003   .debug_str:00000000000002f5 .LASF106
     /tmp/ccZSb1dC.s:2923   .debug_str:00000000000000df .LASF108
     /tmp/ccZSb1dC.s:360    .text:00000000000001d8 .LVL37
     /tmp/ccZSb1dC.s:386    .text:0000000000000204 .LVL38
GAS LISTING /tmp/ccZSb1dC.s 			page 20


     /tmp/ccZSb1dC.s:454    .text:000000000000025c .LVL46
     /tmp/ccZSb1dC.s:458    .text:0000000000000264 .LVL47
     /tmp/ccZSb1dC.s:462    .text:0000000000000268 .LVL48
     /tmp/ccZSb1dC.s:465    .text:000000000000026c .LVL49
     /tmp/ccZSb1dC.s:419    .text:0000000000000228 .LVL42
     /tmp/ccZSb1dC.s:392    .text:0000000000000208 .LVL39
     /tmp/ccZSb1dC.s:398    .text:000000000000020c .LVL40
     /tmp/ccZSb1dC.s:267    .text:0000000000000160 .LVL26
     /tmp/ccZSb1dC.s:289    .text:0000000000000184 .LVL27
     /tmp/ccZSb1dC.s:292    .text:0000000000000188 .LVL28
     /tmp/ccZSb1dC.s:308    .text:000000000000019c .LVL29
     /tmp/ccZSb1dC.s:338    .text:00000000000001c8 .LVL33
     /tmp/ccZSb1dC.s:342    .text:00000000000001cc .LVL34
     /tmp/ccZSb1dC.s:344    .text:00000000000001d0 .LVL35
     /tmp/ccZSb1dC.s:348    .text:00000000000001d4 .LVL36
     /tmp/ccZSb1dC.s:318    .text:00000000000001ac .LVL31
     /tmp/ccZSb1dC.s:202    .text:000000000000010c .LVL18
     /tmp/ccZSb1dC.s:228    .text:000000000000013c .LVL19
     /tmp/ccZSb1dC.s:238    .text:0000000000000148 .LVL20
     /tmp/ccZSb1dC.s:243    .text:000000000000014c .LVL21
     /tmp/ccZSb1dC.s:245    .text:0000000000000150 .LVL22
     /tmp/ccZSb1dC.s:249    .text:0000000000000154 .LVL23
     /tmp/ccZSb1dC.s:251    .text:0000000000000158 .LVL24
     /tmp/ccZSb1dC.s:255    .text:000000000000015c .LVL25
     /tmp/ccZSb1dC.s:88     .text:0000000000000070 .LVL7
     /tmp/ccZSb1dC.s:118    .text:00000000000000a8 .LVL8
     /tmp/ccZSb1dC.s:136    .text:00000000000000c0 .LVL9
     /tmp/ccZSb1dC.s:140    .text:00000000000000c8 .LVL10
     /tmp/ccZSb1dC.s:168    .text:00000000000000f4 .LVL15
     /tmp/ccZSb1dC.s:176    .text:00000000000000f8 .LVL16
     /tmp/ccZSb1dC.s:179    .text:00000000000000fc .LVL17
     /tmp/ccZSb1dC.s:147    .text:00000000000000d4 .LVL11
     /tmp/ccZSb1dC.s:155    .text:00000000000000dc .LVL12
     /tmp/ccZSb1dC.s:14     .text:0000000000000000 .LVL0
     /tmp/ccZSb1dC.s:31     .text:0000000000000020 .LVL1
     /tmp/ccZSb1dC.s:35     .text:000000000000002c .LVL3
     /tmp/ccZSb1dC.s:72     .text:0000000000000064 .LVL6
     /tmp/ccZSb1dC.s:56     .text:0000000000000050 .LVL5
     /tmp/ccZSb1dC.s:483    .debug_info:0000000000000000 .Ldebug_info0

UNDEFINED SYMBOLS
_Z9mem_allocm
_Znwm
_ZN3PCB7runningE
_ZN11waitSemList3addEP3PCB
_ZN3PCB8dispatchEv
_ZN11waitSemList3getEv
_ZN9Scheduler3putEP3PCB
_ZdlPv
_Z8mem_freePv
