GAS LISTING /tmp/ccMOzPL0.s 			page 1


   1              		.file	"main.cpp"
   2              		.option pic
   3              		.option norelax
   4              		.text
   5              	.Ltext0:
   6              		.align	2
   7              		.globl	_Z7wrapperPv
   9              	_Z7wrapperPv:
  10              	.LFB70:
  11              		.file 1 "src/main.cpp"
   1:src/main.cpp  **** //
   2:src/main.cpp  **** // Created by marko on 20.4.22..
   3:src/main.cpp  **** //
   4:src/main.cpp  **** 
   5:src/main.cpp  **** #include "../h/PCB.hpp"
   6:src/main.cpp  **** #include "../h/MemoryAllocator.hpp"
   7:src/main.cpp  **** #include "../h/riscv.hpp"
   8:src/main.cpp  **** #include "../h/syscall_cpp.hpp"
   9:src/main.cpp  **** #include "../test/printing.hpp"
  10:src/main.cpp  **** 
  11:src/main.cpp  **** // extern "C" void interrupt();
  12:src/main.cpp  **** 
  13:src/main.cpp  **** void test_basic_allocation_and_free() {
  14:src/main.cpp  ****     MemoryAllocator::mem_init();
  15:src/main.cpp  ****     void *ptr = mem_alloc(128);
  16:src/main.cpp  ****     if (ptr == nullptr) printInt(91);
  17:src/main.cpp  **** 
  18:src/main.cpp  ****     int free_result = mem_free(ptr);
  19:src/main.cpp  ****     if (free_result != 0) printInt(92); // Proverava da li je memorija uspešno oslobođena
  20:src/main.cpp  ****     printInt(1);
  21:src/main.cpp  **** }
  22:src/main.cpp  **** 
  23:src/main.cpp  **** void test_multiple_allocations() {
  24:src/main.cpp  ****     MemoryAllocator::mem_init();
  25:src/main.cpp  ****     void *pointers[10]; // Array to store pointers
  26:src/main.cpp  **** 
  27:src/main.cpp  ****     for (int i = 0; i < 10; i++) {
  28:src/main.cpp  ****         pointers[i] = mem_alloc(64);
  29:src/main.cpp  ****         if (pointers[i] == nullptr) printInt(93); // Checks if each block was successfully allocate
  30:src/main.cpp  ****     }
  31:src/main.cpp  **** 
  32:src/main.cpp  ****     for (int i = 0; i < 10; i++) {
  33:src/main.cpp  ****         mem_free(pointers[i]);
  34:src/main.cpp  ****     }
  35:src/main.cpp  **** 
  36:src/main.cpp  ****     printInt(2);
  37:src/main.cpp  **** }
  38:src/main.cpp  **** 
  39:src/main.cpp  **** void test_free_and_coalesce() {
  40:src/main.cpp  ****     MemoryAllocator::mem_init();
  41:src/main.cpp  ****     void *ptr1 = mem_alloc(64);
  42:src/main.cpp  ****     void *ptr2 = mem_alloc(64);
  43:src/main.cpp  **** 
  44:src/main.cpp  ****     mem_free(ptr1);
  45:src/main.cpp  ****     mem_free(ptr2);
  46:src/main.cpp  **** 
  47:src/main.cpp  ****     void *ptr3 = mem_alloc(128);
GAS LISTING /tmp/ccMOzPL0.s 			page 2


  48:src/main.cpp  ****     if (ptr3 == nullptr) printInt(94); // Proverava da li je spajanje uspelo
  49:src/main.cpp  **** 
  50:src/main.cpp  ****     printInt(3);
  51:src/main.cpp  **** }
  52:src/main.cpp  **** 
  53:src/main.cpp  **** void test_edge_cases() {
  54:src/main.cpp  ****     MemoryAllocator::mem_init();
  55:src/main.cpp  ****     void *ptr = mem_alloc(0);
  56:src/main.cpp  ****     if (ptr == nullptr) printInt(95); // Provera alokacije nulte veličine
  57:src/main.cpp  **** 
  58:src/main.cpp  ****     ptr = mem_alloc(91);
  59:src/main.cpp  ****     if (ptr == nullptr) printInt(96); // Provera alokacije sa negativnom veličinom
  60:src/main.cpp  **** 
  61:src/main.cpp  ****     printInt(4);
  62:src/main.cpp  **** }
  63:src/main.cpp  **** 
  64:src/main.cpp  **** 
  65:src/main.cpp  **** extern void userMain();
  66:src/main.cpp  **** 
  67:src/main.cpp  **** int finished = 0;
  68:src/main.cpp  **** 
  69:src/main.cpp  **** void wrapper(void *arg) {
  12              		.loc 1 69 25
  13              		.cfi_startproc
  14              	.LVL0:
  15 0000 130101FF 		addi	sp,sp,-16
  16              		.cfi_def_cfa_offset 16
  17 0004 23341100 		sd	ra,8(sp)
  18 0008 23308100 		sd	s0,0(sp)
  19              		.cfi_offset 1, -8
  20              		.cfi_offset 8, -16
  21 000c 13040101 		addi	s0,sp,16
  22              		.cfi_def_cfa 8, 0
  70:src/main.cpp  ****     userMain();
  23              		.loc 1 70 5
  24              		.loc 1 70 13 is_stmt 0
  25 0010 97000000 		call	_Z8userMainv@plt
  25      E7800000 
  26              	.LVL1:
  71:src/main.cpp  ****     finished = 1;
  27              		.loc 1 71 5 is_stmt 1
  28              		.loc 1 71 14 is_stmt 0
  29 0018 93071000 		li	a5,1
  30 001c 17070000 		sw	a5,.LANCHOR0,a4
  30      2320F700 
  72:src/main.cpp  **** }
  31              		.loc 1 72 1
  32 0024 83308100 		ld	ra,8(sp)
  33              		.cfi_restore 1
  34 0028 03340100 		ld	s0,0(sp)
  35              		.cfi_restore 8
  36              		.cfi_def_cfa 2, 16
  37 002c 13010101 		addi	sp,sp,16
  38              		.cfi_def_cfa_offset 0
  39 0030 67800000 		jr	ra
  40              		.cfi_endproc
  41              	.LFE70:
GAS LISTING /tmp/ccMOzPL0.s 			page 3


  43              		.align	2
  44              		.globl	_Z30test_basic_allocation_and_freev
  46              	_Z30test_basic_allocation_and_freev:
  47              	.LFB66:
  13:src/main.cpp  ****     MemoryAllocator::mem_init();
  48              		.loc 1 13 39 is_stmt 1
  49              		.cfi_startproc
  50 0034 130101FE 		addi	sp,sp,-32
  51              		.cfi_def_cfa_offset 32
  52 0038 233C1100 		sd	ra,24(sp)
  53 003c 23388100 		sd	s0,16(sp)
  54 0040 23349100 		sd	s1,8(sp)
  55              		.cfi_offset 1, -8
  56              		.cfi_offset 8, -16
  57              		.cfi_offset 9, -24
  58 0044 13040102 		addi	s0,sp,32
  59              		.cfi_def_cfa 8, 0
  14:src/main.cpp  ****     void *ptr = mem_alloc(128);
  60              		.loc 1 14 5
  14:src/main.cpp  ****     void *ptr = mem_alloc(128);
  61              		.loc 1 14 30 is_stmt 0
  62 0048 97000000 		call	_ZN15MemoryAllocator8mem_initEv@plt
  62      E7800000 
  63              	.LVL2:
  15:src/main.cpp  ****     if (ptr == nullptr) printInt(91);
  64              		.loc 1 15 5 is_stmt 1
  15:src/main.cpp  ****     if (ptr == nullptr) printInt(91);
  65              		.loc 1 15 26 is_stmt 0
  66 0050 13050008 		li	a0,128
  67 0054 97000000 		call	_Z9mem_allocm@plt
  67      E7800000 
  68              	.LVL3:
  69 005c 93040500 		mv	s1,a0
  70              	.LVL4:
  16:src/main.cpp  **** 
  71              		.loc 1 16 5 is_stmt 1
  72 0060 630E0502 		beqz	a0,.L7
  73              	.L4:
  18:src/main.cpp  ****     if (free_result != 0) printInt(92); // Proverava da li je memorija uspešno oslobođena
  74              		.loc 1 18 5
  18:src/main.cpp  ****     if (free_result != 0) printInt(92); // Proverava da li je memorija uspešno oslobođena
  75              		.loc 1 18 31 is_stmt 0
  76 0064 13850400 		mv	a0,s1
  77 0068 97000000 		call	_Z8mem_freePv@plt
  77      E7800000 
  78              	.LVL5:
  19:src/main.cpp  ****     printInt(1);
  79              		.loc 1 19 5 is_stmt 1
  80 0070 63120504 		bnez	a0,.L8
  81              	.LVL6:
  82              	.L5:
  20:src/main.cpp  **** }
  83              		.loc 1 20 5
  20:src/main.cpp  **** }
  84              		.loc 1 20 13 is_stmt 0
  85 0074 13060000 		li	a2,0
  86 0078 9305A000 		li	a1,10
GAS LISTING /tmp/ccMOzPL0.s 			page 4


  87 007c 13051000 		li	a0,1
  88 0080 97000000 		call	_Z8printIntiii@plt
  88      E7800000 
  89              	.LVL7:
  21:src/main.cpp  **** 
  90              		.loc 1 21 1
  91 0088 83308101 		ld	ra,24(sp)
  92              		.cfi_remember_state
  93              		.cfi_restore 1
  94 008c 03340101 		ld	s0,16(sp)
  95              		.cfi_restore 8
  96              		.cfi_def_cfa 2, 32
  97 0090 83348100 		ld	s1,8(sp)
  98              		.cfi_restore 9
  99              	.LVL8:
 100 0094 13010102 		addi	sp,sp,32
 101              		.cfi_def_cfa_offset 0
 102 0098 67800000 		jr	ra
 103              	.LVL9:
 104              	.L7:
 105              		.cfi_restore_state
  16:src/main.cpp  **** 
 106              		.loc 1 16 25 is_stmt 1 discriminator 1
  16:src/main.cpp  **** 
 107              		.loc 1 16 33 is_stmt 0 discriminator 1
 108 009c 13060000 		li	a2,0
 109 00a0 9305A000 		li	a1,10
 110 00a4 1305B005 		li	a0,91
 111 00a8 97000000 		call	_Z8printIntiii@plt
 111      E7800000 
 112              	.LVL10:
 113 00b0 6FF05FFB 		j	.L4
 114              	.LVL11:
 115              	.L8:
  19:src/main.cpp  ****     printInt(1);
 116              		.loc 1 19 27 is_stmt 1 discriminator 1
  19:src/main.cpp  ****     printInt(1);
 117              		.loc 1 19 35 is_stmt 0 discriminator 1
 118 00b4 13060000 		li	a2,0
 119 00b8 9305A000 		li	a1,10
 120 00bc 1305C005 		li	a0,92
 121              	.LVL12:
 122 00c0 97000000 		call	_Z8printIntiii@plt
 122      E7800000 
 123              	.LVL13:
 124 00c8 6FF0DFFA 		j	.L5
 125              		.cfi_endproc
 126              	.LFE66:
 128              		.align	2
 129              		.globl	_Z25test_multiple_allocationsv
 131              	_Z25test_multiple_allocationsv:
 132              	.LFB67:
  23:src/main.cpp  ****     MemoryAllocator::mem_init();
 133              		.loc 1 23 34 is_stmt 1
 134              		.cfi_startproc
 135 00cc 130101F9 		addi	sp,sp,-112
 136              		.cfi_def_cfa_offset 112
GAS LISTING /tmp/ccMOzPL0.s 			page 5


 137 00d0 23341106 		sd	ra,104(sp)
 138 00d4 23308106 		sd	s0,96(sp)
 139 00d8 233C9104 		sd	s1,88(sp)
 140              		.cfi_offset 1, -8
 141              		.cfi_offset 8, -16
 142              		.cfi_offset 9, -24
 143 00dc 13040107 		addi	s0,sp,112
 144              		.cfi_def_cfa 8, 0
  24:src/main.cpp  ****     void *pointers[10]; // Array to store pointers
 145              		.loc 1 24 5
  24:src/main.cpp  ****     void *pointers[10]; // Array to store pointers
 146              		.loc 1 24 30 is_stmt 0
 147 00e0 97000000 		call	_ZN15MemoryAllocator8mem_initEv@plt
 147      E7800000 
 148              	.LVL14:
 149              	.LBB10:
  27:src/main.cpp  ****         pointers[i] = mem_alloc(64);
 150              		.loc 1 27 14
 151 00e8 93040000 		li	s1,0
 152 00ec 6F008000 		j	.L12
 153              	.LVL15:
 154              	.L11:
  27:src/main.cpp  ****         pointers[i] = mem_alloc(64);
 155              		.loc 1 27 5 is_stmt 1 discriminator 2
 156 00f0 9B841400 		addiw	s1,s1,1
 157              	.LVL16:
 158              	.L12:
  27:src/main.cpp  ****         pointers[i] = mem_alloc(64);
 159              		.loc 1 27 23 discriminator 1
 160 00f4 93079000 		li	a5,9
 161 00f8 63CE9702 		bgt	s1,a5,.L14
  28:src/main.cpp  ****         if (pointers[i] == nullptr) printInt(93); // Checks if each block was successfully allocate
 162              		.loc 1 28 9
  28:src/main.cpp  ****         if (pointers[i] == nullptr) printInt(93); // Checks if each block was successfully allocate
 163              		.loc 1 28 32 is_stmt 0
 164 00fc 13050004 		li	a0,64
 165 0100 97000000 		call	_Z9mem_allocm@plt
 165      E7800000 
 166              	.LVL17:
  28:src/main.cpp  ****         if (pointers[i] == nullptr) printInt(93); // Checks if each block was successfully allocate
 167              		.loc 1 28 21
 168 0108 93973400 		slli	a5,s1,3
 169 010c 130704FE 		addi	a4,s0,-32
 170 0110 B307F700 		add	a5,a4,a5
 171 0114 23B8A7FA 		sd	a0,-80(a5)
  29:src/main.cpp  ****     }
 172              		.loc 1 29 9 is_stmt 1
 173 0118 E31C05FC 		bnez	a0,.L11
  29:src/main.cpp  ****     }
 174              		.loc 1 29 37 discriminator 1
  29:src/main.cpp  ****     }
 175              		.loc 1 29 45 is_stmt 0 discriminator 1
 176 011c 13060000 		li	a2,0
 177 0120 9305A000 		li	a1,10
 178 0124 1305D005 		li	a0,93
 179 0128 97000000 		call	_Z8printIntiii@plt
 179      E7800000 
GAS LISTING /tmp/ccMOzPL0.s 			page 6


 180              	.LVL18:
 181 0130 6FF01FFC 		j	.L11
 182              	.L14:
 183              	.LBE10:
 184              	.LBB11:
  32:src/main.cpp  ****         mem_free(pointers[i]);
 185              		.loc 1 32 14
 186 0134 93040000 		li	s1,0
 187              	.LVL19:
 188              	.L10:
  32:src/main.cpp  ****         mem_free(pointers[i]);
 189              		.loc 1 32 23 is_stmt 1 discriminator 1
 190 0138 93079000 		li	a5,9
 191 013c 63C29702 		bgt	s1,a5,.L13
  33:src/main.cpp  ****     }
 192              		.loc 1 33 9
  33:src/main.cpp  ****     }
 193              		.loc 1 33 17 is_stmt 0
 194 0140 93973400 		slli	a5,s1,3
 195 0144 130704FE 		addi	a4,s0,-32
 196 0148 B307F700 		add	a5,a4,a5
 197 014c 03B507FB 		ld	a0,-80(a5)
 198 0150 97000000 		call	_Z8mem_freePv@plt
 198      E7800000 
 199              	.LVL20:
  32:src/main.cpp  ****         mem_free(pointers[i]);
 200              		.loc 1 32 5 is_stmt 1
 201 0158 9B841400 		addiw	s1,s1,1
 202              	.LVL21:
 203 015c 6FF0DFFD 		j	.L10
 204              	.LVL22:
 205              	.L13:
 206              	.LBE11:
  36:src/main.cpp  **** }
 207              		.loc 1 36 5
  36:src/main.cpp  **** }
 208              		.loc 1 36 13 is_stmt 0
 209 0160 13060000 		li	a2,0
 210 0164 9305A000 		li	a1,10
 211 0168 13052000 		li	a0,2
 212 016c 97000000 		call	_Z8printIntiii@plt
 212      E7800000 
 213              	.LVL23:
  37:src/main.cpp  **** 
 214              		.loc 1 37 1
 215 0174 83308106 		ld	ra,104(sp)
 216              		.cfi_restore 1
 217 0178 03340106 		ld	s0,96(sp)
 218              		.cfi_restore 8
 219              		.cfi_def_cfa 2, 112
 220 017c 83348105 		ld	s1,88(sp)
 221              		.cfi_restore 9
 222              	.LVL24:
 223 0180 13010107 		addi	sp,sp,112
 224              		.cfi_def_cfa_offset 0
 225 0184 67800000 		jr	ra
 226              		.cfi_endproc
GAS LISTING /tmp/ccMOzPL0.s 			page 7


 227              	.LFE67:
 229              		.align	2
 230              		.globl	_Z22test_free_and_coalescev
 232              	_Z22test_free_and_coalescev:
 233              	.LFB68:
  39:src/main.cpp  ****     MemoryAllocator::mem_init();
 234              		.loc 1 39 31 is_stmt 1
 235              		.cfi_startproc
 236 0188 130101FE 		addi	sp,sp,-32
 237              		.cfi_def_cfa_offset 32
 238 018c 233C1100 		sd	ra,24(sp)
 239 0190 23388100 		sd	s0,16(sp)
 240 0194 23349100 		sd	s1,8(sp)
 241 0198 23302101 		sd	s2,0(sp)
 242              		.cfi_offset 1, -8
 243              		.cfi_offset 8, -16
 244              		.cfi_offset 9, -24
 245              		.cfi_offset 18, -32
 246 019c 13040102 		addi	s0,sp,32
 247              		.cfi_def_cfa 8, 0
  40:src/main.cpp  ****     void *ptr1 = mem_alloc(64);
 248              		.loc 1 40 5
  40:src/main.cpp  ****     void *ptr1 = mem_alloc(64);
 249              		.loc 1 40 30 is_stmt 0
 250 01a0 97000000 		call	_ZN15MemoryAllocator8mem_initEv@plt
 250      E7800000 
 251              	.LVL25:
  41:src/main.cpp  ****     void *ptr2 = mem_alloc(64);
 252              		.loc 1 41 5 is_stmt 1
  41:src/main.cpp  ****     void *ptr2 = mem_alloc(64);
 253              		.loc 1 41 27 is_stmt 0
 254 01a8 13050004 		li	a0,64
 255 01ac 97000000 		call	_Z9mem_allocm@plt
 255      E7800000 
 256              	.LVL26:
 257 01b4 13090500 		mv	s2,a0
 258              	.LVL27:
  42:src/main.cpp  **** 
 259              		.loc 1 42 5 is_stmt 1
  42:src/main.cpp  **** 
 260              		.loc 1 42 27 is_stmt 0
 261 01b8 13050004 		li	a0,64
 262              	.LVL28:
 263 01bc 97000000 		call	_Z9mem_allocm@plt
 263      E7800000 
 264              	.LVL29:
 265 01c4 93040500 		mv	s1,a0
 266              	.LVL30:
  44:src/main.cpp  ****     mem_free(ptr2);
 267              		.loc 1 44 5 is_stmt 1
  44:src/main.cpp  ****     mem_free(ptr2);
 268              		.loc 1 44 13 is_stmt 0
 269 01c8 13050900 		mv	a0,s2
 270 01cc 97000000 		call	_Z8mem_freePv@plt
 270      E7800000 
 271              	.LVL31:
  45:src/main.cpp  **** 
GAS LISTING /tmp/ccMOzPL0.s 			page 8


 272              		.loc 1 45 5 is_stmt 1
  45:src/main.cpp  **** 
 273              		.loc 1 45 13 is_stmt 0
 274 01d4 13850400 		mv	a0,s1
 275 01d8 97000000 		call	_Z8mem_freePv@plt
 275      E7800000 
 276              	.LVL32:
  47:src/main.cpp  ****     if (ptr3 == nullptr) printInt(94); // Proverava da li je spajanje uspelo
 277              		.loc 1 47 5 is_stmt 1
  47:src/main.cpp  ****     if (ptr3 == nullptr) printInt(94); // Proverava da li je spajanje uspelo
 278              		.loc 1 47 27 is_stmt 0
 279 01e0 13050008 		li	a0,128
 280 01e4 97000000 		call	_Z9mem_allocm@plt
 280      E7800000 
 281              	.LVL33:
  48:src/main.cpp  **** 
 282              		.loc 1 48 5 is_stmt 1
 283 01ec 63080502 		beqz	a0,.L19
 284              	.LVL34:
 285              	.L17:
  50:src/main.cpp  **** }
 286              		.loc 1 50 5
  50:src/main.cpp  **** }
 287              		.loc 1 50 13 is_stmt 0
 288 01f0 13060000 		li	a2,0
 289 01f4 9305A000 		li	a1,10
 290 01f8 13053000 		li	a0,3
 291 01fc 97000000 		call	_Z8printIntiii@plt
 291      E7800000 
 292              	.LVL35:
  51:src/main.cpp  **** 
 293              		.loc 1 51 1
 294 0204 83308101 		ld	ra,24(sp)
 295              		.cfi_remember_state
 296              		.cfi_restore 1
 297 0208 03340101 		ld	s0,16(sp)
 298              		.cfi_restore 8
 299              		.cfi_def_cfa 2, 32
 300 020c 83348100 		ld	s1,8(sp)
 301              		.cfi_restore 9
 302              	.LVL36:
 303 0210 03390100 		ld	s2,0(sp)
 304              		.cfi_restore 18
 305              	.LVL37:
 306 0214 13010102 		addi	sp,sp,32
 307              		.cfi_def_cfa_offset 0
 308 0218 67800000 		jr	ra
 309              	.LVL38:
 310              	.L19:
 311              		.cfi_restore_state
  48:src/main.cpp  **** 
 312              		.loc 1 48 26 is_stmt 1 discriminator 1
  48:src/main.cpp  **** 
 313              		.loc 1 48 34 is_stmt 0 discriminator 1
 314 021c 13060000 		li	a2,0
 315 0220 9305A000 		li	a1,10
 316 0224 1305E005 		li	a0,94
GAS LISTING /tmp/ccMOzPL0.s 			page 9


 317              	.LVL39:
 318 0228 97000000 		call	_Z8printIntiii@plt
 318      E7800000 
 319              	.LVL40:
 320 0230 6FF01FFC 		j	.L17
 321              		.cfi_endproc
 322              	.LFE68:
 324              		.align	2
 325              		.globl	_Z15test_edge_casesv
 327              	_Z15test_edge_casesv:
 328              	.LFB69:
  53:src/main.cpp  ****     MemoryAllocator::mem_init();
 329              		.loc 1 53 24 is_stmt 1
 330              		.cfi_startproc
 331 0234 130101FF 		addi	sp,sp,-16
 332              		.cfi_def_cfa_offset 16
 333 0238 23341100 		sd	ra,8(sp)
 334 023c 23308100 		sd	s0,0(sp)
 335              		.cfi_offset 1, -8
 336              		.cfi_offset 8, -16
 337 0240 13040101 		addi	s0,sp,16
 338              		.cfi_def_cfa 8, 0
  54:src/main.cpp  ****     void *ptr = mem_alloc(0);
 339              		.loc 1 54 5
  54:src/main.cpp  ****     void *ptr = mem_alloc(0);
 340              		.loc 1 54 30 is_stmt 0
 341 0244 97000000 		call	_ZN15MemoryAllocator8mem_initEv@plt
 341      E7800000 
 342              	.LVL41:
  55:src/main.cpp  ****     if (ptr == nullptr) printInt(95); // Provera alokacije nulte veličine
 343              		.loc 1 55 5 is_stmt 1
  55:src/main.cpp  ****     if (ptr == nullptr) printInt(95); // Provera alokacije nulte veličine
 344              		.loc 1 55 26 is_stmt 0
 345 024c 13050000 		li	a0,0
 346 0250 97000000 		call	_Z9mem_allocm@plt
 346      E7800000 
 347              	.LVL42:
  56:src/main.cpp  **** 
 348              		.loc 1 56 5 is_stmt 1
 349 0258 630C0502 		beqz	a0,.L24
 350              	.LVL43:
 351              	.L21:
  58:src/main.cpp  ****     if (ptr == nullptr) printInt(96); // Provera alokacije sa negativnom veličinom
 352              		.loc 1 58 5
  58:src/main.cpp  ****     if (ptr == nullptr) printInt(96); // Provera alokacije sa negativnom veličinom
 353              		.loc 1 58 20 is_stmt 0
 354 025c 1305B005 		li	a0,91
 355 0260 97000000 		call	_Z9mem_allocm@plt
 355      E7800000 
 356              	.LVL44:
  59:src/main.cpp  **** 
 357              		.loc 1 59 5 is_stmt 1
 358 0268 63000504 		beqz	a0,.L25
 359              	.LVL45:
 360              	.L22:
  61:src/main.cpp  **** }
 361              		.loc 1 61 5
GAS LISTING /tmp/ccMOzPL0.s 			page 10


  61:src/main.cpp  **** }
 362              		.loc 1 61 13 is_stmt 0
 363 026c 13060000 		li	a2,0
 364 0270 9305A000 		li	a1,10
 365 0274 13054000 		li	a0,4
 366 0278 97000000 		call	_Z8printIntiii@plt
 366      E7800000 
 367              	.LVL46:
  62:src/main.cpp  **** 
 368              		.loc 1 62 1
 369 0280 83308100 		ld	ra,8(sp)
 370              		.cfi_remember_state
 371              		.cfi_restore 1
 372 0284 03340100 		ld	s0,0(sp)
 373              		.cfi_restore 8
 374              		.cfi_def_cfa 2, 16
 375 0288 13010101 		addi	sp,sp,16
 376              		.cfi_def_cfa_offset 0
 377 028c 67800000 		jr	ra
 378              	.LVL47:
 379              	.L24:
 380              		.cfi_restore_state
  56:src/main.cpp  **** 
 381              		.loc 1 56 25 is_stmt 1 discriminator 1
  56:src/main.cpp  **** 
 382              		.loc 1 56 33 is_stmt 0 discriminator 1
 383 0290 13060000 		li	a2,0
 384 0294 9305A000 		li	a1,10
 385 0298 1305F005 		li	a0,95
 386              	.LVL48:
 387 029c 97000000 		call	_Z8printIntiii@plt
 387      E7800000 
 388              	.LVL49:
 389 02a4 6FF09FFB 		j	.L21
 390              	.LVL50:
 391              	.L25:
  59:src/main.cpp  **** 
 392              		.loc 1 59 25 is_stmt 1 discriminator 1
  59:src/main.cpp  **** 
 393              		.loc 1 59 33 is_stmt 0 discriminator 1
 394 02a8 13060000 		li	a2,0
 395 02ac 9305A000 		li	a1,10
 396 02b0 13050006 		li	a0,96
 397              	.LVL51:
 398 02b4 97000000 		call	_Z8printIntiii@plt
 398      E7800000 
 399              	.LVL52:
 400 02bc 6FF01FFB 		j	.L22
 401              		.cfi_endproc
 402              	.LFE69:
 404              		.section	.rodata.str1.8,"aMS",@progbits,1
 405              		.align	3
 406              	.LC0:
 407 0000 56726163 		.string	"Vracen iz thread_dispatch\n"
 407      656E2069 
 407      7A207468 
 407      72656164 
GAS LISTING /tmp/ccMOzPL0.s 			page 11


 407      5F646973 
 408 001b 00000000 		.align	3
 408      00
 409              	.LC1:
 410 0020 4D41494E 		.string	"MAIN FINISHED\n"
 410      2046494E 
 410      49534845 
 410      440A00
 411              		.text
 412              		.align	2
 413              		.globl	main
 415              	main:
 416              	.LFB71:
  73:src/main.cpp  **** 
  74:src/main.cpp  **** 
  75:src/main.cpp  **** int main() {
 417              		.loc 1 75 12 is_stmt 1
 418              		.cfi_startproc
 419 02c0 130101FD 		addi	sp,sp,-48
 420              		.cfi_def_cfa_offset 48
 421 02c4 23341102 		sd	ra,40(sp)
 422 02c8 23308102 		sd	s0,32(sp)
 423 02cc 233C9100 		sd	s1,24(sp)
 424              		.cfi_offset 1, -8
 425              		.cfi_offset 8, -16
 426              		.cfi_offset 9, -24
 427 02d0 13040103 		addi	s0,sp,48
 428              		.cfi_def_cfa 8, 0
  76:src/main.cpp  ****     MemoryAllocator::mem_init();
 429              		.loc 1 76 5
 430              		.loc 1 76 30 is_stmt 0
 431 02d4 97000000 		call	_ZN15MemoryAllocator8mem_initEv@plt
 431      E7800000 
 432              	.LVL53:
  77:src/main.cpp  ****     Riscv::w_stvec((uint64) &Riscv::supervisorTrap | 1);
 433              		.loc 1 77 5 is_stmt 1
 434              		.loc 1 77 19 is_stmt 0
 435 02dc 97070000 		la	a5,_ZN5Riscv14supervisorTrapEv
 435      83B70700 
 436 02e4 93E71700 		ori	a5,a5,1
 437              	.LVL54:
 438              	.LBB12:
 439              	.LBB13:
 440              		.file 2 "src/../h/riscv.hpp"
   1:src/../h/riscv.hpp **** //
   2:src/../h/riscv.hpp **** // Created by marko on 20.4.22..
   3:src/../h/riscv.hpp **** //
   4:src/../h/riscv.hpp **** 
   5:src/../h/riscv.hpp **** #ifndef OS1_VEZBE07_RISCV_CONTEXT_SWITCH_1_SYNCHRONOUS_RISCV_HPP
   6:src/../h/riscv.hpp **** #define OS1_VEZBE07_RISCV_CONTEXT_SWITCH_1_SYNCHRONOUS_RISCV_HPP
   7:src/../h/riscv.hpp **** 
   8:src/../h/riscv.hpp **** #include "../lib/hw.h"
   9:src/../h/riscv.hpp **** #include "../lib/console.h"
  10:src/../h/riscv.hpp **** #include "MemoryAllocator.hpp"
  11:src/../h/riscv.hpp **** #include "../test/printing.hpp"
  12:src/../h/riscv.hpp **** 
  13:src/../h/riscv.hpp **** class Riscv {
GAS LISTING /tmp/ccMOzPL0.s 			page 12


  14:src/../h/riscv.hpp **** public:
  15:src/../h/riscv.hpp ****     // pop sstatus.spp and sstatus.spie bits (has to be a non inline function) inline ne menja ra!!
  16:src/../h/riscv.hpp ****     static void popSppSpie();
  17:src/../h/riscv.hpp **** 
  18:src/../h/riscv.hpp ****     // push x3..x31 registers onto stack
  19:src/../h/riscv.hpp ****     static void pushRegisters();
  20:src/../h/riscv.hpp **** 
  21:src/../h/riscv.hpp ****     // pop x3..x31 registers onto stack
  22:src/../h/riscv.hpp ****     static void popRegisters();
  23:src/../h/riscv.hpp **** 
  24:src/../h/riscv.hpp ****     // read register scause
  25:src/../h/riscv.hpp ****     static uint64 r_scause();
  26:src/../h/riscv.hpp **** 
  27:src/../h/riscv.hpp ****     // write register scause
  28:src/../h/riscv.hpp ****     static void w_scause(uint64 scause);
  29:src/../h/riscv.hpp **** 
  30:src/../h/riscv.hpp ****     // read register sepc
  31:src/../h/riscv.hpp ****     static uint64 r_sepc();
  32:src/../h/riscv.hpp **** 
  33:src/../h/riscv.hpp ****     // write register sepc
  34:src/../h/riscv.hpp ****     static void w_sepc(uint64 sepc);
  35:src/../h/riscv.hpp **** 
  36:src/../h/riscv.hpp ****     // read register stvec
  37:src/../h/riscv.hpp ****     static uint64 r_stvec();
  38:src/../h/riscv.hpp **** 
  39:src/../h/riscv.hpp ****     // write register stvec
  40:src/../h/riscv.hpp ****     static void w_stvec(uint64 stvec);
  41:src/../h/riscv.hpp **** 
  42:src/../h/riscv.hpp ****     static const uint64 get_sepc();
  43:src/../h/riscv.hpp **** 
  44:src/../h/riscv.hpp ****     static void set_sepc(uint64 status);
  45:src/../h/riscv.hpp **** 
  46:src/../h/riscv.hpp ****     // read register stval
  47:src/../h/riscv.hpp ****     static uint64 r_stval();
  48:src/../h/riscv.hpp **** 
  49:src/../h/riscv.hpp ****     // write register stval
  50:src/../h/riscv.hpp ****     static void w_stval(uint64 stval);
  51:src/../h/riscv.hpp **** 
  52:src/../h/riscv.hpp ****     enum BitMaskSip {
  53:src/../h/riscv.hpp ****         SIP_SSIE = (1 << 1),
  54:src/../h/riscv.hpp ****         SIP_STIE = (1 << 5),
  55:src/../h/riscv.hpp ****         SIP_SEIE = (1 << 9),
  56:src/../h/riscv.hpp ****     };
  57:src/../h/riscv.hpp **** 
  58:src/../h/riscv.hpp ****     // mask set register sip
  59:src/../h/riscv.hpp ****     static void ms_sip(uint64 mask);
  60:src/../h/riscv.hpp **** 
  61:src/../h/riscv.hpp ****     // mask clear register sip
  62:src/../h/riscv.hpp ****     static void mc_sip(uint64 mask);
  63:src/../h/riscv.hpp **** 
  64:src/../h/riscv.hpp ****     // read register sip
  65:src/../h/riscv.hpp ****     static uint64 r_sip();
  66:src/../h/riscv.hpp **** 
  67:src/../h/riscv.hpp ****     // write register sip
  68:src/../h/riscv.hpp ****     static void w_sip(uint64 sip);
  69:src/../h/riscv.hpp **** 
  70:src/../h/riscv.hpp ****     enum BitMaskSstatus {
GAS LISTING /tmp/ccMOzPL0.s 			page 13


  71:src/../h/riscv.hpp ****         SSTATUS_SIE = (1 << 1),
  72:src/../h/riscv.hpp ****         SSTATUS_SPIE = (1 << 5),
  73:src/../h/riscv.hpp ****         SSTATUS_SPP = (1 << 8),
  74:src/../h/riscv.hpp ****     };
  75:src/../h/riscv.hpp **** 
  76:src/../h/riscv.hpp ****     // mask set register sstatus
  77:src/../h/riscv.hpp ****     static void ms_sstatus(uint64 mask);
  78:src/../h/riscv.hpp **** 
  79:src/../h/riscv.hpp ****     // mask clear register sstatus
  80:src/../h/riscv.hpp ****     static void mc_sstatus(uint64 mask);
  81:src/../h/riscv.hpp **** 
  82:src/../h/riscv.hpp ****     // read register sstatus
  83:src/../h/riscv.hpp ****     static uint64 r_sstatus();
  84:src/../h/riscv.hpp **** 
  85:src/../h/riscv.hpp ****     // write register sstatus
  86:src/../h/riscv.hpp ****     static void w_sstatus(uint64 sstatus);
  87:src/../h/riscv.hpp **** 
  88:src/../h/riscv.hpp ****     //supervisor trap
  89:src/../h/riscv.hpp ****     static void supervisorTrap();
  90:src/../h/riscv.hpp **** 
  91:src/../h/riscv.hpp **** private:
  92:src/../h/riscv.hpp ****     //rukovaoci prekidima
  93:src/../h/riscv.hpp ****     static void supervisorTrapHandler();
  94:src/../h/riscv.hpp **** 
  95:src/../h/riscv.hpp ****     void handleSupervisorTrapConsole();
  96:src/../h/riscv.hpp **** 
  97:src/../h/riscv.hpp ****     void handleSupervisorTimerHandler();
  98:src/../h/riscv.hpp **** };
  99:src/../h/riscv.hpp **** 
 100:src/../h/riscv.hpp **** inline uint64 Riscv::r_scause() {
 101:src/../h/riscv.hpp ****     uint64 volatile scause;
 102:src/../h/riscv.hpp ****     __asm__ volatile ("csrr %[scause], scause" : [scause] "=r"(scause));
 103:src/../h/riscv.hpp ****     return scause;
 104:src/../h/riscv.hpp **** }
 105:src/../h/riscv.hpp **** 
 106:src/../h/riscv.hpp **** inline const uint64 Riscv::get_sepc() {
 107:src/../h/riscv.hpp ****     uint64 volatile iret;
 108:src/../h/riscv.hpp ****     __asm__ volatile ("csrr %0, sepc":"=r"(iret));
 109:src/../h/riscv.hpp ****     return iret;
 110:src/../h/riscv.hpp **** }
 111:src/../h/riscv.hpp **** 
 112:src/../h/riscv.hpp **** inline void Riscv::set_sepc(uint64 status) {
 113:src/../h/riscv.hpp ****     __asm__ volatile("csrw sepc, %0" : :"r"(status));
 114:src/../h/riscv.hpp **** }
 115:src/../h/riscv.hpp **** 
 116:src/../h/riscv.hpp **** inline void Riscv::w_scause(uint64 scause) {
 117:src/../h/riscv.hpp ****     __asm__ volatile ("csrw scause, %[scause]" : : [scause] "r"(scause));
 118:src/../h/riscv.hpp **** }
 119:src/../h/riscv.hpp **** 
 120:src/../h/riscv.hpp **** inline uint64 Riscv::r_sepc() {
 121:src/../h/riscv.hpp ****     uint64 volatile sepc;
 122:src/../h/riscv.hpp ****     __asm__ volatile ("csrr %[sepc], sepc" : [sepc] "=r"(sepc));
 123:src/../h/riscv.hpp ****     return sepc;
 124:src/../h/riscv.hpp **** }
 125:src/../h/riscv.hpp **** 
 126:src/../h/riscv.hpp **** inline void Riscv::w_sepc(uint64 sepc) {
 127:src/../h/riscv.hpp ****     __asm__ volatile ("csrw sepc, %[sepc]" : : [sepc] "r"(sepc));
GAS LISTING /tmp/ccMOzPL0.s 			page 14


 128:src/../h/riscv.hpp **** }
 129:src/../h/riscv.hpp **** 
 130:src/../h/riscv.hpp **** inline uint64 Riscv::r_stvec() {
 131:src/../h/riscv.hpp ****     uint64 volatile stvec;
 132:src/../h/riscv.hpp ****     __asm__ volatile ("csrr %[stvec], stvec" : [stvec] "=r"(stvec));
 133:src/../h/riscv.hpp ****     return stvec;
 134:src/../h/riscv.hpp **** }
 135:src/../h/riscv.hpp **** 
 136:src/../h/riscv.hpp **** inline void Riscv::w_stvec(uint64 stvec) {
 137:src/../h/riscv.hpp ****     __asm__ volatile ("csrw stvec, %[stvec]" : : [stvec] "r"(stvec));
 441              		.loc 2 137 5 is_stmt 1
 442              		.loc 2 137 69 is_stmt 0
 443              	#APP
 444              	# 137 "src/../h/riscv.hpp" 1
 138              	}
 445              		csrw stvec, a5
 446              	# 0 "" 2
 447              	.LVL55:
 448              	#NO_APP
 449              	.LBE13:
 450              	.LBE12:
  78:src/main.cpp  ****     thread_t thread;
 451              		.loc 1 78 5 is_stmt 1
  79:src/main.cpp  ****     thread_create(&thread, nullptr, nullptr);
 452              		.loc 1 79 5
 453              		.loc 1 79 18 is_stmt 0
 454 02ec 13060000 		li	a2,0
 455 02f0 93050000 		li	a1,0
 456 02f4 130584FD 		addi	a0,s0,-40
 457 02f8 97000000 		call	_Z13thread_createPP3PCBPFvPvES2_@plt
 457      E7800000 
 458              	.LVL56:
  80:src/main.cpp  ****     PCB::running = thread;
 459              		.loc 1 80 5 is_stmt 1
 460              		.loc 1 80 18 is_stmt 0
 461 0300 97070000 		la	a5,_ZN3PCB7runningE
 461      83B70700 
 462 0308 033784FD 		ld	a4,-40(s0)
 463 030c 23B0E700 		sd	a4,0(a5)
  81:src/main.cpp  ****     uMode();
 464              		.loc 1 81 5 is_stmt 1
 465              		.loc 1 81 10 is_stmt 0
 466 0310 97000000 		call	_Z5uModev@plt
 466      E7800000 
 467              	.LVL57:
  82:src/main.cpp  ****     thread_t u;
 468              		.loc 1 82 5 is_stmt 1
  83:src/main.cpp  ****     thread_create(&u, wrapper, nullptr);
 469              		.loc 1 83 5
 470              		.loc 1 83 18 is_stmt 0
 471 0318 13060000 		li	a2,0
 472 031c 97050000 		lla	a1,_Z7wrapperPv
 472      93850500 
 473 0324 130504FD 		addi	a0,s0,-48
 474 0328 97000000 		call	_Z13thread_createPP3PCBPFvPvES2_@plt
 474      E7800000 
 475              	.LVL58:
GAS LISTING /tmp/ccMOzPL0.s 			page 15


 476              	.L28:
  84:src/main.cpp  ****     while (!finished) {
 477              		.loc 1 84 5 is_stmt 1
 478              		.loc 1 84 12
 479 0330 97070000 		lw	a5,.LANCHOR0
 479      83A70700 
 480 0338 63980700 		bnez	a5,.L27
  85:src/main.cpp  ****         thread_dispatch();
 481              		.loc 1 85 9
 482              		.loc 1 85 24 is_stmt 0
 483 033c 97000000 		call	_Z15thread_dispatchv@plt
 483      E7800000 
 484              	.LVL59:
 485 0344 6FF0DFFE 		j	.L28
 486              	.L27:
  86:src/main.cpp  ****     }
  87:src/main.cpp  ****     printString("Vracen iz thread_dispatch\n");
 487              		.loc 1 87 5 is_stmt 1
 488              		.loc 1 87 16 is_stmt 0
 489 0348 17050000 		lla	a0,.LC0
 489      13050500 
 490 0350 97000000 		call	_Z11printStringPKc@plt
 490      E7800000 
 491              	.LVL60:
  88:src/main.cpp  ****     sMode();
 492              		.loc 1 88 5 is_stmt 1
 493              		.loc 1 88 10 is_stmt 0
 494 0358 97000000 		call	_Z5sModev@plt
 494      E7800000 
 495              	.LVL61:
  89:src/main.cpp  ****     delete u;
 496              		.loc 1 89 5 is_stmt 1
 497              		.loc 1 89 12 is_stmt 0
 498 0360 833404FD 		ld	s1,-48(s0)
 499              		.loc 1 89 13
 500 0364 63800402 		beqz	s1,.L29
 501              	.LVL62:
 502              	.LBB14:
 503              	.LBB15:
 504              		.file 3 "src/../h/PCB.hpp"
   1:src/../h/PCB.hpp **** //
   2:src/../h/PCB.hpp **** // Created by marko on 20.4.22..
   3:src/../h/PCB.hpp **** //
   4:src/../h/PCB.hpp **** 
   5:src/../h/PCB.hpp **** #ifndef OS1_VEZBE07_RISCV_CONTEXT_SWITCH_1_SYNCHRONOUS_CCB_HPP
   6:src/../h/PCB.hpp **** #define OS1_VEZBE07_RISCV_CONTEXT_SWITCH_1_SYNCHRONOUS_CCB_HPP
   7:src/../h/PCB.hpp **** 
   8:src/../h/PCB.hpp **** 
   9:src/../h/PCB.hpp **** #include "../lib/hw.h"
  10:src/../h/PCB.hpp **** #include "scheduler.hpp"
  11:src/../h/PCB.hpp **** #include "../h/syscall_c.hpp"
  12:src/../h/PCB.hpp **** #include "MemoryAllocator.hpp"
  13:src/../h/PCB.hpp **** // static int id = 0;
  14:src/../h/PCB.hpp **** 
  15:src/../h/PCB.hpp **** class PCB {
  16:src/../h/PCB.hpp **** public:
  17:src/../h/PCB.hpp ****     ~PCB() { delete[] stack; }
GAS LISTING /tmp/ccMOzPL0.s 			page 16


 505              		.loc 3 17 14 is_stmt 1
 506              		.loc 3 17 23 is_stmt 0
 507 0368 03B58401 		ld	a0,24(s1)
 508              		.loc 3 17 28
 509 036c 63060500 		beqz	a0,.L30
 510              		.loc 3 17 23
 511 0370 97000000 		call	_ZdaPv@plt
 511      E7800000 
 512              	.LVL63:
 513              	.L30:
 514              	.LBE15:
 515              	.LBE14:
 516              		.loc 1 89 12
 517 0378 13850400 		mv	a0,s1
 518 037c 97000000 		call	_ZdlPv@plt
 518      E7800000 
 519              	.LVL64:
 520              	.L29:
  90:src/main.cpp  ****     delete thread;
 521              		.loc 1 90 5 is_stmt 1
 522              		.loc 1 90 12 is_stmt 0
 523 0384 833484FD 		ld	s1,-40(s0)
 524              		.loc 1 90 18
 525 0388 63800402 		beqz	s1,.L31
 526              	.LVL65:
 527              	.LBB16:
 528              	.LBB17:
 529              		.loc 3 17 14 is_stmt 1
 530              		.loc 3 17 23 is_stmt 0
 531 038c 03B58401 		ld	a0,24(s1)
 532              		.loc 3 17 28
 533 0390 63060500 		beqz	a0,.L32
 534              		.loc 3 17 23
 535 0394 97000000 		call	_ZdaPv@plt
 535      E7800000 
 536              	.LVL66:
 537              	.L32:
 538              	.LBE17:
 539              	.LBE16:
 540              		.loc 1 90 12
 541 039c 13850400 		mv	a0,s1
 542 03a0 97000000 		call	_ZdlPv@plt
 542      E7800000 
 543              	.LVL67:
 544              	.L31:
  91:src/main.cpp  ****     printString("MAIN FINISHED\n");
 545              		.loc 1 91 5 is_stmt 1
 546              		.loc 1 91 16 is_stmt 0
 547 03a8 17050000 		lla	a0,.LC1
 547      13050500 
 548 03b0 97000000 		call	_Z11printStringPKc@plt
 548      E7800000 
 549              	.LVL68:
  92:src/main.cpp  ****     return 0;
 550              		.loc 1 92 5 is_stmt 1
  93:src/main.cpp  **** }
 551              		.loc 1 93 1 is_stmt 0
GAS LISTING /tmp/ccMOzPL0.s 			page 17


 552 03b8 13050000 		li	a0,0
 553 03bc 83308102 		ld	ra,40(sp)
 554              		.cfi_restore 1
 555 03c0 03340102 		ld	s0,32(sp)
 556              		.cfi_restore 8
 557              		.cfi_def_cfa 2, 48
 558 03c4 83348101 		ld	s1,24(sp)
 559              		.cfi_restore 9
 560 03c8 13010103 		addi	sp,sp,48
 561              		.cfi_def_cfa_offset 0
 562 03cc 67800000 		jr	ra
 563              		.cfi_endproc
 564              	.LFE71:
 566              		.globl	finished
 567              		.bss
 568              		.align	2
 569              		.set	.LANCHOR0,. + 0
 572              	finished:
 573 0000 00000000 		.zero	4
 574              		.text
 575              	.Letext0:
 576              		.file 4 "src/../h/../lib/hw.h"
 577              		.file 5 "src/../h/../h/syscall_c.hpp"
 578              		.file 6 "src/../h/MemoryAllocator.hpp"
 579              		.file 7 "src/../h/syscall_cpp.hpp"
 580              		.file 8 "src/../h/../test/printing.hpp"
GAS LISTING /tmp/ccMOzPL0.s 			page 18


DEFINED SYMBOLS
                            *ABS*:0000000000000000 main.cpp
     /tmp/ccMOzPL0.s:9      .text:0000000000000000 _Z7wrapperPv
     /tmp/ccMOzPL0.s:13     .text:0000000000000000 .L0 
     /tmp/ccMOzPL0.s:15     .text:0000000000000000 .L0 
     /tmp/ccMOzPL0.s:16     .text:0000000000000004 .L0 
     /tmp/ccMOzPL0.s:19     .text:000000000000000c .L0 
     /tmp/ccMOzPL0.s:20     .text:000000000000000c .L0 
     /tmp/ccMOzPL0.s:22     .text:0000000000000010 .L0 
     /tmp/ccMOzPL0.s:24     .text:0000000000000010 .L0 
     /tmp/ccMOzPL0.s:25     .text:0000000000000010 .L0 
     /tmp/ccMOzPL0.s:28     .text:0000000000000018 .L0 
     /tmp/ccMOzPL0.s:29     .text:0000000000000018 .L0 
     /tmp/ccMOzPL0.s:32     .text:0000000000000024 .L0 
     /tmp/ccMOzPL0.s:33     .text:0000000000000028 .L0 
     /tmp/ccMOzPL0.s:35     .text:000000000000002c .L0 
     /tmp/ccMOzPL0.s:36     .text:000000000000002c .L0 
     /tmp/ccMOzPL0.s:38     .text:0000000000000030 .L0 
     /tmp/ccMOzPL0.s:40     .text:0000000000000034 .L0 
     /tmp/ccMOzPL0.s:46     .text:0000000000000034 _Z30test_basic_allocation_and_freev
     /tmp/ccMOzPL0.s:49     .text:0000000000000034 .L0 
     /tmp/ccMOzPL0.s:50     .text:0000000000000034 .L0 
     /tmp/ccMOzPL0.s:51     .text:0000000000000038 .L0 
     /tmp/ccMOzPL0.s:55     .text:0000000000000044 .L0 
     /tmp/ccMOzPL0.s:56     .text:0000000000000044 .L0 
     /tmp/ccMOzPL0.s:57     .text:0000000000000044 .L0 
     /tmp/ccMOzPL0.s:59     .text:0000000000000048 .L0 
     /tmp/ccMOzPL0.s:61     .text:0000000000000048 .L0 
     /tmp/ccMOzPL0.s:62     .text:0000000000000048 .L0 
     /tmp/ccMOzPL0.s:65     .text:0000000000000050 .L0 
     /tmp/ccMOzPL0.s:66     .text:0000000000000050 .L0 
     /tmp/ccMOzPL0.s:72     .text:0000000000000060 .L0 
     /tmp/ccMOzPL0.s:75     .text:0000000000000064 .L0 
     /tmp/ccMOzPL0.s:76     .text:0000000000000064 .L0 
     /tmp/ccMOzPL0.s:80     .text:0000000000000070 .L0 
     /tmp/ccMOzPL0.s:84     .text:0000000000000074 .L0 
     /tmp/ccMOzPL0.s:85     .text:0000000000000074 .L0 
     /tmp/ccMOzPL0.s:91     .text:0000000000000088 .L0 
     /tmp/ccMOzPL0.s:92     .text:000000000000008c .L0 
     /tmp/ccMOzPL0.s:93     .text:000000000000008c .L0 
     /tmp/ccMOzPL0.s:95     .text:0000000000000090 .L0 
     /tmp/ccMOzPL0.s:96     .text:0000000000000090 .L0 
     /tmp/ccMOzPL0.s:98     .text:0000000000000094 .L0 
     /tmp/ccMOzPL0.s:101    .text:0000000000000098 .L0 
     /tmp/ccMOzPL0.s:105    .text:000000000000009c .L0 
     /tmp/ccMOzPL0.s:107    .text:000000000000009c .L0 
     /tmp/ccMOzPL0.s:108    .text:000000000000009c .L0 
     /tmp/ccMOzPL0.s:117    .text:00000000000000b4 .L0 
     /tmp/ccMOzPL0.s:118    .text:00000000000000b4 .L0 
     /tmp/ccMOzPL0.s:125    .text:00000000000000cc .L0 
     /tmp/ccMOzPL0.s:131    .text:00000000000000cc _Z25test_multiple_allocationsv
     /tmp/ccMOzPL0.s:134    .text:00000000000000cc .L0 
     /tmp/ccMOzPL0.s:135    .text:00000000000000cc .L0 
     /tmp/ccMOzPL0.s:136    .text:00000000000000d0 .L0 
     /tmp/ccMOzPL0.s:140    .text:00000000000000dc .L0 
     /tmp/ccMOzPL0.s:141    .text:00000000000000dc .L0 
     /tmp/ccMOzPL0.s:142    .text:00000000000000dc .L0 
GAS LISTING /tmp/ccMOzPL0.s 			page 19


     /tmp/ccMOzPL0.s:144    .text:00000000000000e0 .L0 
     /tmp/ccMOzPL0.s:146    .text:00000000000000e0 .L0 
     /tmp/ccMOzPL0.s:147    .text:00000000000000e0 .L0 
     /tmp/ccMOzPL0.s:151    .text:00000000000000e8 .L0 
     /tmp/ccMOzPL0.s:156    .text:00000000000000f0 .L0 
     /tmp/ccMOzPL0.s:160    .text:00000000000000f4 .L0 
     /tmp/ccMOzPL0.s:163    .text:00000000000000fc .L0 
     /tmp/ccMOzPL0.s:164    .text:00000000000000fc .L0 
     /tmp/ccMOzPL0.s:168    .text:0000000000000108 .L0 
     /tmp/ccMOzPL0.s:173    .text:0000000000000118 .L0 
     /tmp/ccMOzPL0.s:175    .text:000000000000011c .L0 
     /tmp/ccMOzPL0.s:176    .text:000000000000011c .L0 
     /tmp/ccMOzPL0.s:186    .text:0000000000000134 .L0 
     /tmp/ccMOzPL0.s:190    .text:0000000000000138 .L0 
     /tmp/ccMOzPL0.s:193    .text:0000000000000140 .L0 
     /tmp/ccMOzPL0.s:194    .text:0000000000000140 .L0 
     /tmp/ccMOzPL0.s:201    .text:0000000000000158 .L0 
     /tmp/ccMOzPL0.s:208    .text:0000000000000160 .L0 
     /tmp/ccMOzPL0.s:209    .text:0000000000000160 .L0 
     /tmp/ccMOzPL0.s:215    .text:0000000000000174 .L0 
     /tmp/ccMOzPL0.s:216    .text:0000000000000178 .L0 
     /tmp/ccMOzPL0.s:218    .text:000000000000017c .L0 
     /tmp/ccMOzPL0.s:219    .text:000000000000017c .L0 
     /tmp/ccMOzPL0.s:221    .text:0000000000000180 .L0 
     /tmp/ccMOzPL0.s:224    .text:0000000000000184 .L0 
     /tmp/ccMOzPL0.s:226    .text:0000000000000188 .L0 
     /tmp/ccMOzPL0.s:232    .text:0000000000000188 _Z22test_free_and_coalescev
     /tmp/ccMOzPL0.s:235    .text:0000000000000188 .L0 
     /tmp/ccMOzPL0.s:236    .text:0000000000000188 .L0 
     /tmp/ccMOzPL0.s:237    .text:000000000000018c .L0 
     /tmp/ccMOzPL0.s:242    .text:000000000000019c .L0 
     /tmp/ccMOzPL0.s:243    .text:000000000000019c .L0 
     /tmp/ccMOzPL0.s:244    .text:000000000000019c .L0 
     /tmp/ccMOzPL0.s:245    .text:000000000000019c .L0 
     /tmp/ccMOzPL0.s:247    .text:00000000000001a0 .L0 
     /tmp/ccMOzPL0.s:249    .text:00000000000001a0 .L0 
     /tmp/ccMOzPL0.s:250    .text:00000000000001a0 .L0 
     /tmp/ccMOzPL0.s:253    .text:00000000000001a8 .L0 
     /tmp/ccMOzPL0.s:254    .text:00000000000001a8 .L0 
     /tmp/ccMOzPL0.s:260    .text:00000000000001b8 .L0 
     /tmp/ccMOzPL0.s:261    .text:00000000000001b8 .L0 
     /tmp/ccMOzPL0.s:268    .text:00000000000001c8 .L0 
     /tmp/ccMOzPL0.s:269    .text:00000000000001c8 .L0 
     /tmp/ccMOzPL0.s:273    .text:00000000000001d4 .L0 
     /tmp/ccMOzPL0.s:274    .text:00000000000001d4 .L0 
     /tmp/ccMOzPL0.s:278    .text:00000000000001e0 .L0 
     /tmp/ccMOzPL0.s:279    .text:00000000000001e0 .L0 
     /tmp/ccMOzPL0.s:283    .text:00000000000001ec .L0 
     /tmp/ccMOzPL0.s:287    .text:00000000000001f0 .L0 
     /tmp/ccMOzPL0.s:288    .text:00000000000001f0 .L0 
     /tmp/ccMOzPL0.s:294    .text:0000000000000204 .L0 
     /tmp/ccMOzPL0.s:295    .text:0000000000000208 .L0 
     /tmp/ccMOzPL0.s:296    .text:0000000000000208 .L0 
     /tmp/ccMOzPL0.s:298    .text:000000000000020c .L0 
     /tmp/ccMOzPL0.s:299    .text:000000000000020c .L0 
     /tmp/ccMOzPL0.s:301    .text:0000000000000210 .L0 
     /tmp/ccMOzPL0.s:304    .text:0000000000000214 .L0 
GAS LISTING /tmp/ccMOzPL0.s 			page 20


     /tmp/ccMOzPL0.s:307    .text:0000000000000218 .L0 
     /tmp/ccMOzPL0.s:311    .text:000000000000021c .L0 
     /tmp/ccMOzPL0.s:313    .text:000000000000021c .L0 
     /tmp/ccMOzPL0.s:314    .text:000000000000021c .L0 
     /tmp/ccMOzPL0.s:321    .text:0000000000000234 .L0 
     /tmp/ccMOzPL0.s:327    .text:0000000000000234 _Z15test_edge_casesv
     /tmp/ccMOzPL0.s:330    .text:0000000000000234 .L0 
     /tmp/ccMOzPL0.s:331    .text:0000000000000234 .L0 
     /tmp/ccMOzPL0.s:332    .text:0000000000000238 .L0 
     /tmp/ccMOzPL0.s:335    .text:0000000000000240 .L0 
     /tmp/ccMOzPL0.s:336    .text:0000000000000240 .L0 
     /tmp/ccMOzPL0.s:338    .text:0000000000000244 .L0 
     /tmp/ccMOzPL0.s:340    .text:0000000000000244 .L0 
     /tmp/ccMOzPL0.s:341    .text:0000000000000244 .L0 
     /tmp/ccMOzPL0.s:344    .text:000000000000024c .L0 
     /tmp/ccMOzPL0.s:345    .text:000000000000024c .L0 
     /tmp/ccMOzPL0.s:349    .text:0000000000000258 .L0 
     /tmp/ccMOzPL0.s:353    .text:000000000000025c .L0 
     /tmp/ccMOzPL0.s:354    .text:000000000000025c .L0 
     /tmp/ccMOzPL0.s:358    .text:0000000000000268 .L0 
     /tmp/ccMOzPL0.s:362    .text:000000000000026c .L0 
     /tmp/ccMOzPL0.s:363    .text:000000000000026c .L0 
     /tmp/ccMOzPL0.s:369    .text:0000000000000280 .L0 
     /tmp/ccMOzPL0.s:370    .text:0000000000000284 .L0 
     /tmp/ccMOzPL0.s:371    .text:0000000000000284 .L0 
     /tmp/ccMOzPL0.s:373    .text:0000000000000288 .L0 
     /tmp/ccMOzPL0.s:374    .text:0000000000000288 .L0 
     /tmp/ccMOzPL0.s:376    .text:000000000000028c .L0 
     /tmp/ccMOzPL0.s:380    .text:0000000000000290 .L0 
     /tmp/ccMOzPL0.s:382    .text:0000000000000290 .L0 
     /tmp/ccMOzPL0.s:383    .text:0000000000000290 .L0 
     /tmp/ccMOzPL0.s:393    .text:00000000000002a8 .L0 
     /tmp/ccMOzPL0.s:394    .text:00000000000002a8 .L0 
     /tmp/ccMOzPL0.s:401    .text:00000000000002c0 .L0 
     /tmp/ccMOzPL0.s:415    .text:00000000000002c0 main
     /tmp/ccMOzPL0.s:418    .text:00000000000002c0 .L0 
     /tmp/ccMOzPL0.s:419    .text:00000000000002c0 .L0 
     /tmp/ccMOzPL0.s:420    .text:00000000000002c4 .L0 
     /tmp/ccMOzPL0.s:424    .text:00000000000002d0 .L0 
     /tmp/ccMOzPL0.s:425    .text:00000000000002d0 .L0 
     /tmp/ccMOzPL0.s:426    .text:00000000000002d0 .L0 
     /tmp/ccMOzPL0.s:428    .text:00000000000002d4 .L0 
     /tmp/ccMOzPL0.s:430    .text:00000000000002d4 .L0 
     /tmp/ccMOzPL0.s:431    .text:00000000000002d4 .L0 
     /tmp/ccMOzPL0.s:434    .text:00000000000002dc .L0 
     /tmp/ccMOzPL0.s:435    .text:00000000000002dc .L0 
     /tmp/ccMOzPL0.s:442    .text:00000000000002e8 .L0 
  src/../h/riscv.hpp:137    .text:00000000000002e8 .L0 
     /tmp/ccMOzPL0.s:452    .text:00000000000002ec .L0 
     /tmp/ccMOzPL0.s:453    .text:00000000000002ec .L0 
     /tmp/ccMOzPL0.s:454    .text:00000000000002ec .L0 
     /tmp/ccMOzPL0.s:460    .text:0000000000000300 .L0 
     /tmp/ccMOzPL0.s:461    .text:0000000000000300 .L0 
     /tmp/ccMOzPL0.s:465    .text:0000000000000310 .L0 
     /tmp/ccMOzPL0.s:466    .text:0000000000000310 .L0 
     /tmp/ccMOzPL0.s:469    .text:0000000000000318 .L0 
     /tmp/ccMOzPL0.s:470    .text:0000000000000318 .L0 
GAS LISTING /tmp/ccMOzPL0.s 			page 21


     /tmp/ccMOzPL0.s:471    .text:0000000000000318 .L0 
     /tmp/ccMOzPL0.s:478    .text:0000000000000330 .L0 
     /tmp/ccMOzPL0.s:479    .text:0000000000000330 .L0 
     /tmp/ccMOzPL0.s:482    .text:000000000000033c .L0 
     /tmp/ccMOzPL0.s:483    .text:000000000000033c .L0 
     /tmp/ccMOzPL0.s:488    .text:0000000000000348 .L0 
     /tmp/ccMOzPL0.s:489    .text:0000000000000348 .L0 
     /tmp/ccMOzPL0.s:493    .text:0000000000000358 .L0 
     /tmp/ccMOzPL0.s:494    .text:0000000000000358 .L0 
     /tmp/ccMOzPL0.s:497    .text:0000000000000360 .L0 
     /tmp/ccMOzPL0.s:498    .text:0000000000000360 .L0 
     /tmp/ccMOzPL0.s:500    .text:0000000000000364 .L0 
     /tmp/ccMOzPL0.s:506    .text:0000000000000368 .L0 
     /tmp/ccMOzPL0.s:507    .text:0000000000000368 .L0 
     /tmp/ccMOzPL0.s:509    .text:000000000000036c .L0 
     /tmp/ccMOzPL0.s:511    .text:0000000000000370 .L0 
     /tmp/ccMOzPL0.s:517    .text:0000000000000378 .L0 
     /tmp/ccMOzPL0.s:522    .text:0000000000000384 .L0 
     /tmp/ccMOzPL0.s:523    .text:0000000000000384 .L0 
     /tmp/ccMOzPL0.s:525    .text:0000000000000388 .L0 
     /tmp/ccMOzPL0.s:530    .text:000000000000038c .L0 
     /tmp/ccMOzPL0.s:531    .text:000000000000038c .L0 
     /tmp/ccMOzPL0.s:533    .text:0000000000000390 .L0 
     /tmp/ccMOzPL0.s:535    .text:0000000000000394 .L0 
     /tmp/ccMOzPL0.s:541    .text:000000000000039c .L0 
     /tmp/ccMOzPL0.s:546    .text:00000000000003a8 .L0 
     /tmp/ccMOzPL0.s:547    .text:00000000000003a8 .L0 
     /tmp/ccMOzPL0.s:551    .text:00000000000003b8 .L0 
     /tmp/ccMOzPL0.s:552    .text:00000000000003b8 .L0 
     /tmp/ccMOzPL0.s:554    .text:00000000000003c0 .L0 
     /tmp/ccMOzPL0.s:556    .text:00000000000003c4 .L0 
     /tmp/ccMOzPL0.s:557    .text:00000000000003c4 .L0 
     /tmp/ccMOzPL0.s:559    .text:00000000000003c8 .L0 
     /tmp/ccMOzPL0.s:561    .text:00000000000003cc .L0 
     /tmp/ccMOzPL0.s:563    .text:00000000000003d0 .L0 
     /tmp/ccMOzPL0.s:572    .bss:0000000000000000 finished
     /tmp/ccMOzPL0.s:569    .bss:0000000000000000 .LANCHOR0
     /tmp/ccMOzPL0.s:581    .text:00000000000003d0 .L0 
     /tmp/ccMOzPL0.s:30     .text:000000000000001c .L0 
     /tmp/ccMOzPL0.s:435    .text:00000000000002dc .L0 
     /tmp/ccMOzPL0.s:461    .text:0000000000000300 .L0 
     /tmp/ccMOzPL0.s:472    .text:000000000000031c .L0 
     /tmp/ccMOzPL0.s:479    .text:0000000000000330 .L0 
     /tmp/ccMOzPL0.s:406    .rodata.str1.8:0000000000000000 .LC0
     /tmp/ccMOzPL0.s:489    .text:0000000000000348 .L0 
     /tmp/ccMOzPL0.s:409    .rodata.str1.8:0000000000000020 .LC1
     /tmp/ccMOzPL0.s:547    .text:00000000000003a8 .L0 
     /tmp/ccMOzPL0.s:104    .text:000000000000009c .L7
     /tmp/ccMOzPL0.s:115    .text:00000000000000b4 .L8
     /tmp/ccMOzPL0.s:73     .text:0000000000000064 .L4
     /tmp/ccMOzPL0.s:82     .text:0000000000000074 .L5
     /tmp/ccMOzPL0.s:158    .text:00000000000000f4 .L12
     /tmp/ccMOzPL0.s:182    .text:0000000000000134 .L14
     /tmp/ccMOzPL0.s:154    .text:00000000000000f0 .L11
     /tmp/ccMOzPL0.s:205    .text:0000000000000160 .L13
     /tmp/ccMOzPL0.s:188    .text:0000000000000138 .L10
     /tmp/ccMOzPL0.s:310    .text:000000000000021c .L19
GAS LISTING /tmp/ccMOzPL0.s 			page 22


     /tmp/ccMOzPL0.s:285    .text:00000000000001f0 .L17
     /tmp/ccMOzPL0.s:379    .text:0000000000000290 .L24
     /tmp/ccMOzPL0.s:391    .text:00000000000002a8 .L25
     /tmp/ccMOzPL0.s:351    .text:000000000000025c .L21
     /tmp/ccMOzPL0.s:360    .text:000000000000026c .L22
     /tmp/ccMOzPL0.s:486    .text:0000000000000348 .L27
     /tmp/ccMOzPL0.s:476    .text:0000000000000330 .L28
     /tmp/ccMOzPL0.s:520    .text:0000000000000384 .L29
     /tmp/ccMOzPL0.s:513    .text:0000000000000378 .L30
     /tmp/ccMOzPL0.s:544    .text:00000000000003a8 .L31
     /tmp/ccMOzPL0.s:537    .text:000000000000039c .L32
     /tmp/ccMOzPL0.s:2413   .debug_abbrev:0000000000000000 .Ldebug_abbrev0
     /tmp/ccMOzPL0.s:3958   .debug_str:0000000000000956 .LASF190
     /tmp/ccMOzPL0.s:3734   .debug_str:00000000000002fb .LASF191
     /tmp/ccMOzPL0.s:3984   .debug_str:0000000000000ade .LASF192
     /tmp/ccMOzPL0.s:5      .text:0000000000000000 .Ltext0
     /tmp/ccMOzPL0.s:575    .text:00000000000003d0 .Letext0
     /tmp/ccMOzPL0.s:3632   .debug_line:0000000000000000 .Ldebug_line0
     /tmp/ccMOzPL0.s:3768   .debug_str:00000000000003dc .LASF0
     /tmp/ccMOzPL0.s:3786   .debug_str:0000000000000473 .LASF1
     /tmp/ccMOzPL0.s:3892   .debug_str:0000000000000780 .LASF2
     /tmp/ccMOzPL0.s:3900   .debug_str:00000000000007ba .LASF4
     /tmp/ccMOzPL0.s:3778   .debug_str:0000000000000436 .LASF3
     /tmp/ccMOzPL0.s:3646   .debug_str:000000000000006b .LASF5
     /tmp/ccMOzPL0.s:3862   .debug_str:00000000000006c3 .LASF6
     /tmp/ccMOzPL0.s:3852   .debug_str:000000000000066b .LASF7
     /tmp/ccMOzPL0.s:3780   .debug_str:0000000000000448 .LASF8
     /tmp/ccMOzPL0.s:3738   .debug_str:000000000000030d .LASF9
     /tmp/ccMOzPL0.s:3748   .debug_str:0000000000000348 .LASF10
     /tmp/ccMOzPL0.s:3682   .debug_str:0000000000000191 .LASF11
     /tmp/ccMOzPL0.s:3732   .debug_str:00000000000002ec .LASF12
     /tmp/ccMOzPL0.s:3692   .debug_str:00000000000001c1 .LASF13
     /tmp/ccMOzPL0.s:3680   .debug_str:0000000000000181 .LASF14
     /tmp/ccMOzPL0.s:3934   .debug_str:00000000000008a6 .LASF15
     /tmp/ccMOzPL0.s:3716   .debug_str:000000000000024a .LASF16
     /tmp/ccMOzPL0.s:3924   .debug_str:000000000000084c .LASF17
     /tmp/ccMOzPL0.s:3978   .debug_str:0000000000000ab8 .LASF193
     /tmp/ccMOzPL0.s:3866   .debug_str:00000000000006dc .LASF18
     /tmp/ccMOzPL0.s:3940   .debug_str:00000000000008c4 .LASF19
     /tmp/ccMOzPL0.s:3914   .debug_str:0000000000000816 .LASF20
     /tmp/ccMOzPL0.s:3688   .debug_str:00000000000001af .LASF21
     /tmp/ccMOzPL0.s:3802   .debug_str:00000000000004c7 .LASF22
     /tmp/ccMOzPL0.s:3670   .debug_str:0000000000000131 .LASF23
     /tmp/ccMOzPL0.s:3744   .debug_str:0000000000000327 .LASF24
     /tmp/ccMOzPL0.s:3938   .debug_str:00000000000008bc .LASF59
     /tmp/ccMOzPL0.s:3636   .debug_str:0000000000000024 .LASF64
     /tmp/ccMOzPL0.s:3964   .debug_str:0000000000000a41 .LASF61
     /tmp/ccMOzPL0.s:3784   .debug_str:000000000000046e .LASF25
     /tmp/ccMOzPL0.s:4024   .debug_str:0000000000000c45 .LASF27
     /tmp/ccMOzPL0.s:3690   .debug_str:00000000000001b8 .LASF29
     /tmp/ccMOzPL0.s:3952   .debug_str:000000000000091f .LASF31
     /tmp/ccMOzPL0.s:3700   .debug_str:00000000000001f0 .LASF26
     /tmp/ccMOzPL0.s:3676   .debug_str:000000000000014e .LASF28
     /tmp/ccMOzPL0.s:3776   .debug_str:0000000000000427 .LASF30
     /tmp/ccMOzPL0.s:3954   .debug_str:0000000000000933 .LASF32
     /tmp/ccMOzPL0.s:4004   .debug_str:0000000000000b9f .LASF33
     /tmp/ccMOzPL0.s:3720   .debug_str:0000000000000269 .LASF34
GAS LISTING /tmp/ccMOzPL0.s 			page 23


     /tmp/ccMOzPL0.s:3890   .debug_str:0000000000000776 .LASF35
     /tmp/ccMOzPL0.s:3948   .debug_str:0000000000000905 .LASF36
     /tmp/ccMOzPL0.s:3800   .debug_str:00000000000004bd .LASF37
     /tmp/ccMOzPL0.s:3756   .debug_str:0000000000000376 .LASF38
     /tmp/ccMOzPL0.s:3998   .debug_str:0000000000000b81 .LASF39
     /tmp/ccMOzPL0.s:3834   .debug_str:00000000000005ae .LASF40
     /tmp/ccMOzPL0.s:3842   .debug_str:0000000000000601 .LASF194
     /tmp/ccMOzPL0.s:3788   .debug_str:0000000000000486 .LASF41
     /tmp/ccMOzPL0.s:3790   .debug_str:000000000000048c .LASF43
     /tmp/ccMOzPL0.s:3704   .debug_str:000000000000020c .LASF42
     /tmp/ccMOzPL0.s:3656   .debug_str:00000000000000b9 .LASF44
     /tmp/ccMOzPL0.s:3908   .debug_str:00000000000007e9 .LASF45
     /tmp/ccMOzPL0.s:3920   .debug_str:000000000000082f .LASF46
     /tmp/ccMOzPL0.s:3896   .debug_str:00000000000007a6 .LASF47
     /tmp/ccMOzPL0.s:3850   .debug_str:0000000000000648 .LASF48
     /tmp/ccMOzPL0.s:3956   .debug_str:000000000000094e .LASF49
     /tmp/ccMOzPL0.s:4026   .debug_str:0000000000000c51 .LASF50
     /tmp/ccMOzPL0.s:3808   .debug_str:00000000000004e2 .LASF90
     /tmp/ccMOzPL0.s:3996   .debug_str:0000000000000b6a .LASF92
     /tmp/ccMOzPL0.s:3638   .debug_str:0000000000000039 .LASF51
     /tmp/ccMOzPL0.s:3990   .debug_str:0000000000000b2f .LASF52
     /tmp/ccMOzPL0.s:3804   .debug_str:00000000000004cf .LASF53
     /tmp/ccMOzPL0.s:3974   .debug_str:0000000000000a9b .LASF54
     /tmp/ccMOzPL0.s:3710   .debug_str:000000000000022b .LASF55
     /tmp/ccMOzPL0.s:3706   .debug_str:0000000000000215 .LASF56
     /tmp/ccMOzPL0.s:4012   .debug_str:0000000000000bf0 .LASF57
     /tmp/ccMOzPL0.s:3798   .debug_str:00000000000004b3 .LASF58
     /tmp/ccMOzPL0.s:3672   .debug_str:000000000000013a .LASF130
     /tmp/ccMOzPL0.s:3662   .debug_str:00000000000000d7 .LASF132
     /tmp/ccMOzPL0.s:3696   .debug_str:00000000000001d6 .LASF60
     /tmp/ccMOzPL0.s:3664   .debug_str:00000000000000f0 .LASF62
     /tmp/ccMOzPL0.s:3658   .debug_str:00000000000000cc .LASF63
     /tmp/ccMOzPL0.s:3856   .debug_str:0000000000000687 .LASF65
     /tmp/ccMOzPL0.s:3898   .debug_str:00000000000007af .LASF195
     /tmp/ccMOzPL0.s:4032   .debug_str:0000000000000c72 .LASF66
     /tmp/ccMOzPL0.s:3686   .debug_str:00000000000001a5 .LASF67
     /tmp/ccMOzPL0.s:3660   .debug_str:00000000000000d2 .LASF68
     /tmp/ccMOzPL0.s:3684   .debug_str:00000000000001a0 .LASF69
     /tmp/ccMOzPL0.s:3694   .debug_str:00000000000001d1 .LASF70
     /tmp/ccMOzPL0.s:3828   .debug_str:0000000000000598 .LASF71
     /tmp/ccMOzPL0.s:3878   .debug_str:000000000000073a .LASF72
     /tmp/ccMOzPL0.s:3848   .debug_str:0000000000000638 .LASF73
     /tmp/ccMOzPL0.s:3882   .debug_str:000000000000074d .LASF74
     /tmp/ccMOzPL0.s:3812   .debug_str:0000000000000504 .LASF75
     /tmp/ccMOzPL0.s:3650   .debug_str:000000000000007d .LASF76
     /tmp/ccMOzPL0.s:3760   .debug_str:000000000000039e .LASF77
     /tmp/ccMOzPL0.s:3814   .debug_str:000000000000050e .LASF78
     /tmp/ccMOzPL0.s:3772   .debug_str:0000000000000409 .LASF79
     /tmp/ccMOzPL0.s:3988   .debug_str:0000000000000b04 .LASF80
     /tmp/ccMOzPL0.s:3916   .debug_str:000000000000081e .LASF81
     /tmp/ccMOzPL0.s:3770   .debug_str:00000000000003e9 .LASF82
     /tmp/ccMOzPL0.s:4002   .debug_str:0000000000000b99 .LASF83
     /tmp/ccMOzPL0.s:3754   .debug_str:000000000000036b .LASF84
     /tmp/ccMOzPL0.s:3762   .debug_str:00000000000003a7 .LASF85
     /tmp/ccMOzPL0.s:3906   .debug_str:00000000000007db .LASF86
     /tmp/ccMOzPL0.s:3722   .debug_str:0000000000000284 .LASF87
     /tmp/ccMOzPL0.s:3822   .debug_str:000000000000057c .LASF88
GAS LISTING /tmp/ccMOzPL0.s 			page 24


     /tmp/ccMOzPL0.s:4008   .debug_str:0000000000000bb9 .LASF89
     /tmp/ccMOzPL0.s:3986   .debug_str:0000000000000afb .LASF91
     /tmp/ccMOzPL0.s:3976   .debug_str:0000000000000aa3 .LASF93
     /tmp/ccMOzPL0.s:3888   .debug_str:000000000000076d .LASF94
     /tmp/ccMOzPL0.s:3838   .debug_str:00000000000005e5 .LASF95
     /tmp/ccMOzPL0.s:3868   .debug_str:00000000000006e4 .LASF96
     /tmp/ccMOzPL0.s:3872   .debug_str:0000000000000703 .LASF97
     /tmp/ccMOzPL0.s:3826   .debug_str:0000000000000591 .LASF98
     /tmp/ccMOzPL0.s:3782   .debug_str:000000000000045b .LASF99
     /tmp/ccMOzPL0.s:3820   .debug_str:0000000000000574 .LASF100
     /tmp/ccMOzPL0.s:3962   .debug_str:0000000000000a2d .LASF101
     /tmp/ccMOzPL0.s:3824   .debug_str:0000000000000589 .LASF102
     /tmp/ccMOzPL0.s:3836   .debug_str:00000000000005d1 .LASF103
     /tmp/ccMOzPL0.s:3666   .debug_str:0000000000000118 .LASF104
     /tmp/ccMOzPL0.s:4022   .debug_str:0000000000000c30 .LASF105
     /tmp/ccMOzPL0.s:4028   .debug_str:0000000000000c56 .LASF106
     /tmp/ccMOzPL0.s:3912   .debug_str:0000000000000801 .LASF107
     /tmp/ccMOzPL0.s:3794   .debug_str:00000000000004a5 .LASF108
     /tmp/ccMOzPL0.s:3874   .debug_str:0000000000000716 .LASF109
     /tmp/ccMOzPL0.s:4034   .debug_str:0000000000000c7b .LASF110
     /tmp/ccMOzPL0.s:3774   .debug_str:0000000000000413 .LASF111
     /tmp/ccMOzPL0.s:3930   .debug_str:0000000000000891 .LASF112
     /tmp/ccMOzPL0.s:3902   .debug_str:00000000000007c1 .LASF113
     /tmp/ccMOzPL0.s:3904   .debug_str:00000000000007d4 .LASF114
     /tmp/ccMOzPL0.s:3714   .debug_str:0000000000000237 .LASF115
     /tmp/ccMOzPL0.s:3712   .debug_str:0000000000000231 .LASF116
     /tmp/ccMOzPL0.s:3758   .debug_str:000000000000038c .LASF117
     /tmp/ccMOzPL0.s:3970   .debug_str:0000000000000a89 .LASF118
     /tmp/ccMOzPL0.s:3702   .debug_str:00000000000001fa .LASF119
     /tmp/ccMOzPL0.s:3648   .debug_str:0000000000000072 .LASF120
     /tmp/ccMOzPL0.s:3894   .debug_str:000000000000078e .LASF121
     /tmp/ccMOzPL0.s:3982   .debug_str:0000000000000ad3 .LASF122
     /tmp/ccMOzPL0.s:3870   .debug_str:00000000000006eb .LASF123
     /tmp/ccMOzPL0.s:4006   .debug_str:0000000000000baf .LASF124
     /tmp/ccMOzPL0.s:4016   .debug_str:0000000000000c08 .LASF125
     /tmp/ccMOzPL0.s:4000   .debug_str:0000000000000b8f .LASF126
     /tmp/ccMOzPL0.s:3810   .debug_str:00000000000004ee .LASF127
     /tmp/ccMOzPL0.s:3980   .debug_str:0000000000000ac4 .LASF128
     /tmp/ccMOzPL0.s:3746   .debug_str:000000000000032c .LASF129
     /tmp/ccMOzPL0.s:3966   .debug_str:0000000000000a55 .LASF131
     /tmp/ccMOzPL0.s:3860   .debug_str:00000000000006a0 .LASF133
     /tmp/ccMOzPL0.s:3844   .debug_str:0000000000000606 .LASF134
     /tmp/ccMOzPL0.s:3818   .debug_str:000000000000054b .LASF135
     /tmp/ccMOzPL0.s:4010   .debug_str:0000000000000bd3 .LASF136
     /tmp/ccMOzPL0.s:3992   .debug_str:0000000000000b38 .LASF137
     /tmp/ccMOzPL0.s:3944   .debug_str:00000000000008e9 .LASF138
     /tmp/ccMOzPL0.s:3922   .debug_str:0000000000000843 .LASF139
     /tmp/ccMOzPL0.s:3764   .debug_str:00000000000003bf .LASF196
     /tmp/ccMOzPL0.s:3752   .debug_str:0000000000000364 .LASF140
     /tmp/ccMOzPL0.s:3884   .debug_str:0000000000000759 .LASF197
     /tmp/ccMOzPL0.s:4038   .debug_str:0000000000000c92 .LASF141
     /tmp/ccMOzPL0.s:3918   .debug_str:0000000000000827 .LASF198
     /tmp/ccMOzPL0.s:3728   .debug_str:00000000000002d3 .LASF199
     /tmp/ccMOzPL0.s:4020   .debug_str:0000000000000c2a .LASF142
     /tmp/ccMOzPL0.s:3642   .debug_str:000000000000004e .LASF143
     /tmp/ccMOzPL0.s:3950   .debug_str:000000000000091a .LASF144
     /tmp/ccMOzPL0.s:3864   .debug_str:00000000000006ca .LASF145
GAS LISTING /tmp/ccMOzPL0.s 			page 25


     /tmp/ccMOzPL0.s:3846   .debug_str:0000000000000622 .LASF146
     /tmp/ccMOzPL0.s:3960   .debug_str:0000000000000a1a .LASF147
     /tmp/ccMOzPL0.s:4036   .debug_str:0000000000000c83 .LASF148
     /tmp/ccMOzPL0.s:4014   .debug_str:0000000000000bf7 .LASF200
     /tmp/ccMOzPL0.s:3718   .debug_str:0000000000000260 .LASF149
     /tmp/ccMOzPL0.s:3708   .debug_str:000000000000021c .LASF150
     /tmp/ccMOzPL0.s:3968   .debug_str:0000000000000a6b .LASF151
     /tmp/ccMOzPL0.s:416    .text:00000000000002c0 .LFB71
     /tmp/ccMOzPL0.s:564    .text:00000000000003d0 .LFE71
     /tmp/ccMOzPL0.s:3886   .debug_str:0000000000000766 .LASF152
     /tmp/ccMOzPL0.s:438    .text:00000000000002e8 .LBB12
     /tmp/ccMOzPL0.s:450    .text:00000000000002ec .LBE12
     /tmp/ccMOzPL0.s:3488   .debug_loc:0000000000000000 .LLST9
     /tmp/ccMOzPL0.s:502    .text:0000000000000368 .LBB14
     /tmp/ccMOzPL0.s:515    .text:0000000000000378 .LBE14
     /tmp/ccMOzPL0.s:3495   .debug_loc:0000000000000023 .LLST10
     /tmp/ccMOzPL0.s:512    .text:0000000000000378 .LVL63
     /tmp/ccMOzPL0.s:527    .text:000000000000038c .LBB16
     /tmp/ccMOzPL0.s:539    .text:000000000000039c .LBE16
     /tmp/ccMOzPL0.s:3502   .debug_loc:0000000000000046 .LLST11
     /tmp/ccMOzPL0.s:536    .text:000000000000039c .LVL66
     /tmp/ccMOzPL0.s:432    .text:00000000000002dc .LVL53
     /tmp/ccMOzPL0.s:458    .text:0000000000000300 .LVL56
     /tmp/ccMOzPL0.s:467    .text:0000000000000318 .LVL57
     /tmp/ccMOzPL0.s:475    .text:0000000000000330 .LVL58
     /tmp/ccMOzPL0.s:484    .text:0000000000000344 .LVL59
     /tmp/ccMOzPL0.s:491    .text:0000000000000358 .LVL60
     /tmp/ccMOzPL0.s:495    .text:0000000000000360 .LVL61
     /tmp/ccMOzPL0.s:519    .text:0000000000000384 .LVL64
     /tmp/ccMOzPL0.s:543    .text:00000000000003a8 .LVL67
     /tmp/ccMOzPL0.s:549    .text:00000000000003b8 .LVL68
     /tmp/ccMOzPL0.s:3994   .debug_str:0000000000000b62 .LASF153
     /tmp/ccMOzPL0.s:3806   .debug_str:00000000000004d5 .LASF154
     /tmp/ccMOzPL0.s:10     .text:0000000000000000 .LFB70
     /tmp/ccMOzPL0.s:41     .text:0000000000000034 .LFE70
     /tmp/ccMOzPL0.s:3509   .debug_loc:0000000000000069 .LLST0
     /tmp/ccMOzPL0.s:26     .text:0000000000000018 .LVL1
     /tmp/ccMOzPL0.s:3668   .debug_str:0000000000000121 .LASF155
     /tmp/ccMOzPL0.s:3926   .debug_str:0000000000000862 .LASF156
     /tmp/ccMOzPL0.s:328    .text:0000000000000234 .LFB69
     /tmp/ccMOzPL0.s:402    .text:00000000000002c0 .LFE69
     /tmp/ccMOzPL0.s:3523   .debug_loc:00000000000000a2 .LLST8
     /tmp/ccMOzPL0.s:342    .text:000000000000024c .LVL41
     /tmp/ccMOzPL0.s:347    .text:0000000000000258 .LVL42
     /tmp/ccMOzPL0.s:356    .text:0000000000000268 .LVL44
     /tmp/ccMOzPL0.s:367    .text:0000000000000280 .LVL46
     /tmp/ccMOzPL0.s:388    .text:00000000000002a4 .LVL49
     /tmp/ccMOzPL0.s:399    .text:00000000000002bc .LVL52
     /tmp/ccMOzPL0.s:3946   .debug_str:00000000000008ee .LASF157
     /tmp/ccMOzPL0.s:3816   .debug_str:000000000000052f .LASF158
     /tmp/ccMOzPL0.s:233    .text:0000000000000188 .LFB68
     /tmp/ccMOzPL0.s:322    .text:0000000000000234 .LFE68
     /tmp/ccMOzPL0.s:3740   .debug_str:000000000000031d .LASF159
     /tmp/ccMOzPL0.s:3542   .debug_loc:00000000000000fe .LLST5
     /tmp/ccMOzPL0.s:3742   .debug_str:0000000000000322 .LASF160
     /tmp/ccMOzPL0.s:3557   .debug_loc:0000000000000147 .LLST6
     /tmp/ccMOzPL0.s:3830   .debug_str:00000000000005a2 .LASF161
GAS LISTING /tmp/ccMOzPL0.s 			page 26


     /tmp/ccMOzPL0.s:3568   .debug_loc:000000000000017d .LLST7
     /tmp/ccMOzPL0.s:251    .text:00000000000001a8 .LVL25
     /tmp/ccMOzPL0.s:256    .text:00000000000001b4 .LVL26
     /tmp/ccMOzPL0.s:264    .text:00000000000001c4 .LVL29
     /tmp/ccMOzPL0.s:271    .text:00000000000001d4 .LVL31
     /tmp/ccMOzPL0.s:276    .text:00000000000001e0 .LVL32
     /tmp/ccMOzPL0.s:281    .text:00000000000001ec .LVL33
     /tmp/ccMOzPL0.s:292    .text:0000000000000204 .LVL35
     /tmp/ccMOzPL0.s:319    .text:0000000000000230 .LVL40
     /tmp/ccMOzPL0.s:3928   .debug_str:0000000000000877 .LASF162
     /tmp/ccMOzPL0.s:3678   .debug_str:0000000000000162 .LASF163
     /tmp/ccMOzPL0.s:132    .text:00000000000000cc .LFB67
     /tmp/ccMOzPL0.s:227    .text:0000000000000188 .LFE67
     /tmp/ccMOzPL0.s:3792   .debug_str:000000000000049c .LASF164
     /tmp/ccMOzPL0.s:149    .text:00000000000000e8 .LBB10
     /tmp/ccMOzPL0.s:183    .text:0000000000000134 .LBE10
     /tmp/ccMOzPL0.s:3579   .debug_loc:00000000000001b3 .LLST3
     /tmp/ccMOzPL0.s:166    .text:0000000000000108 .LVL17
     /tmp/ccMOzPL0.s:180    .text:0000000000000130 .LVL18
     /tmp/ccMOzPL0.s:184    .text:0000000000000134 .LBB11
     /tmp/ccMOzPL0.s:206    .text:0000000000000160 .LBE11
     /tmp/ccMOzPL0.s:3586   .debug_loc:00000000000001d6 .LLST4
     /tmp/ccMOzPL0.s:199    .text:0000000000000158 .LVL20
     /tmp/ccMOzPL0.s:148    .text:00000000000000e8 .LVL14
     /tmp/ccMOzPL0.s:213    .text:0000000000000174 .LVL23
     /tmp/ccMOzPL0.s:3942   .debug_str:00000000000008ca .LASF165
     /tmp/ccMOzPL0.s:3634   .debug_str:0000000000000000 .LASF166
     /tmp/ccMOzPL0.s:47     .text:0000000000000034 .LFB66
     /tmp/ccMOzPL0.s:126    .text:00000000000000cc .LFE66
     /tmp/ccMOzPL0.s:3597   .debug_loc:000000000000020c .LLST1
     /tmp/ccMOzPL0.s:3972   .debug_str:0000000000000a8f .LASF167
     /tmp/ccMOzPL0.s:3608   .debug_loc:0000000000000242 .LLST2
     /tmp/ccMOzPL0.s:63     .text:0000000000000050 .LVL2
     /tmp/ccMOzPL0.s:68     .text:000000000000005c .LVL3
     /tmp/ccMOzPL0.s:78     .text:0000000000000070 .LVL5
     /tmp/ccMOzPL0.s:89     .text:0000000000000088 .LVL7
     /tmp/ccMOzPL0.s:112    .text:00000000000000b0 .LVL10
     /tmp/ccMOzPL0.s:123    .text:00000000000000c8 .LVL13
     /tmp/ccMOzPL0.s:3796   .debug_str:00000000000004ad .LASF201
     /tmp/ccMOzPL0.s:3736   .debug_str:0000000000000308 .LASF168
     /tmp/ccMOzPL0.s:3644   .debug_str:0000000000000061 .LASF169
     /tmp/ccMOzPL0.s:3698   .debug_str:00000000000001e4 .LASF202
     /tmp/ccMOzPL0.s:3832   .debug_str:00000000000005a7 .LASF170
     /tmp/ccMOzPL0.s:3726   .debug_str:00000000000002c0 .LASF172
     /tmp/ccMOzPL0.s:3724   .debug_str:000000000000029f .LASF171
     /tmp/ccMOzPL0.s:3932   .debug_str:0000000000000898 .LASF173
     /tmp/ccMOzPL0.s:3936   .debug_str:00000000000008b2 .LASF174
     /tmp/ccMOzPL0.s:3674   .debug_str:0000000000000148 .LASF175
     /tmp/ccMOzPL0.s:3652   .debug_str:000000000000009e .LASF176
     /tmp/ccMOzPL0.s:3876   .debug_str:000000000000072a .LASF177
     /tmp/ccMOzPL0.s:4030   .debug_str:0000000000000c5f .LASF178
     /tmp/ccMOzPL0.s:4018   .debug_str:0000000000000c1e .LASF179
     /tmp/ccMOzPL0.s:3730   .debug_str:00000000000002e2 .LASF180
     /tmp/ccMOzPL0.s:3654   .debug_str:00000000000000b3 .LASF181
     /tmp/ccMOzPL0.s:3840   .debug_str:00000000000005fa .LASF182
     /tmp/ccMOzPL0.s:3640   .debug_str:000000000000003e .LASF183
     /tmp/ccMOzPL0.s:3766   .debug_str:00000000000003cf .LASF184
GAS LISTING /tmp/ccMOzPL0.s 			page 27


     /tmp/ccMOzPL0.s:3858   .debug_str:0000000000000697 .LASF185
     /tmp/ccMOzPL0.s:3750   .debug_str:0000000000000356 .LASF186
     /tmp/ccMOzPL0.s:3910   .debug_str:00000000000007f2 .LASF187
     /tmp/ccMOzPL0.s:3854   .debug_str:000000000000067e .LASF188
     /tmp/ccMOzPL0.s:3880   .debug_str:000000000000073f .LASF189
     /tmp/ccMOzPL0.s:437    .text:00000000000002e8 .LVL54
     /tmp/ccMOzPL0.s:447    .text:00000000000002ec .LVL55
     /tmp/ccMOzPL0.s:501    .text:0000000000000368 .LVL62
     /tmp/ccMOzPL0.s:526    .text:000000000000038c .LVL65
     /tmp/ccMOzPL0.s:14     .text:0000000000000000 .LVL0
     /tmp/ccMOzPL0.s:350    .text:000000000000025c .LVL43
     /tmp/ccMOzPL0.s:359    .text:000000000000026c .LVL45
     /tmp/ccMOzPL0.s:378    .text:0000000000000290 .LVL47
     /tmp/ccMOzPL0.s:386    .text:000000000000029c .LVL48
     /tmp/ccMOzPL0.s:390    .text:00000000000002a8 .LVL50
     /tmp/ccMOzPL0.s:397    .text:00000000000002b4 .LVL51
     /tmp/ccMOzPL0.s:258    .text:00000000000001b8 .LVL27
     /tmp/ccMOzPL0.s:262    .text:00000000000001bc .LVL28
     /tmp/ccMOzPL0.s:305    .text:0000000000000214 .LVL37
     /tmp/ccMOzPL0.s:309    .text:000000000000021c .LVL38
     /tmp/ccMOzPL0.s:266    .text:00000000000001c8 .LVL30
     /tmp/ccMOzPL0.s:302    .text:0000000000000210 .LVL36
     /tmp/ccMOzPL0.s:284    .text:00000000000001f0 .LVL34
     /tmp/ccMOzPL0.s:317    .text:0000000000000228 .LVL39
     /tmp/ccMOzPL0.s:153    .text:00000000000000f0 .LVL15
     /tmp/ccMOzPL0.s:187    .text:0000000000000138 .LVL19
     /tmp/ccMOzPL0.s:202    .text:000000000000015c .LVL21
     /tmp/ccMOzPL0.s:204    .text:0000000000000160 .LVL22
     /tmp/ccMOzPL0.s:222    .text:0000000000000180 .LVL24
     /tmp/ccMOzPL0.s:70     .text:0000000000000060 .LVL4
     /tmp/ccMOzPL0.s:99     .text:0000000000000094 .LVL8
     /tmp/ccMOzPL0.s:103    .text:000000000000009c .LVL9
     /tmp/ccMOzPL0.s:81     .text:0000000000000074 .LVL6
     /tmp/ccMOzPL0.s:114    .text:00000000000000b4 .LVL11
     /tmp/ccMOzPL0.s:121    .text:00000000000000c0 .LVL12
     /tmp/ccMOzPL0.s:582    .debug_info:0000000000000000 .Ldebug_info0

UNDEFINED SYMBOLS
_Z8userMainv
_ZN15MemoryAllocator8mem_initEv
_Z9mem_allocm
_Z8mem_freePv
_Z8printIntiii
_ZN5Riscv14supervisorTrapEv
_Z13thread_createPP3PCBPFvPvES2_
_ZN3PCB7runningE
_Z5uModev
_Z15thread_dispatchv
_Z11printStringPKc
_Z5sModev
_ZdaPv
_ZdlPv
