GAS LISTING /tmp/ccFJeCVk.s 			page 1


   1              		.file	"PCB.cpp"
   2              		.option pic
   3              		.option norelax
   4              		.text
   5              	.Ltext0:
   6              		.align	2
   7              		.globl	_ZN3PCB13threadWrapperEv
   9              	_ZN3PCB13threadWrapperEv:
  10              	.LFB47:
  11              		.file 1 "src/PCB.cpp"
   1:src/PCB.cpp   **** //
   2:src/PCB.cpp   **** // Created by marko on 20.4.22..
   3:src/PCB.cpp   **** //
   4:src/PCB.cpp   **** 
   5:src/PCB.cpp   **** #include "../h/PCB.hpp"
   6:src/PCB.cpp   **** #include "../h/riscv.hpp"
   7:src/PCB.cpp   **** 
   8:src/PCB.cpp   **** PCB *PCB::running = nullptr;
   9:src/PCB.cpp   **** 
  10:src/PCB.cpp   **** thread_t PCB::create_thread(Body body, void *arg, uint64 *stack_space) {
  11:src/PCB.cpp   ****     thread_t handle = (thread_t) MemoryAllocator::mem_alloc(sizeof(PCB));
  12:src/PCB.cpp   ****     handle->body = body;
  13:src/PCB.cpp   ****     handle->arg = arg;
  14:src/PCB.cpp   ****     handle->stack = stack_space;
  15:src/PCB.cpp   ****     if (body != nullptr)handle->context.ra = (uint64) &threadWrapper;
  16:src/PCB.cpp   ****     else handle->context.ra = 0;
  17:src/PCB.cpp   ****     if (stack_space != nullptr)handle->context.sp = (uint64) &stack_space[STACK_SIZE];
  18:src/PCB.cpp   ****     else handle->context.sp = 0;
  19:src/PCB.cpp   ****     handle->state = CREATED;
  20:src/PCB.cpp   ****     // handle->threadId = id++;
  21:src/PCB.cpp   ****     if (body != nullptr) { Scheduler::put(handle); }
  22:src/PCB.cpp   ****     return handle;
  23:src/PCB.cpp   **** 
  24:src/PCB.cpp   ****     // *handle = new PCB(body, arg, stack_space);
  25:src/PCB.cpp   ****     // if (!handle) return -1;
  26:src/PCB.cpp   ****     // return 0;
  27:src/PCB.cpp   **** }
  28:src/PCB.cpp   **** 
  29:src/PCB.cpp   **** 
  30:src/PCB.cpp   **** int PCB::thread_exit() {
  31:src/PCB.cpp   ****     if (running->state != FINISHED) {
  32:src/PCB.cpp   ****         running->setState(FINISHED);
  33:src/PCB.cpp   ****         thread_dispatch();
  34:src/PCB.cpp   ****         return 0;
  35:src/PCB.cpp   ****     } else return -1;
  36:src/PCB.cpp   **** }
  37:src/PCB.cpp   **** 
  38:src/PCB.cpp   **** void PCB::yield() {
  39:src/PCB.cpp   ****     uint64 code = 0x13;
  40:src/PCB.cpp   ****     __asm__ volatile ("mv a0,%0"::"r"(code));
  41:src/PCB.cpp   ****     __asm__ volatile("ecall");
  42:src/PCB.cpp   **** }
  43:src/PCB.cpp   **** 
  44:src/PCB.cpp   **** void PCB::dispatch() {
  45:src/PCB.cpp   ****     PCB *old = running;
  46:src/PCB.cpp   ****     if (old && old->state != FINISHED && old->state != BLOCKED) { Scheduler::put(old); }
  47:src/PCB.cpp   ****     running = Scheduler::get();
GAS LISTING /tmp/ccFJeCVk.s 			page 2


  48:src/PCB.cpp   **** 
  49:src/PCB.cpp   ****     if (old != running && running != nullptr) {
  50:src/PCB.cpp   ****         Riscv::pushRegisters();
  51:src/PCB.cpp   ****         contextSwitch(&old->context, &running->context);
  52:src/PCB.cpp   ****         Riscv::popRegisters();
  53:src/PCB.cpp   ****     }
  54:src/PCB.cpp   **** }
  55:src/PCB.cpp   **** 
  56:src/PCB.cpp   **** void PCB::threadWrapper() {
  12              		.loc 1 56 27
  13              		.cfi_startproc
  14 0000 130101FE 		addi	sp,sp,-32
  15              		.cfi_def_cfa_offset 32
  16 0004 233C1100 		sd	ra,24(sp)
  17 0008 23388100 		sd	s0,16(sp)
  18 000c 23349100 		sd	s1,8(sp)
  19              		.cfi_offset 1, -8
  20              		.cfi_offset 8, -16
  21              		.cfi_offset 9, -24
  22 0010 13040102 		addi	s0,sp,32
  23              		.cfi_def_cfa 8, 0
  57:src/PCB.cpp   ****     Riscv::popSppSpie();
  24              		.loc 1 57 5
  25              		.loc 1 57 22 is_stmt 0
  26 0014 97000000 		call	_ZN5Riscv10popSppSpieEv@plt
  26      E7800000 
  27              	.LVL0:
  58:src/PCB.cpp   ****     // if (running->body == nullptr)sMode();
  59:src/PCB.cpp   ****     // else uMode();
  60:src/PCB.cpp   ****     running->body(running->arg);
  28              		.loc 1 60 5 is_stmt 1
  29              		.loc 1 60 14 is_stmt 0
  30 001c 97040000 		lla	s1,.LANCHOR0
  30      93840400 
  31 0024 83B70400 		ld	a5,0(s1)
  32 0028 03B70700 		ld	a4,0(a5)
  33              		.loc 1 60 18
  34 002c 03B58700 		ld	a0,8(a5)
  35 0030 E7000700 		jalr	a4
  36              	.LVL1:
  61:src/PCB.cpp   ****     running->state = FINISHED;
  37              		.loc 1 61 5 is_stmt 1
  38              		.loc 1 61 14 is_stmt 0
  39 0034 83B70400 		ld	a5,0(s1)
  40              		.loc 1 61 20
  41 0038 13075000 		li	a4,5
  42 003c 23A8E702 		sw	a4,48(a5)
  62:src/PCB.cpp   ****     thread_dispatch();
  43              		.loc 1 62 5 is_stmt 1
  44              		.loc 1 62 20 is_stmt 0
  45 0040 97000000 		call	_Z15thread_dispatchv@plt
  45      E7800000 
  46              	.LVL2:
  63:src/PCB.cpp   **** }
  47              		.loc 1 63 1
  48 0048 83308101 		ld	ra,24(sp)
  49              		.cfi_restore 1
GAS LISTING /tmp/ccFJeCVk.s 			page 3


  50 004c 03340101 		ld	s0,16(sp)
  51              		.cfi_restore 8
  52              		.cfi_def_cfa 2, 32
  53 0050 83348100 		ld	s1,8(sp)
  54              		.cfi_restore 9
  55 0054 13010102 		addi	sp,sp,32
  56              		.cfi_def_cfa_offset 0
  57 0058 67800000 		jr	ra
  58              		.cfi_endproc
  59              	.LFE47:
  61              		.align	2
  62              		.globl	_ZN3PCB13create_threadEPFvPvES0_Pm
  64              	_ZN3PCB13create_threadEPFvPvES0_Pm:
  65              	.LFB43:
  10:src/PCB.cpp   ****     thread_t handle = (thread_t) MemoryAllocator::mem_alloc(sizeof(PCB));
  66              		.loc 1 10 72 is_stmt 1
  67              		.cfi_startproc
  68              	.LVL3:
  69 005c 130101FD 		addi	sp,sp,-48
  70              		.cfi_def_cfa_offset 48
  71 0060 23341102 		sd	ra,40(sp)
  72 0064 23308102 		sd	s0,32(sp)
  73 0068 233C9100 		sd	s1,24(sp)
  74 006c 23382101 		sd	s2,16(sp)
  75 0070 23343101 		sd	s3,8(sp)
  76 0074 23304101 		sd	s4,0(sp)
  77              		.cfi_offset 1, -8
  78              		.cfi_offset 8, -16
  79              		.cfi_offset 9, -24
  80              		.cfi_offset 18, -32
  81              		.cfi_offset 19, -40
  82              		.cfi_offset 20, -48
  83 0078 13040103 		addi	s0,sp,48
  84              		.cfi_def_cfa 8, 0
  85 007c 93090500 		mv	s3,a0
  86 0080 138A0500 		mv	s4,a1
  87 0084 13090600 		mv	s2,a2
  11:src/PCB.cpp   ****     handle->body = body;
  88              		.loc 1 11 5
  11:src/PCB.cpp   ****     handle->body = body;
  89              		.loc 1 11 60 is_stmt 0
  90 0088 13058004 		li	a0,72
  91              	.LVL4:
  92 008c 97000000 		call	_ZN15MemoryAllocator9mem_allocEm@plt
  92      E7800000 
  93              	.LVL5:
  94 0094 93040500 		mv	s1,a0
  95              	.LVL6:
  12:src/PCB.cpp   ****     handle->arg = arg;
  96              		.loc 1 12 5 is_stmt 1
  12:src/PCB.cpp   ****     handle->arg = arg;
  97              		.loc 1 12 18 is_stmt 0
  98 0098 23303501 		sd	s3,0(a0)
  13:src/PCB.cpp   ****     handle->stack = stack_space;
  99              		.loc 1 13 5 is_stmt 1
  13:src/PCB.cpp   ****     handle->stack = stack_space;
 100              		.loc 1 13 17 is_stmt 0
GAS LISTING /tmp/ccFJeCVk.s 			page 4


 101 009c 23344501 		sd	s4,8(a0)
  14:src/PCB.cpp   ****     if (body != nullptr)handle->context.ra = (uint64) &threadWrapper;
 102              		.loc 1 14 5 is_stmt 1
  14:src/PCB.cpp   ****     if (body != nullptr)handle->context.ra = (uint64) &threadWrapper;
 103              		.loc 1 14 19 is_stmt 0
 104 00a0 233C2501 		sd	s2,24(a0)
  15:src/PCB.cpp   ****     else handle->context.ra = 0;
 105              		.loc 1 15 5 is_stmt 1
 106 00a4 638C0904 		beqz	s3,.L4
  15:src/PCB.cpp   ****     else handle->context.ra = 0;
 107              		.loc 1 15 25 discriminator 1
  15:src/PCB.cpp   ****     else handle->context.ra = 0;
 108              		.loc 1 15 44 is_stmt 0 discriminator 1
 109 00a8 97070000 		lla	a5,_ZN3PCB13threadWrapperEv
 109      93870700 
 110 00b0 2330F502 		sd	a5,32(a0)
 111              	.L5:
  17:src/PCB.cpp   ****     else handle->context.sp = 0;
 112              		.loc 1 17 5 is_stmt 1
 113 00b4 63080904 		beqz	s2,.L6
  17:src/PCB.cpp   ****     else handle->context.sp = 0;
 114              		.loc 1 17 32 discriminator 1
  17:src/PCB.cpp   ****     else handle->context.sp = 0;
 115              		.loc 1 17 62 is_stmt 0 discriminator 1
 116 00b8 37860000 		li	a2,32768
 117 00bc 3309C900 		add	s2,s2,a2
 118              	.LVL7:
  17:src/PCB.cpp   ****     else handle->context.sp = 0;
 119              		.loc 1 17 51 discriminator 1
 120 00c0 23B42403 		sd	s2,40(s1)
 121              	.L7:
  19:src/PCB.cpp   ****     // handle->threadId = id++;
 122              		.loc 1 19 5 is_stmt 1
  19:src/PCB.cpp   ****     // handle->threadId = id++;
 123              		.loc 1 19 19 is_stmt 0
 124 00c4 23A80402 		sw	zero,48(s1)
  21:src/PCB.cpp   ****     return handle;
 125              		.loc 1 21 5 is_stmt 1
 126 00c8 63880900 		beqz	s3,.L3
  21:src/PCB.cpp   ****     return handle;
 127              		.loc 1 21 28 discriminator 1
  21:src/PCB.cpp   ****     return handle;
 128              		.loc 1 21 42 is_stmt 0 discriminator 1
 129 00cc 13850400 		mv	a0,s1
 130 00d0 97000000 		call	_ZN9Scheduler3putEP3PCB@plt
 130      E7800000 
 131              	.LVL8:
  22:src/PCB.cpp   **** 
 132              		.loc 1 22 5 is_stmt 1 discriminator 1
 133              	.L3:
  27:src/PCB.cpp   **** 
 134              		.loc 1 27 1 is_stmt 0
 135 00d8 13850400 		mv	a0,s1
 136 00dc 83308102 		ld	ra,40(sp)
 137              		.cfi_remember_state
 138              		.cfi_restore 1
 139 00e0 03340102 		ld	s0,32(sp)
GAS LISTING /tmp/ccFJeCVk.s 			page 5


 140              		.cfi_restore 8
 141              		.cfi_def_cfa 2, 48
 142 00e4 83348101 		ld	s1,24(sp)
 143              		.cfi_restore 9
 144              	.LVL9:
 145 00e8 03390101 		ld	s2,16(sp)
 146              		.cfi_restore 18
 147 00ec 83398100 		ld	s3,8(sp)
 148              		.cfi_restore 19
 149              	.LVL10:
 150 00f0 033A0100 		ld	s4,0(sp)
 151              		.cfi_restore 20
 152              	.LVL11:
 153 00f4 13010103 		addi	sp,sp,48
 154              		.cfi_def_cfa_offset 0
 155 00f8 67800000 		jr	ra
 156              	.LVL12:
 157              	.L4:
 158              		.cfi_restore_state
  16:src/PCB.cpp   ****     if (stack_space != nullptr)handle->context.sp = (uint64) &stack_space[STACK_SIZE];
 159              		.loc 1 16 10 is_stmt 1
  16:src/PCB.cpp   ****     if (stack_space != nullptr)handle->context.sp = (uint64) &stack_space[STACK_SIZE];
 160              		.loc 1 16 29 is_stmt 0
 161 00fc 23300502 		sd	zero,32(a0)
 162 0100 6FF05FFB 		j	.L5
 163              	.L6:
  18:src/PCB.cpp   ****     handle->state = CREATED;
 164              		.loc 1 18 10 is_stmt 1
  18:src/PCB.cpp   ****     handle->state = CREATED;
 165              		.loc 1 18 29 is_stmt 0
 166 0104 23B40402 		sd	zero,40(s1)
 167 0108 6FF0DFFB 		j	.L7
 168              		.cfi_endproc
 169              	.LFE43:
 171              		.align	2
 172              		.globl	_ZN3PCB11thread_exitEv
 174              	_ZN3PCB11thread_exitEv:
 175              	.LFB44:
  30:src/PCB.cpp   ****     if (running->state != FINISHED) {
 176              		.loc 1 30 24 is_stmt 1
 177              		.cfi_startproc
  31:src/PCB.cpp   ****         running->setState(FINISHED);
 178              		.loc 1 31 5
  31:src/PCB.cpp   ****         running->setState(FINISHED);
 179              		.loc 1 31 18 is_stmt 0
 180 010c 97070000 		ld	a5,.LANCHOR0
 180      83B70700 
 181 0114 83A60703 		lw	a3,48(a5)
  31:src/PCB.cpp   ****         running->setState(FINISHED);
 182              		.loc 1 31 5
 183 0118 13075000 		li	a4,5
 184 011c 638AE602 		beq	a3,a4,.L12
  30:src/PCB.cpp   ****     if (running->state != FINISHED) {
 185              		.loc 1 30 24
 186 0120 130101FF 		addi	sp,sp,-16
 187              		.cfi_def_cfa_offset 16
 188 0124 23341100 		sd	ra,8(sp)
GAS LISTING /tmp/ccFJeCVk.s 			page 6


 189 0128 23308100 		sd	s0,0(sp)
 190              		.cfi_offset 1, -8
 191              		.cfi_offset 8, -16
 192 012c 13040101 		addi	s0,sp,16
 193              		.cfi_def_cfa 8, 0
  32:src/PCB.cpp   ****         thread_dispatch();
 194              		.loc 1 32 9 is_stmt 1
 195              	.LVL13:
 196              	.LBB4:
 197              	.LBB5:
 198              		.file 2 "src/../h/PCB.hpp"
   1:src/../h/PCB.hpp **** //
   2:src/../h/PCB.hpp **** // Created by marko on 20.4.22..
   3:src/../h/PCB.hpp **** //
   4:src/../h/PCB.hpp **** 
   5:src/../h/PCB.hpp **** #ifndef OS1_VEZBE07_RISCV_CONTEXT_SWITCH_1_SYNCHRONOUS_CCB_HPP
   6:src/../h/PCB.hpp **** #define OS1_VEZBE07_RISCV_CONTEXT_SWITCH_1_SYNCHRONOUS_CCB_HPP
   7:src/../h/PCB.hpp **** 
   8:src/../h/PCB.hpp **** 
   9:src/../h/PCB.hpp **** #include "../lib/hw.h"
  10:src/../h/PCB.hpp **** #include "scheduler.hpp"
  11:src/../h/PCB.hpp **** #include "../h/syscall_c.hpp"
  12:src/../h/PCB.hpp **** #include "MemoryAllocator.hpp"
  13:src/../h/PCB.hpp **** // static int id = 0;
  14:src/../h/PCB.hpp **** 
  15:src/../h/PCB.hpp **** class PCB {
  16:src/../h/PCB.hpp **** public:
  17:src/../h/PCB.hpp ****     ~PCB() { delete[] stack; }
  18:src/../h/PCB.hpp **** 
  19:src/../h/PCB.hpp ****     enum threadState {
  20:src/../h/PCB.hpp ****         CREATED, READY, RUNNING, SLEEPING, BLOCKED, FINISHED, IDLE
  21:src/../h/PCB.hpp ****     };
  22:src/../h/PCB.hpp **** 
  23:src/../h/PCB.hpp ****     bool isSystem() const { return system; }
  24:src/../h/PCB.hpp **** 
  25:src/../h/PCB.hpp ****     void setSystem(bool value) { system = value; }
  26:src/../h/PCB.hpp **** 
  27:src/../h/PCB.hpp ****     bool isParentWaitng() const { return isWaiting; }
  28:src/../h/PCB.hpp **** 
  29:src/../h/PCB.hpp ****     void parentNotWaitng() { isWaiting = false; }
  30:src/../h/PCB.hpp **** 
  31:src/../h/PCB.hpp ****     PCB *getParent() const { return parent; }
  32:src/../h/PCB.hpp **** 
  33:src/../h/PCB.hpp ****     void setParent(PCB *pcb) { parent = pcb; }
  34:src/../h/PCB.hpp **** 
  35:src/../h/PCB.hpp ****     using Body = void (*)(void *);
  36:src/../h/PCB.hpp **** 
  37:src/../h/PCB.hpp ****     static thread_t create_thread(Body body, void *arg, uint64 *stack_space);
  38:src/../h/PCB.hpp **** 
  39:src/../h/PCB.hpp ****     static void yield();
  40:src/../h/PCB.hpp **** 
  41:src/../h/PCB.hpp ****     static void dispatch();
  42:src/../h/PCB.hpp **** 
  43:src/../h/PCB.hpp ****     threadState getState() const { return state; }
  44:src/../h/PCB.hpp **** 
  45:src/../h/PCB.hpp ****     void setState(threadState st) { state = st; }
 199              		.loc 2 45 37
GAS LISTING /tmp/ccFJeCVk.s 			page 7


 200              		.loc 2 45 43 is_stmt 0
 201 0130 23A8E702 		sw	a4,48(a5)
 202              	.LVL14:
 203              	.LBE5:
 204              	.LBE4:
  33:src/PCB.cpp   ****         return 0;
 205              		.loc 1 33 9 is_stmt 1
  33:src/PCB.cpp   ****         return 0;
 206              		.loc 1 33 24 is_stmt 0
 207 0134 97000000 		call	_Z15thread_dispatchv@plt
 207      E7800000 
 208              	.LVL15:
  34:src/PCB.cpp   ****     } else return -1;
 209              		.loc 1 34 9 is_stmt 1
  34:src/PCB.cpp   ****     } else return -1;
 210              		.loc 1 34 16 is_stmt 0
 211 013c 13050000 		li	a0,0
  36:src/PCB.cpp   **** 
 212              		.loc 1 36 1
 213 0140 83308100 		ld	ra,8(sp)
 214              		.cfi_restore 1
 215 0144 03340100 		ld	s0,0(sp)
 216              		.cfi_restore 8
 217              		.cfi_def_cfa 2, 16
 218 0148 13010101 		addi	sp,sp,16
 219              		.cfi_def_cfa_offset 0
 220 014c 67800000 		jr	ra
 221              	.L12:
  35:src/PCB.cpp   **** }
 222              		.loc 1 35 20
 223 0150 1305F0FF 		li	a0,-1
  36:src/PCB.cpp   **** 
 224              		.loc 1 36 1
 225 0154 67800000 		ret
 226              		.cfi_endproc
 227              	.LFE44:
 229              		.align	2
 230              		.globl	_ZN3PCB5yieldEv
 232              	_ZN3PCB5yieldEv:
 233              	.LFB45:
  38:src/PCB.cpp   ****     uint64 code = 0x13;
 234              		.loc 1 38 19 is_stmt 1
 235              		.cfi_startproc
 236 0158 130101FF 		addi	sp,sp,-16
 237              		.cfi_def_cfa_offset 16
 238 015c 23348100 		sd	s0,8(sp)
 239              		.cfi_offset 8, -8
 240 0160 13040101 		addi	s0,sp,16
 241              		.cfi_def_cfa 8, 0
  39:src/PCB.cpp   ****     __asm__ volatile ("mv a0,%0"::"r"(code));
 242              		.loc 1 39 5
 243              	.LVL16:
  40:src/PCB.cpp   ****     __asm__ volatile("ecall");
 244              		.loc 1 40 5
  40:src/PCB.cpp   ****     __asm__ volatile("ecall");
 245              		.loc 1 40 45 is_stmt 0
 246 0164 93073001 		li	a5,19
GAS LISTING /tmp/ccFJeCVk.s 			page 8


 247              	#APP
 248              	# 40 "src/PCB.cpp" 1
  41:src/PCB.cpp   **** }
 249              		mv a0,a5
 250              	# 0 "" 2
 251              		.loc 1 41 5 is_stmt 1
  41:src/PCB.cpp   **** }
 252              		.loc 1 41 30 is_stmt 0
 253              	# 41 "src/PCB.cpp" 1
  42:src/PCB.cpp   **** 
 254              		ecall
 255              	# 0 "" 2
 256              		.loc 1 42 1
 257              	#NO_APP
 258 0170 03348100 		ld	s0,8(sp)
 259              		.cfi_restore 8
 260              		.cfi_def_cfa 2, 16
 261 0174 13010101 		addi	sp,sp,16
 262              		.cfi_def_cfa_offset 0
 263 0178 67800000 		jr	ra
 264              		.cfi_endproc
 265              	.LFE45:
 267              		.align	2
 268              		.globl	_ZN3PCB8dispatchEv
 270              	_ZN3PCB8dispatchEv:
 271              	.LFB46:
  44:src/PCB.cpp   ****     PCB *old = running;
 272              		.loc 1 44 22 is_stmt 1
 273              		.cfi_startproc
 274 017c 130101FE 		addi	sp,sp,-32
 275              		.cfi_def_cfa_offset 32
 276 0180 233C1100 		sd	ra,24(sp)
 277 0184 23388100 		sd	s0,16(sp)
 278 0188 23349100 		sd	s1,8(sp)
 279              		.cfi_offset 1, -8
 280              		.cfi_offset 8, -16
 281              		.cfi_offset 9, -24
 282 018c 13040102 		addi	s0,sp,32
 283              		.cfi_def_cfa 8, 0
  45:src/PCB.cpp   ****     if (old && old->state != FINISHED && old->state != BLOCKED) { Scheduler::put(old); }
 284              		.loc 1 45 5
  45:src/PCB.cpp   ****     if (old && old->state != FINISHED && old->state != BLOCKED) { Scheduler::put(old); }
 285              		.loc 1 45 10 is_stmt 0
 286 0190 97040000 		ld	s1,.LANCHOR0
 286      83B40400 
 287              	.LVL17:
  46:src/PCB.cpp   ****     running = Scheduler::get();
 288              		.loc 1 46 5 is_stmt 1
 289 0198 638C0400 		beqz	s1,.L20
  46:src/PCB.cpp   ****     running = Scheduler::get();
 290              		.loc 1 46 21 is_stmt 0 discriminator 1
 291 019c 83A70403 		lw	a5,48(s1)
  46:src/PCB.cpp   ****     running = Scheduler::get();
 292              		.loc 1 46 13 discriminator 1
 293 01a0 13075000 		li	a4,5
 294 01a4 6386E700 		beq	a5,a4,.L20
  46:src/PCB.cpp   ****     running = Scheduler::get();
GAS LISTING /tmp/ccFJeCVk.s 			page 9


 295              		.loc 1 46 39 discriminator 2
 296 01a8 13074000 		li	a4,4
 297 01ac 639CE704 		bne	a5,a4,.L23
 298              	.L20:
  47:src/PCB.cpp   **** 
 299              		.loc 1 47 5 is_stmt 1
  47:src/PCB.cpp   **** 
 300              		.loc 1 47 29 is_stmt 0
 301 01b0 97000000 		call	_ZN9Scheduler3getEv@plt
 301      E7800000 
 302              	.LVL18:
  47:src/PCB.cpp   **** 
 303              		.loc 1 47 13
 304 01b8 97070000 		sd	a0,.LANCHOR0,a5
 304      23B0A700 
  49:src/PCB.cpp   ****         Riscv::pushRegisters();
 305              		.loc 1 49 5 is_stmt 1
 306 01c0 6388A402 		beq	s1,a0,.L19
  49:src/PCB.cpp   ****         Riscv::pushRegisters();
 307              		.loc 1 49 24 is_stmt 0 discriminator 1
 308 01c4 63060502 		beqz	a0,.L19
  50:src/PCB.cpp   ****         contextSwitch(&old->context, &running->context);
 309              		.loc 1 50 9 is_stmt 1
  50:src/PCB.cpp   ****         contextSwitch(&old->context, &running->context);
 310              		.loc 1 50 29 is_stmt 0
 311 01c8 97000000 		call	_ZN5Riscv13pushRegistersEv@plt
 311      E7800000 
 312              	.LVL19:
  51:src/PCB.cpp   ****         Riscv::popRegisters();
 313              		.loc 1 51 9 is_stmt 1
  51:src/PCB.cpp   ****         Riscv::popRegisters();
 314              		.loc 1 51 22 is_stmt 0
 315 01d0 97050000 		ld	a1,.LANCHOR0
 315      83B50500 
 316 01d8 93850502 		addi	a1,a1,32
 317 01dc 13850402 		addi	a0,s1,32
 318 01e0 97000000 		call	_ZN3PCB13contextSwitchEPNS_7ContextES1_@plt
 318      E7800000 
 319              	.LVL20:
  52:src/PCB.cpp   ****     }
 320              		.loc 1 52 9 is_stmt 1
  52:src/PCB.cpp   ****     }
 321              		.loc 1 52 28 is_stmt 0
 322 01e8 97000000 		call	_ZN5Riscv12popRegistersEv@plt
 322      E7800000 
 323              	.LVL21:
 324              	.L19:
  54:src/PCB.cpp   **** 
 325              		.loc 1 54 1
 326 01f0 83308101 		ld	ra,24(sp)
 327              		.cfi_remember_state
 328              		.cfi_restore 1
 329 01f4 03340101 		ld	s0,16(sp)
 330              		.cfi_restore 8
 331              		.cfi_def_cfa 2, 32
 332 01f8 83348100 		ld	s1,8(sp)
 333              		.cfi_restore 9
GAS LISTING /tmp/ccFJeCVk.s 			page 10


 334              	.LVL22:
 335 01fc 13010102 		addi	sp,sp,32
 336              		.cfi_def_cfa_offset 0
 337 0200 67800000 		jr	ra
 338              	.LVL23:
 339              	.L23:
 340              		.cfi_restore_state
  46:src/PCB.cpp   ****     running = Scheduler::get();
 341              		.loc 1 46 67 is_stmt 1 discriminator 3
  46:src/PCB.cpp   ****     running = Scheduler::get();
 342              		.loc 1 46 81 is_stmt 0 discriminator 3
 343 0204 13850400 		mv	a0,s1
 344 0208 97000000 		call	_ZN9Scheduler3putEP3PCB@plt
 344      E7800000 
 345              	.LVL24:
 346 0210 6FF01FFA 		j	.L20
 347              		.cfi_endproc
 348              	.LFE46:
 350              		.globl	_ZN3PCB7runningE
 351              		.bss
 352              		.align	3
 353              		.set	.LANCHOR0,. + 0
 356              	_ZN3PCB7runningE:
 357 0000 00000000 		.zero	8
 357      00000000 
 358              		.text
 359              	.Letext0:
 360              		.file 3 "src/../h/../lib/hw.h"
 361              		.file 4 "src/../h/../h/syscall_c.hpp"
 362              		.file 5 "src/../h/MemoryAllocator.hpp"
 363              		.file 6 "src/../h/scheduler.hpp"
 364              		.file 7 "src/../h/riscv.hpp"
GAS LISTING /tmp/ccFJeCVk.s 			page 11


DEFINED SYMBOLS
                            *ABS*:0000000000000000 PCB.cpp
     /tmp/ccFJeCVk.s:9      .text:0000000000000000 _ZN3PCB13threadWrapperEv
     /tmp/ccFJeCVk.s:13     .text:0000000000000000 .L0 
     /tmp/ccFJeCVk.s:14     .text:0000000000000000 .L0 
     /tmp/ccFJeCVk.s:15     .text:0000000000000004 .L0 
     /tmp/ccFJeCVk.s:19     .text:0000000000000010 .L0 
     /tmp/ccFJeCVk.s:20     .text:0000000000000010 .L0 
     /tmp/ccFJeCVk.s:21     .text:0000000000000010 .L0 
     /tmp/ccFJeCVk.s:23     .text:0000000000000014 .L0 
     /tmp/ccFJeCVk.s:25     .text:0000000000000014 .L0 
     /tmp/ccFJeCVk.s:26     .text:0000000000000014 .L0 
     /tmp/ccFJeCVk.s:29     .text:000000000000001c .L0 
     /tmp/ccFJeCVk.s:30     .text:000000000000001c .L0 
     /tmp/ccFJeCVk.s:34     .text:000000000000002c .L0 
     /tmp/ccFJeCVk.s:38     .text:0000000000000034 .L0 
     /tmp/ccFJeCVk.s:39     .text:0000000000000034 .L0 
     /tmp/ccFJeCVk.s:41     .text:0000000000000038 .L0 
     /tmp/ccFJeCVk.s:44     .text:0000000000000040 .L0 
     /tmp/ccFJeCVk.s:45     .text:0000000000000040 .L0 
     /tmp/ccFJeCVk.s:48     .text:0000000000000048 .L0 
     /tmp/ccFJeCVk.s:49     .text:000000000000004c .L0 
     /tmp/ccFJeCVk.s:51     .text:0000000000000050 .L0 
     /tmp/ccFJeCVk.s:52     .text:0000000000000050 .L0 
     /tmp/ccFJeCVk.s:54     .text:0000000000000054 .L0 
     /tmp/ccFJeCVk.s:56     .text:0000000000000058 .L0 
     /tmp/ccFJeCVk.s:58     .text:000000000000005c .L0 
     /tmp/ccFJeCVk.s:64     .text:000000000000005c _ZN3PCB13create_threadEPFvPvES0_Pm
     /tmp/ccFJeCVk.s:67     .text:000000000000005c .L0 
     /tmp/ccFJeCVk.s:69     .text:000000000000005c .L0 
     /tmp/ccFJeCVk.s:70     .text:0000000000000060 .L0 
     /tmp/ccFJeCVk.s:77     .text:0000000000000078 .L0 
     /tmp/ccFJeCVk.s:78     .text:0000000000000078 .L0 
     /tmp/ccFJeCVk.s:79     .text:0000000000000078 .L0 
     /tmp/ccFJeCVk.s:80     .text:0000000000000078 .L0 
     /tmp/ccFJeCVk.s:81     .text:0000000000000078 .L0 
     /tmp/ccFJeCVk.s:82     .text:0000000000000078 .L0 
     /tmp/ccFJeCVk.s:84     .text:000000000000007c .L0 
     /tmp/ccFJeCVk.s:89     .text:0000000000000088 .L0 
     /tmp/ccFJeCVk.s:90     .text:0000000000000088 .L0 
     /tmp/ccFJeCVk.s:97     .text:0000000000000098 .L0 
     /tmp/ccFJeCVk.s:98     .text:0000000000000098 .L0 
     /tmp/ccFJeCVk.s:100    .text:000000000000009c .L0 
     /tmp/ccFJeCVk.s:101    .text:000000000000009c .L0 
     /tmp/ccFJeCVk.s:103    .text:00000000000000a0 .L0 
     /tmp/ccFJeCVk.s:104    .text:00000000000000a0 .L0 
     /tmp/ccFJeCVk.s:106    .text:00000000000000a4 .L0 
     /tmp/ccFJeCVk.s:108    .text:00000000000000a8 .L0 
     /tmp/ccFJeCVk.s:109    .text:00000000000000a8 .L0 
     /tmp/ccFJeCVk.s:113    .text:00000000000000b4 .L0 
     /tmp/ccFJeCVk.s:115    .text:00000000000000b8 .L0 
     /tmp/ccFJeCVk.s:116    .text:00000000000000b8 .L0 
     /tmp/ccFJeCVk.s:120    .text:00000000000000c0 .L0 
     /tmp/ccFJeCVk.s:123    .text:00000000000000c4 .L0 
     /tmp/ccFJeCVk.s:124    .text:00000000000000c4 .L0 
     /tmp/ccFJeCVk.s:126    .text:00000000000000c8 .L0 
     /tmp/ccFJeCVk.s:128    .text:00000000000000cc .L0 
GAS LISTING /tmp/ccFJeCVk.s 			page 12


     /tmp/ccFJeCVk.s:129    .text:00000000000000cc .L0 
     /tmp/ccFJeCVk.s:134    .text:00000000000000d8 .L0 
     /tmp/ccFJeCVk.s:135    .text:00000000000000d8 .L0 
     /tmp/ccFJeCVk.s:137    .text:00000000000000e0 .L0 
     /tmp/ccFJeCVk.s:138    .text:00000000000000e0 .L0 
     /tmp/ccFJeCVk.s:140    .text:00000000000000e4 .L0 
     /tmp/ccFJeCVk.s:141    .text:00000000000000e4 .L0 
     /tmp/ccFJeCVk.s:143    .text:00000000000000e8 .L0 
     /tmp/ccFJeCVk.s:146    .text:00000000000000ec .L0 
     /tmp/ccFJeCVk.s:148    .text:00000000000000f0 .L0 
     /tmp/ccFJeCVk.s:151    .text:00000000000000f4 .L0 
     /tmp/ccFJeCVk.s:154    .text:00000000000000f8 .L0 
     /tmp/ccFJeCVk.s:158    .text:00000000000000fc .L0 
     /tmp/ccFJeCVk.s:160    .text:00000000000000fc .L0 
     /tmp/ccFJeCVk.s:161    .text:00000000000000fc .L0 
     /tmp/ccFJeCVk.s:165    .text:0000000000000104 .L0 
     /tmp/ccFJeCVk.s:166    .text:0000000000000104 .L0 
     /tmp/ccFJeCVk.s:168    .text:000000000000010c .L0 
     /tmp/ccFJeCVk.s:174    .text:000000000000010c _ZN3PCB11thread_exitEv
     /tmp/ccFJeCVk.s:177    .text:000000000000010c .L0 
     /tmp/ccFJeCVk.s:178    .text:000000000000010c .L0 
     /tmp/ccFJeCVk.s:179    .text:000000000000010c .L0 
     /tmp/ccFJeCVk.s:180    .text:000000000000010c .L0 
     /tmp/ccFJeCVk.s:183    .text:0000000000000118 .L0 
     /tmp/ccFJeCVk.s:186    .text:0000000000000120 .L0 
     /tmp/ccFJeCVk.s:187    .text:0000000000000124 .L0 
     /tmp/ccFJeCVk.s:190    .text:000000000000012c .L0 
     /tmp/ccFJeCVk.s:191    .text:000000000000012c .L0 
     /tmp/ccFJeCVk.s:193    .text:0000000000000130 .L0 
     /tmp/ccFJeCVk.s:199    .text:0000000000000130 .L0 
     /tmp/ccFJeCVk.s:200    .text:0000000000000130 .L0 
     /tmp/ccFJeCVk.s:201    .text:0000000000000130 .L0 
     /tmp/ccFJeCVk.s:206    .text:0000000000000134 .L0 
     /tmp/ccFJeCVk.s:207    .text:0000000000000134 .L0 
     /tmp/ccFJeCVk.s:210    .text:000000000000013c .L0 
     /tmp/ccFJeCVk.s:211    .text:000000000000013c .L0 
     /tmp/ccFJeCVk.s:213    .text:0000000000000140 .L0 
     /tmp/ccFJeCVk.s:214    .text:0000000000000144 .L0 
     /tmp/ccFJeCVk.s:216    .text:0000000000000148 .L0 
     /tmp/ccFJeCVk.s:217    .text:0000000000000148 .L0 
     /tmp/ccFJeCVk.s:219    .text:000000000000014c .L0 
     /tmp/ccFJeCVk.s:223    .text:0000000000000150 .L0 
     /tmp/ccFJeCVk.s:225    .text:0000000000000154 .L0 
     /tmp/ccFJeCVk.s:226    .text:0000000000000158 .L0 
     /tmp/ccFJeCVk.s:232    .text:0000000000000158 _ZN3PCB5yieldEv
     /tmp/ccFJeCVk.s:235    .text:0000000000000158 .L0 
     /tmp/ccFJeCVk.s:236    .text:0000000000000158 .L0 
     /tmp/ccFJeCVk.s:237    .text:000000000000015c .L0 
     /tmp/ccFJeCVk.s:239    .text:0000000000000160 .L0 
     /tmp/ccFJeCVk.s:241    .text:0000000000000164 .L0 
     /tmp/ccFJeCVk.s:244    .text:0000000000000164 .L0 
     /tmp/ccFJeCVk.s:245    .text:0000000000000164 .L0 
     /tmp/ccFJeCVk.s:246    .text:0000000000000164 .L0 
     /tmp/ccFJeCVk.s:252    .text:000000000000016c .L0 
         src/PCB.cpp:41     .text:000000000000016c .L0 
     /tmp/ccFJeCVk.s:258    .text:0000000000000170 .L0 
     /tmp/ccFJeCVk.s:259    .text:0000000000000174 .L0 
GAS LISTING /tmp/ccFJeCVk.s 			page 13


     /tmp/ccFJeCVk.s:260    .text:0000000000000174 .L0 
     /tmp/ccFJeCVk.s:262    .text:0000000000000178 .L0 
     /tmp/ccFJeCVk.s:264    .text:000000000000017c .L0 
     /tmp/ccFJeCVk.s:270    .text:000000000000017c _ZN3PCB8dispatchEv
     /tmp/ccFJeCVk.s:273    .text:000000000000017c .L0 
     /tmp/ccFJeCVk.s:274    .text:000000000000017c .L0 
     /tmp/ccFJeCVk.s:275    .text:0000000000000180 .L0 
     /tmp/ccFJeCVk.s:279    .text:000000000000018c .L0 
     /tmp/ccFJeCVk.s:280    .text:000000000000018c .L0 
     /tmp/ccFJeCVk.s:281    .text:000000000000018c .L0 
     /tmp/ccFJeCVk.s:283    .text:0000000000000190 .L0 
     /tmp/ccFJeCVk.s:285    .text:0000000000000190 .L0 
     /tmp/ccFJeCVk.s:286    .text:0000000000000190 .L0 
     /tmp/ccFJeCVk.s:289    .text:0000000000000198 .L0 
     /tmp/ccFJeCVk.s:291    .text:000000000000019c .L0 
     /tmp/ccFJeCVk.s:293    .text:00000000000001a0 .L0 
     /tmp/ccFJeCVk.s:296    .text:00000000000001a8 .L0 
     /tmp/ccFJeCVk.s:300    .text:00000000000001b0 .L0 
     /tmp/ccFJeCVk.s:301    .text:00000000000001b0 .L0 
     /tmp/ccFJeCVk.s:304    .text:00000000000001b8 .L0 
     /tmp/ccFJeCVk.s:306    .text:00000000000001c0 .L0 
     /tmp/ccFJeCVk.s:308    .text:00000000000001c4 .L0 
     /tmp/ccFJeCVk.s:310    .text:00000000000001c8 .L0 
     /tmp/ccFJeCVk.s:311    .text:00000000000001c8 .L0 
     /tmp/ccFJeCVk.s:314    .text:00000000000001d0 .L0 
     /tmp/ccFJeCVk.s:315    .text:00000000000001d0 .L0 
     /tmp/ccFJeCVk.s:321    .text:00000000000001e8 .L0 
     /tmp/ccFJeCVk.s:322    .text:00000000000001e8 .L0 
     /tmp/ccFJeCVk.s:326    .text:00000000000001f0 .L0 
     /tmp/ccFJeCVk.s:327    .text:00000000000001f4 .L0 
     /tmp/ccFJeCVk.s:328    .text:00000000000001f4 .L0 
     /tmp/ccFJeCVk.s:330    .text:00000000000001f8 .L0 
     /tmp/ccFJeCVk.s:331    .text:00000000000001f8 .L0 
     /tmp/ccFJeCVk.s:333    .text:00000000000001fc .L0 
     /tmp/ccFJeCVk.s:336    .text:0000000000000200 .L0 
     /tmp/ccFJeCVk.s:340    .text:0000000000000204 .L0 
     /tmp/ccFJeCVk.s:342    .text:0000000000000204 .L0 
     /tmp/ccFJeCVk.s:343    .text:0000000000000204 .L0 
     /tmp/ccFJeCVk.s:347    .text:0000000000000214 .L0 
     /tmp/ccFJeCVk.s:356    .bss:0000000000000000 _ZN3PCB7runningE
     /tmp/ccFJeCVk.s:353    .bss:0000000000000000 .LANCHOR0
     /tmp/ccFJeCVk.s:365    .text:0000000000000214 .L0 
     /tmp/ccFJeCVk.s:30     .text:000000000000001c .L0 
     /tmp/ccFJeCVk.s:109    .text:00000000000000a8 .L0 
     /tmp/ccFJeCVk.s:180    .text:000000000000010c .L0 
     /tmp/ccFJeCVk.s:286    .text:0000000000000190 .L0 
     /tmp/ccFJeCVk.s:304    .text:00000000000001b8 .L0 
     /tmp/ccFJeCVk.s:315    .text:00000000000001d0 .L0 
     /tmp/ccFJeCVk.s:157    .text:00000000000000fc .L4
     /tmp/ccFJeCVk.s:163    .text:0000000000000104 .L6
     /tmp/ccFJeCVk.s:133    .text:00000000000000d8 .L3
     /tmp/ccFJeCVk.s:111    .text:00000000000000b4 .L5
     /tmp/ccFJeCVk.s:121    .text:00000000000000c4 .L7
     /tmp/ccFJeCVk.s:221    .text:0000000000000150 .L12
     /tmp/ccFJeCVk.s:298    .text:00000000000001b0 .L20
     /tmp/ccFJeCVk.s:339    .text:0000000000000204 .L23
     /tmp/ccFJeCVk.s:324    .text:00000000000001f0 .L19
GAS LISTING /tmp/ccFJeCVk.s 			page 14


     /tmp/ccFJeCVk.s:1493   .debug_abbrev:0000000000000000 .Ldebug_abbrev0
     /tmp/ccFJeCVk.s:2807   .debug_str:0000000000000721 .LASF142
     /tmp/ccFJeCVk.s:2693   .debug_str:00000000000003e6 .LASF143
     /tmp/ccFJeCVk.s:2697   .debug_str:000000000000040a .LASF144
     /tmp/ccFJeCVk.s:5      .text:0000000000000000 .Ltext0
     /tmp/ccFJeCVk.s:359    .text:0000000000000214 .Letext0
     /tmp/ccFJeCVk.s:2555   .debug_line:0000000000000000 .Ldebug_line0
     /tmp/ccFJeCVk.s:2727   .debug_str:0000000000000507 .LASF0
     /tmp/ccFJeCVk.s:2743   .debug_str:0000000000000564 .LASF1
     /tmp/ccFJeCVk.s:2707   .debug_str:0000000000000469 .LASF2
     /tmp/ccFJeCVk.s:2673   .debug_str:000000000000036f .LASF4
     /tmp/ccFJeCVk.s:2781   .debug_str:000000000000066b .LASF3
     /tmp/ccFJeCVk.s:2591   .debug_str:00000000000000fd .LASF5
     /tmp/ccFJeCVk.s:2625   .debug_str:0000000000000211 .LASF6
     /tmp/ccFJeCVk.s:2747   .debug_str:000000000000058f .LASF7
     /tmp/ccFJeCVk.s:2725   .debug_str:00000000000004f4 .LASF8
     /tmp/ccFJeCVk.s:2825   .debug_str:0000000000000899 .LASF9
     /tmp/ccFJeCVk.s:2657   .debug_str:00000000000002cd .LASF10
     /tmp/ccFJeCVk.s:2757   .debug_str:00000000000005d3 .LASF11
     /tmp/ccFJeCVk.s:2811   .debug_str:00000000000007ed .LASF12
     /tmp/ccFJeCVk.s:2597   .debug_str:0000000000000119 .LASF13
     /tmp/ccFJeCVk.s:2567   .debug_str:000000000000003e .LASF14
     /tmp/ccFJeCVk.s:2611   .debug_str:00000000000001a8 .LASF15
     /tmp/ccFJeCVk.s:2773   .debug_str:0000000000000630 .LASF16
     /tmp/ccFJeCVk.s:2619   .debug_str:00000000000001de .LASF17
     /tmp/ccFJeCVk.s:2753   .debug_str:00000000000005c3 .LASF18
     /tmp/ccFJeCVk.s:2833   .debug_str:00000000000008d9 .LASF145
     /tmp/ccFJeCVk.s:2669   .debug_str:0000000000000340 .LASF146
     /tmp/ccFJeCVk.s:2695   .debug_str:00000000000003f2 .LASF147
     /tmp/ccFJeCVk.s:2685   .debug_str:00000000000003b2 .LASF148
     /tmp/ccFJeCVk.s:2641   .debug_str:0000000000000274 .LASF149
     /tmp/ccFJeCVk.s:2809   .debug_str:00000000000007e5 .LASF19
     /tmp/ccFJeCVk.s:2755   .debug_str:00000000000005cd .LASF20
     /tmp/ccFJeCVk.s:2749   .debug_str:00000000000005a2 .LASF21
     /tmp/ccFJeCVk.s:2573   .debug_str:0000000000000060 .LASF22
     /tmp/ccFJeCVk.s:2675   .debug_str:0000000000000376 .LASF23
     /tmp/ccFJeCVk.s:2791   .debug_str:00000000000006bf .LASF24
     /tmp/ccFJeCVk.s:2643   .debug_str:0000000000000280 .LASF25
     /tmp/ccFJeCVk.s:2571   .debug_str:0000000000000058 .LASF26
     /tmp/ccFJeCVk.s:2639   .debug_str:000000000000025f .LASF66
     /tmp/ccFJeCVk.s:2793   .debug_str:00000000000006c8 .LASF63
     /tmp/ccFJeCVk.s:2767   .debug_str:0000000000000617 .LASF27
     /tmp/ccFJeCVk.s:2601   .debug_str:0000000000000149 .LASF29
     /tmp/ccFJeCVk.s:2797   .debug_str:00000000000006f1 .LASF31
     /tmp/ccFJeCVk.s:2765   .debug_str:0000000000000603 .LASF33
     /tmp/ccFJeCVk.s:2569   .debug_str:000000000000004e .LASF28
     /tmp/ccFJeCVk.s:2737   .debug_str:0000000000000540 .LASF30
     /tmp/ccFJeCVk.s:2709   .debug_str:0000000000000477 .LASF32
     /tmp/ccFJeCVk.s:2671   .debug_str:0000000000000354 .LASF34
     /tmp/ccFJeCVk.s:2687   .debug_str:00000000000003bc .LASF35
     /tmp/ccFJeCVk.s:2815   .debug_str:0000000000000825 .LASF36
     /tmp/ccFJeCVk.s:2593   .debug_str:0000000000000104 .LASF37
     /tmp/ccFJeCVk.s:2627   .debug_str:0000000000000218 .LASF38
     /tmp/ccFJeCVk.s:2723   .debug_str:00000000000004ea .LASF39
     /tmp/ccFJeCVk.s:2581   .debug_str:00000000000000b3 .LASF40
     /tmp/ccFJeCVk.s:2831   .debug_str:00000000000008cb .LASF41
     /tmp/ccFJeCVk.s:2577   .debug_str:0000000000000084 .LASF42
GAS LISTING /tmp/ccFJeCVk.s 			page 15


     /tmp/ccFJeCVk.s:2763   .debug_str:00000000000005fe .LASF150
     /tmp/ccFJeCVk.s:2775   .debug_str:0000000000000646 .LASF43
     /tmp/ccFJeCVk.s:2829   .debug_str:00000000000008bb .LASF45
     /tmp/ccFJeCVk.s:2731   .debug_str:000000000000051b .LASF44
     /tmp/ccFJeCVk.s:2667   .debug_str:000000000000032d .LASF46
     /tmp/ccFJeCVk.s:2705   .debug_str:0000000000000460 .LASF47
     /tmp/ccFJeCVk.s:2689   .debug_str:00000000000003cc .LASF48
     /tmp/ccFJeCVk.s:2717   .debug_str:00000000000004c0 .LASF49
     /tmp/ccFJeCVk.s:2823   .debug_str:0000000000000876 .LASF50
     /tmp/ccFJeCVk.s:2637   .debug_str:0000000000000257 .LASF51
     /tmp/ccFJeCVk.s:2605   .debug_str:0000000000000171 .LASF52
     /tmp/ccFJeCVk.s:2579   .debug_str:00000000000000a7 .LASF53
     /tmp/ccFJeCVk.s:2679   .debug_str:0000000000000388 .LASF93
     /tmp/ccFJeCVk.s:2635   .debug_str:0000000000000252 .LASF54
     /tmp/ccFJeCVk.s:2711   .debug_str:0000000000000486 .LASF55
     /tmp/ccFJeCVk.s:2613   .debug_str:00000000000001b4 .LASF56
     /tmp/ccFJeCVk.s:2683   .debug_str:00000000000003aa .LASF57
     /tmp/ccFJeCVk.s:2585   .debug_str:00000000000000e1 .LASF58
     /tmp/ccFJeCVk.s:2629   .debug_str:000000000000022d .LASF59
     /tmp/ccFJeCVk.s:2777   .debug_str:000000000000064c .LASF60
     /tmp/ccFJeCVk.s:2857   .debug_str:000000000000099c .LASF61
     /tmp/ccFJeCVk.s:2701   .debug_str:000000000000043d .LASF131
     /tmp/ccFJeCVk.s:2751   .debug_str:00000000000005aa .LASF133
     /tmp/ccFJeCVk.s:2837   .debug_str:000000000000090e .LASF62
     /tmp/ccFJeCVk.s:2607   .debug_str:0000000000000176 .LASF64
     /tmp/ccFJeCVk.s:2735   .debug_str:000000000000053a .LASF65
     /tmp/ccFJeCVk.s:2715   .debug_str:00000000000004b0 .LASF67
     /tmp/ccFJeCVk.s:2595   .debug_str:000000000000010e .LASF151
     /tmp/ccFJeCVk.s:2557   .debug_str:0000000000000000 .LASF68
     /tmp/ccFJeCVk.s:2741   .debug_str:000000000000055a .LASF69
     /tmp/ccFJeCVk.s:2849   .debug_str:0000000000000954 .LASF70
     /tmp/ccFJeCVk.s:2863   .debug_str:00000000000009d4 .LASF71
     /tmp/ccFJeCVk.s:2801   .debug_str:0000000000000703 .LASF72
     /tmp/ccFJeCVk.s:2663   .debug_str:000000000000031b .LASF73
     /tmp/ccFJeCVk.s:2645   .debug_str:0000000000000285 .LASF74
     /tmp/ccFJeCVk.s:2721   .debug_str:00000000000004da .LASF75
     /tmp/ccFJeCVk.s:2559   .debug_str:0000000000000009 .LASF76
     /tmp/ccFJeCVk.s:2785   .debug_str:0000000000000692 .LASF77
     /tmp/ccFJeCVk.s:2835   .debug_str:00000000000008ed .LASF78
     /tmp/ccFJeCVk.s:2759   .debug_str:00000000000005e2 .LASF79
     /tmp/ccFJeCVk.s:2713   .debug_str:000000000000048f .LASF80
     /tmp/ccFJeCVk.s:2847   .debug_str:000000000000094a .LASF81
     /tmp/ccFJeCVk.s:2855   .debug_str:0000000000000971 .LASF82
     /tmp/ccFJeCVk.s:2771   .debug_str:0000000000000627 .LASF83
     /tmp/ccFJeCVk.s:2599   .debug_str:0000000000000129 .LASF84
     /tmp/ccFJeCVk.s:2739   .debug_str:0000000000000554 .LASF85
     /tmp/ccFJeCVk.s:2769   .debug_str:000000000000061c .LASF86
     /tmp/ccFJeCVk.s:2745   .debug_str:0000000000000577 .LASF87
     /tmp/ccFJeCVk.s:2587   .debug_str:00000000000000e7 .LASF88
     /tmp/ccFJeCVk.s:2575   .debug_str:0000000000000069 .LASF89
     /tmp/ccFJeCVk.s:2647   .debug_str:000000000000028a .LASF90
     /tmp/ccFJeCVk.s:2563   .debug_str:000000000000001d .LASF91
     /tmp/ccFJeCVk.s:2845   .debug_str:0000000000000941 .LASF92
     /tmp/ccFJeCVk.s:2795   .debug_str:00000000000006dc .LASF94
     /tmp/ccFJeCVk.s:2633   .debug_str:0000000000000249 .LASF95
     /tmp/ccFJeCVk.s:2631   .debug_str:0000000000000234 .LASF96
     /tmp/ccFJeCVk.s:2867   .debug_str:00000000000009f6 .LASF97
GAS LISTING /tmp/ccFJeCVk.s 			page 16


     /tmp/ccFJeCVk.s:2761   .debug_str:00000000000005eb .LASF98
     /tmp/ccFJeCVk.s:2805   .debug_str:000000000000071a .LASF99
     /tmp/ccFJeCVk.s:2817   .debug_str:0000000000000840 .LASF100
     /tmp/ccFJeCVk.s:2653   .debug_str:00000000000002bf .LASF101
     /tmp/ccFJeCVk.s:2621   .debug_str:00000000000001f4 .LASF102
     /tmp/ccFJeCVk.s:2561   .debug_str:0000000000000015 .LASF103
     /tmp/ccFJeCVk.s:2787   .debug_str:000000000000069c .LASF104
     /tmp/ccFJeCVk.s:2799   .debug_str:00000000000006fa .LASF105
     /tmp/ccFJeCVk.s:2703   .debug_str:000000000000044b .LASF106
     /tmp/ccFJeCVk.s:2623   .debug_str:0000000000000208 .LASF107
     /tmp/ccFJeCVk.s:2783   .debug_str:000000000000067d .LASF108
     /tmp/ccFJeCVk.s:2589   .debug_str:00000000000000f5 .LASF109
     /tmp/ccFJeCVk.s:2839   .debug_str:000000000000091c .LASF110
     /tmp/ccFJeCVk.s:2665   .debug_str:0000000000000325 .LASF111
     /tmp/ccFJeCVk.s:2617   .debug_str:00000000000001ca .LASF112
     /tmp/ccFJeCVk.s:2729   .debug_str:0000000000000514 .LASF113
     /tmp/ccFJeCVk.s:2851   .debug_str:0000000000000959 .LASF114
     /tmp/ccFJeCVk.s:2821   .debug_str:000000000000086f .LASF115
     /tmp/ccFJeCVk.s:2651   .debug_str:00000000000002ac .LASF116
     /tmp/ccFJeCVk.s:2655   .debug_str:00000000000002c7 .LASF117
     /tmp/ccFJeCVk.s:2803   .debug_str:0000000000000708 .LASF118
     /tmp/ccFJeCVk.s:2691   .debug_str:00000000000003e0 .LASF119
     /tmp/ccFJeCVk.s:2827   .debug_str:00000000000008a9 .LASF120
     /tmp/ccFJeCVk.s:2861   .debug_str:00000000000009c9 .LASF121
     /tmp/ccFJeCVk.s:2779   .debug_str:0000000000000653 .LASF122
     /tmp/ccFJeCVk.s:2681   .debug_str:000000000000039f .LASF123
     /tmp/ccFJeCVk.s:2583   .debug_str:00000000000000c9 .LASF124
     /tmp/ccFJeCVk.s:2609   .debug_str:000000000000019e .LASF125
     /tmp/ccFJeCVk.s:2699   .debug_str:0000000000000427 .LASF126
     /tmp/ccFJeCVk.s:2677   .debug_str:000000000000037e .LASF127
     /tmp/ccFJeCVk.s:2661   .debug_str:0000000000000305 .LASF128
     /tmp/ccFJeCVk.s:2789   .debug_str:00000000000006b0 .LASF129
     /tmp/ccFJeCVk.s:2603   .debug_str:0000000000000155 .LASF130
     /tmp/ccFJeCVk.s:2733   .debug_str:0000000000000524 .LASF132
     /tmp/ccFJeCVk.s:2859   .debug_str:00000000000009a6 .LASF134
     /tmp/ccFJeCVk.s:2819   .debug_str:0000000000000853 .LASF135
     /tmp/ccFJeCVk.s:2813   .debug_str:00000000000007fc .LASF136
     /tmp/ccFJeCVk.s:2865   .debug_str:00000000000009d9 .LASF137
     /tmp/ccFJeCVk.s:2659   .debug_str:00000000000002db .LASF138
     /tmp/ccFJeCVk.s:2719   .debug_str:00000000000004c9 .LASF152
     /tmp/ccFJeCVk.s:10     .text:0000000000000000 .LFB47
     /tmp/ccFJeCVk.s:59     .text:000000000000005c .LFE47
     /tmp/ccFJeCVk.s:27     .text:000000000000001c .LVL0
     /tmp/ccFJeCVk.s:46     .text:0000000000000048 .LVL2
     /tmp/ccFJeCVk.s:271    .text:000000000000017c .LFB46
     /tmp/ccFJeCVk.s:348    .text:0000000000000214 .LFE46
     /tmp/ccFJeCVk.s:2430   .debug_loc:0000000000000000 .LLST6
     /tmp/ccFJeCVk.s:302    .text:00000000000001b8 .LVL18
     /tmp/ccFJeCVk.s:312    .text:00000000000001d0 .LVL19
     /tmp/ccFJeCVk.s:319    .text:00000000000001e8 .LVL20
     /tmp/ccFJeCVk.s:323    .text:00000000000001f0 .LVL21
     /tmp/ccFJeCVk.s:345    .text:0000000000000210 .LVL24
     /tmp/ccFJeCVk.s:233    .text:0000000000000158 .LFB45
     /tmp/ccFJeCVk.s:265    .text:000000000000017c .LFE45
     /tmp/ccFJeCVk.s:2841   .debug_str:0000000000000930 .LASF139
     /tmp/ccFJeCVk.s:175    .text:000000000000010c .LFB44
     /tmp/ccFJeCVk.s:227    .text:0000000000000158 .LFE44
GAS LISTING /tmp/ccFJeCVk.s 			page 17


     /tmp/ccFJeCVk.s:196    .text:0000000000000130 .LBB4
     /tmp/ccFJeCVk.s:204    .text:0000000000000134 .LBE4
     /tmp/ccFJeCVk.s:2441   .debug_loc:0000000000000036 .LLST4
     /tmp/ccFJeCVk.s:2449   .debug_loc:000000000000005a .LLST5
     /tmp/ccFJeCVk.s:208    .text:000000000000013c .LVL15
     /tmp/ccFJeCVk.s:65     .text:000000000000005c .LFB43
     /tmp/ccFJeCVk.s:169    .text:000000000000010c .LFE43
     /tmp/ccFJeCVk.s:2456   .debug_loc:000000000000007d .LLST0
     /tmp/ccFJeCVk.s:2478   .debug_loc:00000000000000dc .LLST1
     /tmp/ccFJeCVk.s:2843   .debug_str:0000000000000935 .LASF140
     /tmp/ccFJeCVk.s:2500   .debug_loc:000000000000013b .LLST2
     /tmp/ccFJeCVk.s:2565   .debug_str:0000000000000037 .LASF141
     /tmp/ccFJeCVk.s:2527   .debug_loc:00000000000001ae .LLST3
     /tmp/ccFJeCVk.s:93     .text:0000000000000094 .LVL5
     /tmp/ccFJeCVk.s:131    .text:00000000000000d8 .LVL8
     /tmp/ccFJeCVk.s:2853   .debug_str:000000000000096c .LASF153
     /tmp/ccFJeCVk.s:2649   .debug_str:0000000000000297 .LASF154
     /tmp/ccFJeCVk.s:2615   .debug_str:00000000000001ba .LASF155
     /tmp/ccFJeCVk.s:287    .text:0000000000000198 .LVL17
     /tmp/ccFJeCVk.s:334    .text:00000000000001fc .LVL22
     /tmp/ccFJeCVk.s:338    .text:0000000000000204 .LVL23
     /tmp/ccFJeCVk.s:195    .text:0000000000000130 .LVL13
     /tmp/ccFJeCVk.s:202    .text:0000000000000134 .LVL14
     /tmp/ccFJeCVk.s:68     .text:000000000000005c .LVL3
     /tmp/ccFJeCVk.s:91     .text:000000000000008c .LVL4
     /tmp/ccFJeCVk.s:149    .text:00000000000000f0 .LVL10
     /tmp/ccFJeCVk.s:156    .text:00000000000000fc .LVL12
     /tmp/ccFJeCVk.s:152    .text:00000000000000f4 .LVL11
     /tmp/ccFJeCVk.s:118    .text:00000000000000c0 .LVL7
     /tmp/ccFJeCVk.s:95     .text:0000000000000098 .LVL6
     /tmp/ccFJeCVk.s:144    .text:00000000000000e8 .LVL9
     /tmp/ccFJeCVk.s:366    .debug_info:0000000000000000 .Ldebug_info0

UNDEFINED SYMBOLS
_ZN5Riscv10popSppSpieEv
_Z15thread_dispatchv
_ZN15MemoryAllocator9mem_allocEm
_ZN9Scheduler3putEP3PCB
_ZN9Scheduler3getEv
_ZN5Riscv13pushRegistersEv
_ZN3PCB13contextSwitchEPNS_7ContextES1_
_ZN5Riscv12popRegistersEv
