GAS LISTING /tmp/cc2VoqUm.s 			page 1


   1              		.file	"syscall_cpp.cpp"
   2              		.option pic
   3              		.option norelax
   4              		.text
   5              	.Ltext0:
   6              		.align	2
   7              		.globl	_ZN7Console4getcEv
   9              	_ZN7Console4getcEv:
  10              	.LFB48:
  11              		.file 1 "src/syscall_cpp.cpp"
   1:src/syscall_cpp.cpp **** //
   2:src/syscall_cpp.cpp **** // Created by os on 5/8/23.
   3:src/syscall_cpp.cpp **** //
   4:src/syscall_cpp.cpp **** #include "../h/syscall_cpp.hpp"
   5:src/syscall_cpp.cpp **** 
   6:src/syscall_cpp.cpp **** char Console::getc() {
  12              		.loc 1 6 22
  13              		.cfi_startproc
  14 0000 130101FF 		addi	sp,sp,-16
  15              		.cfi_def_cfa_offset 16
  16 0004 23341100 		sd	ra,8(sp)
  17 0008 23308100 		sd	s0,0(sp)
  18              		.cfi_offset 1, -8
  19              		.cfi_offset 8, -16
  20 000c 13040101 		addi	s0,sp,16
  21              		.cfi_def_cfa 8, 0
   7:src/syscall_cpp.cpp ****     return __getc();
  22              		.loc 1 7 5
  23              		.loc 1 7 18 is_stmt 0
  24 0010 97000000 		call	__getc@plt
  24      E7800000 
  25              	.LVL0:
   8:src/syscall_cpp.cpp **** }
  26              		.loc 1 8 1
  27 0018 83308100 		ld	ra,8(sp)
  28              		.cfi_restore 1
  29 001c 03340100 		ld	s0,0(sp)
  30              		.cfi_restore 8
  31              		.cfi_def_cfa 2, 16
  32 0020 13010101 		addi	sp,sp,16
  33              		.cfi_def_cfa_offset 0
  34 0024 67800000 		jr	ra
  35              		.cfi_endproc
  36              	.LFE48:
  38              		.align	2
  39              		.globl	_ZN7Console4putcEc
  41              	_ZN7Console4putcEc:
  42              	.LFB49:
   9:src/syscall_cpp.cpp **** 
  10:src/syscall_cpp.cpp **** void Console::putc(char c) {
  43              		.loc 1 10 28 is_stmt 1
  44              		.cfi_startproc
  45              	.LVL1:
  46 0028 130101FF 		addi	sp,sp,-16
  47              		.cfi_def_cfa_offset 16
  48 002c 23341100 		sd	ra,8(sp)
  49 0030 23308100 		sd	s0,0(sp)
GAS LISTING /tmp/cc2VoqUm.s 			page 2


  50              		.cfi_offset 1, -8
  51              		.cfi_offset 8, -16
  52 0034 13040101 		addi	s0,sp,16
  53              		.cfi_def_cfa 8, 0
  11:src/syscall_cpp.cpp ****     __putc(c);
  54              		.loc 1 11 5
  55              		.loc 1 11 11 is_stmt 0
  56 0038 97000000 		call	__putc@plt
  56      E7800000 
  57              	.LVL2:
  12:src/syscall_cpp.cpp **** }
  58              		.loc 1 12 1
  59 0040 83308100 		ld	ra,8(sp)
  60              		.cfi_restore 1
  61 0044 03340100 		ld	s0,0(sp)
  62              		.cfi_restore 8
  63              		.cfi_def_cfa 2, 16
  64 0048 13010101 		addi	sp,sp,16
  65              		.cfi_def_cfa_offset 0
  66 004c 67800000 		jr	ra
  67              		.cfi_endproc
  68              	.LFE49:
  70              	.Letext0:
  71              		.file 2 "src/../h/../lib/hw.h"
  72              		.file 3 "src/../h/PCB.hpp"
  73              		.file 4 "src/../h/../h/syscall_c.hpp"
  74              		.file 5 "src/../h/syscall_cpp.hpp"
  75              		.file 6 "src/../h/../h/../lib/console.h"
GAS LISTING /tmp/cc2VoqUm.s 			page 3

