GAS LISTING /tmp/ccOUVMmo.s 			page 1


   1              		.file	"waitSemList.cpp"
   2              		.option pic
   3              		.option norelax
   4              		.text
   5              	.Ltext0:
   6              		.align	2
   7              		.globl	_ZN11waitSemList3getEv
   9              	_ZN11waitSemList3getEv:
  10              	.LFB31:
  11              		.file 1 "src/waitSemList.cpp"
   1:src/waitSemList.cpp **** //
   2:src/waitSemList.cpp **** // Created by os on 6/4/24.
   3:src/waitSemList.cpp **** //
   4:src/waitSemList.cpp **** 
   5:src/waitSemList.cpp **** #include "../h/_sem.hpp"
   6:src/waitSemList.cpp **** #include "../h/waitSemList.hpp"
   7:src/waitSemList.cpp **** #include "../h/syscall_c.hpp"
   8:src/waitSemList.cpp **** 
   9:src/waitSemList.cpp **** PCB *waitSemList::get() {
  12              		.loc 1 9 25
  13              		.cfi_startproc
  14              	.LVL0:
  15 0000 130101FE 		addi	sp,sp,-32
  16              		.cfi_def_cfa_offset 32
  17 0004 233C1100 		sd	ra,24(sp)
  18 0008 23388100 		sd	s0,16(sp)
  19 000c 23349100 		sd	s1,8(sp)
  20              		.cfi_offset 1, -8
  21              		.cfi_offset 8, -16
  22              		.cfi_offset 9, -24
  23 0010 13040102 		addi	s0,sp,32
  24              		.cfi_def_cfa 8, 0
  25 0014 93070500 		mv	a5,a0
  10:src/waitSemList.cpp ****     if (empty()) return nullptr;
  26              		.loc 1 10 5
  27              	.LVL1:
  28              	.LBB6:
  29              	.LBB7:
  30              		.file 2 "src/../h/waitSemList.hpp"
   1:src/../h/waitSemList.hpp **** //
   2:src/../h/waitSemList.hpp **** // Created by os on 6/4/24.
   3:src/../h/waitSemList.hpp **** //
   4:src/../h/waitSemList.hpp **** 
   5:src/../h/waitSemList.hpp **** #ifndef WAITSEMLIST_HPP
   6:src/../h/waitSemList.hpp **** #define WAITSEMLIST_HPP
   7:src/../h/waitSemList.hpp **** #include "PCB.hpp"
   8:src/../h/waitSemList.hpp **** #include "../lib/mem.h"
   9:src/../h/waitSemList.hpp **** #include "_sem.hpp"
  10:src/../h/waitSemList.hpp **** 
  11:src/../h/waitSemList.hpp **** 
  12:src/../h/waitSemList.hpp **** class waitSemList {
  13:src/../h/waitSemList.hpp **** public:
  14:src/../h/waitSemList.hpp ****     waitSemList():head(nullptr), tail(nullptr){}
  15:src/../h/waitSemList.hpp ****     struct waitSemElem {
  16:src/../h/waitSemList.hpp ****         PCB *thread;
  17:src/../h/waitSemList.hpp ****         waitSemElem *next;
  18:src/../h/waitSemList.hpp ****     };
GAS LISTING /tmp/ccOUVMmo.s 			page 2


  19:src/../h/waitSemList.hpp **** 
  20:src/../h/waitSemList.hpp ****     waitSemElem *head;
  21:src/../h/waitSemList.hpp ****     waitSemElem *tail;
  22:src/../h/waitSemList.hpp ****     bool empty() { return head == nullptr; }
  31              		.loc 2 22 20
  32              		.loc 2 22 27 is_stmt 0
  33 0018 03350500 		ld	a0,0(a0)
  34              	.LVL2:
  35              	.LBE7:
  36              	.LBE6:
  37              		.loc 1 10 5
  38 001c 630E0502 		beqz	a0,.L4
  11:src/waitSemList.cpp ****     PCB *first = head->thread;
  39              		.loc 1 11 5 is_stmt 1
  40              		.loc 1 11 10 is_stmt 0
  41 0020 83340500 		ld	s1,0(a0)
  42              	.LVL3:
  12:src/waitSemList.cpp ****     waitSemElem *p = head;
  43              		.loc 1 12 5 is_stmt 1
  13:src/waitSemList.cpp ****     head = head->next;
  44              		.loc 1 13 5
  45              		.loc 1 13 18 is_stmt 0
  46 0024 03378500 		ld	a4,8(a0)
  47              		.loc 1 13 10
  48 0028 23B0E700 		sd	a4,0(a5)
  14:src/waitSemList.cpp ****     if (empty())tail = nullptr;
  49              		.loc 1 14 5 is_stmt 1
  50              	.LVL4:
  51              		.loc 2 22 20
  52              		.loc 1 14 5 is_stmt 0
  53 002c 63020702 		beqz	a4,.L6
  54              	.L3:
  15:src/waitSemList.cpp ****     mem_free(p);
  55              		.loc 1 15 5 is_stmt 1
  56              		.loc 1 15 13 is_stmt 0
  57 0030 97000000 		call	_Z8mem_freePv@plt
  57      E7800000 
  58              	.LVL5:
  16:src/waitSemList.cpp ****     return first;
  59              		.loc 1 16 5 is_stmt 1
  60              	.L1:
  17:src/waitSemList.cpp **** }
  61              		.loc 1 17 1 is_stmt 0
  62 0038 13850400 		mv	a0,s1
  63 003c 83308101 		ld	ra,24(sp)
  64              		.cfi_remember_state
  65              		.cfi_restore 1
  66 0040 03340101 		ld	s0,16(sp)
  67              		.cfi_restore 8
  68              		.cfi_def_cfa 2, 32
  69 0044 83348100 		ld	s1,8(sp)
  70              		.cfi_restore 9
  71 0048 13010102 		addi	sp,sp,32
  72              		.cfi_def_cfa_offset 0
  73 004c 67800000 		jr	ra
  74              	.LVL6:
  75              	.L6:
GAS LISTING /tmp/ccOUVMmo.s 			page 3


  76              		.cfi_restore_state
  14:src/waitSemList.cpp ****     mem_free(p);
  77              		.loc 1 14 17 is_stmt 1 discriminator 1
  14:src/waitSemList.cpp ****     mem_free(p);
  78              		.loc 1 14 22 is_stmt 0 discriminator 1
  79 0050 23B40700 		sd	zero,8(a5)
  80 0054 6FF0DFFD 		j	.L3
  81              	.LVL7:
  82              	.L4:
  10:src/waitSemList.cpp ****     PCB *first = head->thread;
  83              		.loc 1 10 25
  84 0058 93040500 		mv	s1,a0
  85 005c 6FF0DFFD 		j	.L1
  86              		.cfi_endproc
  87              	.LFE31:
  89              		.align	2
  90              		.globl	_ZN11waitSemList3addEP3PCB
  92              	_ZN11waitSemList3addEP3PCB:
  93              	.LFB32:
  18:src/waitSemList.cpp **** 
  19:src/waitSemList.cpp **** void waitSemList::add(PCB *thread) {
  94              		.loc 1 19 36 is_stmt 1
  95              		.cfi_startproc
  96              	.LVL8:
  97 0060 130101FE 		addi	sp,sp,-32
  98              		.cfi_def_cfa_offset 32
  99 0064 233C1100 		sd	ra,24(sp)
 100 0068 23388100 		sd	s0,16(sp)
 101 006c 23349100 		sd	s1,8(sp)
 102 0070 23302101 		sd	s2,0(sp)
 103              		.cfi_offset 1, -8
 104              		.cfi_offset 8, -16
 105              		.cfi_offset 9, -24
 106              		.cfi_offset 18, -32
 107 0074 13040102 		addi	s0,sp,32
 108              		.cfi_def_cfa 8, 0
 109 0078 93040500 		mv	s1,a0
 110 007c 13890500 		mv	s2,a1
  20:src/waitSemList.cpp ****     waitSemElem *elem = (waitSemElem *) mem_alloc(sizeof(waitSemElem));
 111              		.loc 1 20 5
 112              		.loc 1 20 50 is_stmt 0
 113 0080 13050001 		li	a0,16
 114              	.LVL9:
 115 0084 97000000 		call	_Z9mem_allocm@plt
 115      E7800000 
 116              	.LVL10:
  21:src/waitSemList.cpp ****     elem->thread = thread;
 117              		.loc 1 21 5 is_stmt 1
 118              		.loc 1 21 18 is_stmt 0
 119 008c 23302501 		sd	s2,0(a0)
  22:src/waitSemList.cpp ****     elem->next = nullptr;
 120              		.loc 1 22 5 is_stmt 1
 121              		.loc 1 22 16 is_stmt 0
 122 0090 23340500 		sd	zero,8(a0)
  23:src/waitSemList.cpp ****     if (tail) {
 123              		.loc 1 23 5 is_stmt 1
 124              		.loc 1 23 9 is_stmt 0
GAS LISTING /tmp/ccOUVMmo.s 			page 4


 125 0094 83B78400 		ld	a5,8(s1)
 126              		.loc 1 23 5
 127 0098 63820702 		beqz	a5,.L8
  24:src/waitSemList.cpp ****         tail->next = elem;
 128              		.loc 1 24 9 is_stmt 1
 129              		.loc 1 24 20 is_stmt 0
 130 009c 23B4A700 		sd	a0,8(a5)
  25:src/waitSemList.cpp ****         tail = elem;
 131              		.loc 1 25 9 is_stmt 1
 132              		.loc 1 25 14 is_stmt 0
 133 00a0 23B4A400 		sd	a0,8(s1)
 134              	.L7:
  26:src/waitSemList.cpp ****     } else {
  27:src/waitSemList.cpp ****         head = elem;
  28:src/waitSemList.cpp ****         tail = head;
  29:src/waitSemList.cpp ****     }
  30:src/waitSemList.cpp **** }
 135              		.loc 1 30 1
 136 00a4 83308101 		ld	ra,24(sp)
 137              		.cfi_remember_state
 138              		.cfi_restore 1
 139 00a8 03340101 		ld	s0,16(sp)
 140              		.cfi_restore 8
 141              		.cfi_def_cfa 2, 32
 142 00ac 83348100 		ld	s1,8(sp)
 143              		.cfi_restore 9
 144              	.LVL11:
 145 00b0 03390100 		ld	s2,0(sp)
 146              		.cfi_restore 18
 147              	.LVL12:
 148 00b4 13010102 		addi	sp,sp,32
 149              		.cfi_def_cfa_offset 0
 150 00b8 67800000 		jr	ra
 151              	.LVL13:
 152              	.L8:
 153              		.cfi_restore_state
  27:src/waitSemList.cpp ****         tail = head;
 154              		.loc 1 27 9 is_stmt 1
  27:src/waitSemList.cpp ****         tail = head;
 155              		.loc 1 27 14 is_stmt 0
 156 00bc 23B0A400 		sd	a0,0(s1)
  28:src/waitSemList.cpp ****     }
 157              		.loc 1 28 9 is_stmt 1
  28:src/waitSemList.cpp ****     }
 158              		.loc 1 28 14 is_stmt 0
 159 00c0 23B4A400 		sd	a0,8(s1)
 160              		.loc 1 30 1
 161 00c4 6FF01FFE 		j	.L7
 162              		.cfi_endproc
 163              	.LFE32:
 165              	.Letext0:
 166              		.file 3 "src/../h/../lib/hw.h"
 167              		.file 4 "src/../h/syscall_c.hpp"
 168              		.file 5 "src/../h/PCB.hpp"
GAS LISTING /tmp/ccOUVMmo.s 			page 5

