GAS LISTING /tmp/ccLq5UYy.s 			page 1


   1              		.file	"ConsumerProducer_CPP_Sync_API_test.cpp"
   2              		.option pic
   3              		.option norelax
   4              		.text
   5              	.Ltext0:
   6              		.section	.text._ZN6Thread3runEv,"axG",@progbits,_ZN6Thread3runEv,comdat
   7              		.align	2
   8              		.weak	_ZN6Thread3runEv
  10              	_ZN6Thread3runEv:
  11              	.LFB37:
  12              		.file 1 "test/../h/syscall_cpp.hpp"
   1:test/../h/syscall_cpp.hpp **** //
   2:test/../h/syscall_cpp.hpp **** // Created by os on 5/8/23.
   3:test/../h/syscall_cpp.hpp **** //
   4:test/../h/syscall_cpp.hpp **** 
   5:test/../h/syscall_cpp.hpp **** #ifndef PROJECT_BASE_SYSCALL_CPP_HPP
   6:test/../h/syscall_cpp.hpp **** #define PROJECT_BASE_SYSCALL_CPP_HPP
   7:test/../h/syscall_cpp.hpp **** #include "MemoryAllocator.hpp"
   8:test/../h/syscall_cpp.hpp **** #include "PCB.hpp"
   9:test/../h/syscall_cpp.hpp **** #include "syscall_c.hpp"
  10:test/../h/syscall_cpp.hpp **** 
  11:test/../h/syscall_cpp.hpp **** void *operator new(size_t);
  12:test/../h/syscall_cpp.hpp **** 
  13:test/../h/syscall_cpp.hpp **** void operator delete(void *);
  14:test/../h/syscall_cpp.hpp **** 
  15:test/../h/syscall_cpp.hpp **** void *operator new[](size_t);
  16:test/../h/syscall_cpp.hpp **** 
  17:test/../h/syscall_cpp.hpp **** void operator delete[](void *ptr);
  18:test/../h/syscall_cpp.hpp **** 
  19:test/../h/syscall_cpp.hpp **** class PCB;
  20:test/../h/syscall_cpp.hpp **** typedef PCB *thread_t;
  21:test/../h/syscall_cpp.hpp **** 
  22:test/../h/syscall_cpp.hpp **** class Thread {
  23:test/../h/syscall_cpp.hpp **** public:
  24:test/../h/syscall_cpp.hpp ****     Thread(void (*body)(void *), void *arg): body(body), arg(arg) {
  25:test/../h/syscall_cpp.hpp ****     }
  26:test/../h/syscall_cpp.hpp **** 
  27:test/../h/syscall_cpp.hpp **** 
  28:test/../h/syscall_cpp.hpp ****     virtual ~Thread() {
  29:test/../h/syscall_cpp.hpp ****         myHandle->setState(PCB::FINISHED);
  30:test/../h/syscall_cpp.hpp ****         delete myHandle;
  31:test/../h/syscall_cpp.hpp ****     }
  32:test/../h/syscall_cpp.hpp **** 
  33:test/../h/syscall_cpp.hpp ****     int start() {
  34:test/../h/syscall_cpp.hpp ****         thread_create(&this->myHandle, body, arg);
  35:test/../h/syscall_cpp.hpp ****         return 0;
  36:test/../h/syscall_cpp.hpp ****     }
  37:test/../h/syscall_cpp.hpp **** 
  38:test/../h/syscall_cpp.hpp ****     void join();
  39:test/../h/syscall_cpp.hpp **** 
  40:test/../h/syscall_cpp.hpp ****     static void dispatch() {
  41:test/../h/syscall_cpp.hpp ****         thread_dispatch();
  42:test/../h/syscall_cpp.hpp ****     }
  43:test/../h/syscall_cpp.hpp **** 
  44:test/../h/syscall_cpp.hpp ****     static int sleep(time_t);
  45:test/../h/syscall_cpp.hpp **** 
  46:test/../h/syscall_cpp.hpp **** protected:
GAS LISTING /tmp/ccLq5UYy.s 			page 2


  47:test/../h/syscall_cpp.hpp ****     Thread() {
  48:test/../h/syscall_cpp.hpp ****         this->body = thread_wrapper;
  49:test/../h/syscall_cpp.hpp ****         this->arg = this;
  50:test/../h/syscall_cpp.hpp ****     }
  51:test/../h/syscall_cpp.hpp **** 
  52:test/../h/syscall_cpp.hpp ****     virtual void run() {
  13              		.loc 1 52 18
  14              		.cfi_startproc
  15              	.LVL0:
  16 0000 130101FF 		addi	sp,sp,-16
  17              		.cfi_def_cfa_offset 16
  18 0004 23348100 		sd	s0,8(sp)
  19              		.cfi_offset 8, -8
  20 0008 13040101 		addi	s0,sp,16
  21              		.cfi_def_cfa 8, 0
  53:test/../h/syscall_cpp.hpp ****     }
  22              		.loc 1 53 5 is_stmt 0
  23 000c 03348100 		ld	s0,8(sp)
  24              		.cfi_restore 8
  25              		.cfi_def_cfa 2, 16
  26 0010 13010101 		addi	sp,sp,16
  27              		.cfi_def_cfa_offset 0
  28 0014 67800000 		jr	ra
  29              		.cfi_endproc
  30              	.LFE37:
  32              		.section	.text._ZN6Thread14thread_wrapperEPv,"axG",@progbits,_ZN6Thread14thread_wrapperEPv,comdat
  33              		.align	2
  34              		.weak	_ZN6Thread14thread_wrapperEPv
  36              	_ZN6Thread14thread_wrapperEPv:
  37              	.LFB38:
  54:test/../h/syscall_cpp.hpp **** 
  55:test/../h/syscall_cpp.hpp **** private:
  56:test/../h/syscall_cpp.hpp ****     thread_t myHandle;
  57:test/../h/syscall_cpp.hpp **** 
  58:test/../h/syscall_cpp.hpp ****     void (*body)(void *);
  59:test/../h/syscall_cpp.hpp **** 
  60:test/../h/syscall_cpp.hpp ****     static void thread_wrapper(void *t) {
  38              		.loc 1 60 17 is_stmt 1
  39              		.cfi_startproc
  40              	.LVL1:
  41 0000 130101FF 		addi	sp,sp,-16
  42              		.cfi_def_cfa_offset 16
  43 0004 23341100 		sd	ra,8(sp)
  44 0008 23308100 		sd	s0,0(sp)
  45              		.cfi_offset 1, -8
  46              		.cfi_offset 8, -16
  47 000c 13040101 		addi	s0,sp,16
  48              		.cfi_def_cfa 8, 0
  61:test/../h/syscall_cpp.hpp ****         ((Thread *) t)->run();
  49              		.loc 1 61 9
  50              		.loc 1 61 29 is_stmt 0
  51 0010 83370500 		ld	a5,0(a0)
  52 0014 83B70701 		ld	a5,16(a5)
  53              		.loc 1 61 28
  54 0018 E7800700 		jalr	a5
  55              	.LVL2:
  62:test/../h/syscall_cpp.hpp ****     }
GAS LISTING /tmp/ccLq5UYy.s 			page 3


  56              		.loc 1 62 5
  57 001c 83308100 		ld	ra,8(sp)
  58              		.cfi_restore 1
  59 0020 03340100 		ld	s0,0(sp)
  60              		.cfi_restore 8
  61              		.cfi_def_cfa 2, 16
  62 0024 13010101 		addi	sp,sp,16
  63              		.cfi_def_cfa_offset 0
  64 0028 67800000 		jr	ra
  65              		.cfi_endproc
  66              	.LFE38:
  68              		.section	.text._ZN9SemaphoreD2Ev,"axG",@progbits,_ZN9SemaphoreD5Ev,comdat
  69              		.align	2
  70              		.weak	_ZN9SemaphoreD2Ev
  72              	_ZN9SemaphoreD2Ev:
  73              	.LFB43:
  63:test/../h/syscall_cpp.hpp **** 
  64:test/../h/syscall_cpp.hpp ****     void *arg;
  65:test/../h/syscall_cpp.hpp **** };
  66:test/../h/syscall_cpp.hpp **** 
  67:test/../h/syscall_cpp.hpp **** class Semaphore {
  68:test/../h/syscall_cpp.hpp **** public:
  69:test/../h/syscall_cpp.hpp ****     Semaphore(unsigned init = 1) {
  70:test/../h/syscall_cpp.hpp ****         sem_open(&myHandle, init);
  71:test/../h/syscall_cpp.hpp ****     }
  72:test/../h/syscall_cpp.hpp **** 
  73:test/../h/syscall_cpp.hpp ****     virtual ~Semaphore() {
  74              		.loc 1 73 13 is_stmt 1
  75              		.cfi_startproc
  76              		.cfi_personality 0x9b,DW.ref.__gxx_personality_v0
  77              		.cfi_lsda 0x1b,.LLSDA43
  78              	.LVL3:
  79              	.LBB78:
  80              		.loc 1 73 26 is_stmt 0
  81 0000 97070000 		lla	a5,_ZTV9Semaphore+16
  81      93870700 
  82 0008 2330F500 		sd	a5,0(a0)
  74:test/../h/syscall_cpp.hpp ****         if (myHandle != nullptr) {
  83              		.loc 1 74 9 is_stmt 1
  84              		.loc 1 74 13 is_stmt 0
  85 000c 03358500 		ld	a0,8(a0)
  86              	.LVL4:
  87              		.loc 1 74 9
  88 0010 63060502 		beqz	a0,.L8
  89              	.LBE78:
  73:test/../h/syscall_cpp.hpp ****         if (myHandle != nullptr) {
  90              		.loc 1 73 13
  91 0014 130101FF 		addi	sp,sp,-16
  92              		.cfi_def_cfa_offset 16
  93 0018 23341100 		sd	ra,8(sp)
  94 001c 23308100 		sd	s0,0(sp)
  95              		.cfi_offset 1, -8
  96              		.cfi_offset 8, -16
  97 0020 13040101 		addi	s0,sp,16
  98              		.cfi_def_cfa 8, 0
  99              	.LBB79:
  75:test/../h/syscall_cpp.hpp ****             sem_close(myHandle);
GAS LISTING /tmp/ccLq5UYy.s 			page 4


 100              		.loc 1 75 13 is_stmt 1
 101              		.loc 1 75 22 is_stmt 0
 102 0024 97000000 		call	_Z9sem_closeP4_sem@plt
 102      E7800000 
 103              	.LVL5:
 104              	.LBE79:
  76:test/../h/syscall_cpp.hpp ****         }
  77:test/../h/syscall_cpp.hpp ****     }
 105              		.loc 1 77 5
 106 002c 83308100 		ld	ra,8(sp)
 107              		.cfi_restore 1
 108 0030 03340100 		ld	s0,0(sp)
 109              		.cfi_restore 8
 110              		.cfi_def_cfa 2, 16
 111 0034 13010101 		addi	sp,sp,16
 112              		.cfi_def_cfa_offset 0
 113 0038 67800000 		jr	ra
 114              	.L8:
 115 003c 67800000 		ret
 116              		.cfi_endproc
 117              	.LFE43:
 118              		.globl	__gxx_personality_v0
 119              		.section	.gcc_except_table._ZN9SemaphoreD2Ev,"aG",@progbits,_ZN9SemaphoreD5Ev,comdat
 120              	.LLSDA43:
 121 0000 FF       		.byte	0xff
 122 0001 FF       		.byte	0xff
 123 0002 03       		.byte	0x3
 124 0003 00       		.byte	0
 125              		.section	.text._ZN9SemaphoreD2Ev,"axG",@progbits,_ZN9SemaphoreD5Ev,comdat
 127              		.weak	_ZN9SemaphoreD1Ev
 128              		.set	_ZN9SemaphoreD1Ev,_ZN9SemaphoreD2Ev
 129              		.section	.text._ZN9SemaphoreD0Ev,"axG",@progbits,_ZN9SemaphoreD5Ev,comdat
 130              		.align	2
 131              		.weak	_ZN9SemaphoreD0Ev
 133              	_ZN9SemaphoreD0Ev:
 134              	.LFB45:
  73:test/../h/syscall_cpp.hpp ****         if (myHandle != nullptr) {
 135              		.loc 1 73 13 is_stmt 1
 136              		.cfi_startproc
 137              		.cfi_personality 0x9b,DW.ref.__gxx_personality_v0
 138              		.cfi_lsda 0x1b,.LLSDA45
 139              	.LVL6:
 140 0000 130101FE 		addi	sp,sp,-32
 141              		.cfi_def_cfa_offset 32
 142 0004 233C1100 		sd	ra,24(sp)
 143 0008 23388100 		sd	s0,16(sp)
 144 000c 23349100 		sd	s1,8(sp)
 145              		.cfi_offset 1, -8
 146              		.cfi_offset 8, -16
 147              		.cfi_offset 9, -24
 148 0010 13040102 		addi	s0,sp,32
 149              		.cfi_def_cfa 8, 0
 150 0014 93040500 		mv	s1,a0
 151              	.LVL7:
 152              	.LBB80:
 153              	.LBB81:
  73:test/../h/syscall_cpp.hpp ****         if (myHandle != nullptr) {
GAS LISTING /tmp/ccLq5UYy.s 			page 5


 154              		.loc 1 73 26 is_stmt 0
 155 0018 97070000 		lla	a5,_ZTV9Semaphore+16
 155      93870700 
 156 0020 2330F500 		sd	a5,0(a0)
  74:test/../h/syscall_cpp.hpp ****             sem_close(myHandle);
 157              		.loc 1 74 9 is_stmt 1
  74:test/../h/syscall_cpp.hpp ****             sem_close(myHandle);
 158              		.loc 1 74 13 is_stmt 0
 159 0024 03358500 		ld	a0,8(a0)
 160              	.LVL8:
  74:test/../h/syscall_cpp.hpp ****             sem_close(myHandle);
 161              		.loc 1 74 9
 162 0028 63060500 		beqz	a0,.L12
  75:test/../h/syscall_cpp.hpp ****         }
 163              		.loc 1 75 13 is_stmt 1
  75:test/../h/syscall_cpp.hpp ****         }
 164              		.loc 1 75 22 is_stmt 0
 165 002c 97000000 		call	_Z9sem_closeP4_sem@plt
 165      E7800000 
 166              	.LVL9:
 167              	.L12:
 168              	.LBE81:
 169              	.LBE80:
 170              		.loc 1 77 5
 171 0034 13850400 		mv	a0,s1
 172              	.LEHB0:
 173 0038 97000000 		call	_ZdlPv@plt
 173      E7800000 
 174              	.LVL10:
 175              	.LEHE0:
 176 0040 83308101 		ld	ra,24(sp)
 177              		.cfi_restore 1
 178 0044 03340101 		ld	s0,16(sp)
 179              		.cfi_restore 8
 180              		.cfi_def_cfa 2, 32
 181 0048 83348100 		ld	s1,8(sp)
 182              		.cfi_restore 9
 183              	.LVL11:
 184 004c 13010102 		addi	sp,sp,32
 185              		.cfi_def_cfa_offset 0
 186 0050 67800000 		jr	ra
 187              		.cfi_endproc
 188              	.LFE45:
 189              		.section	.gcc_except_table._ZN9SemaphoreD0Ev,"aG",@progbits,_ZN9SemaphoreD5Ev,comdat
 190              	.LLSDA45:
 191 0000 FF       		.byte	0xff
 192 0001 FF       		.byte	0xff
 193 0002 03       		.byte	0x3
 194 0003 0D       		.byte	0xd
 195 0004 00000000 		.4byte	.LEHB0-.LFB45
 196 0008 00000000 		.4byte	.LEHE0-.LEHB0
 197 000c 00000000 		.4byte	0
 198 0010 00       		.byte	0
 199              		.section	.text._ZN9SemaphoreD0Ev,"axG",@progbits,_ZN9SemaphoreD5Ev,comdat
 201              		.section	.text._ZN6ThreadD2Ev,"axG",@progbits,_ZN6ThreadD5Ev,comdat
 202              		.align	2
 203              		.weak	_ZN6ThreadD2Ev
GAS LISTING /tmp/ccLq5UYy.s 			page 6


 205              	_ZN6ThreadD2Ev:
 206              	.LFB29:
  28:test/../h/syscall_cpp.hpp ****         myHandle->setState(PCB::FINISHED);
 207              		.loc 1 28 13 is_stmt 1
 208              		.cfi_startproc
 209              		.cfi_personality 0x9b,DW.ref.__gxx_personality_v0
 210              		.cfi_lsda 0x1b,.LLSDA29
 211              	.LVL12:
 212 0000 130101FE 		addi	sp,sp,-32
 213              		.cfi_def_cfa_offset 32
 214 0004 233C1100 		sd	ra,24(sp)
 215 0008 23388100 		sd	s0,16(sp)
 216 000c 23349100 		sd	s1,8(sp)
 217              		.cfi_offset 1, -8
 218              		.cfi_offset 8, -16
 219              		.cfi_offset 9, -24
 220 0010 13040102 		addi	s0,sp,32
 221              		.cfi_def_cfa 8, 0
 222              	.LBB87:
  28:test/../h/syscall_cpp.hpp ****         myHandle->setState(PCB::FINISHED);
 223              		.loc 1 28 23 is_stmt 0
 224 0014 97070000 		lla	a5,_ZTV6Thread+16
 224      93870700 
 225 001c 2330F500 		sd	a5,0(a0)
  29:test/../h/syscall_cpp.hpp ****         delete myHandle;
 226              		.loc 1 29 9 is_stmt 1
 227 0020 83378500 		ld	a5,8(a0)
 228              	.LVL13:
 229              	.LBB88:
 230              	.LBB89:
 231              		.file 2 "test/../h/PCB.hpp"
   1:test/../h/PCB.hpp **** //
   2:test/../h/PCB.hpp **** // Created by marko on 20.4.22..
   3:test/../h/PCB.hpp **** //
   4:test/../h/PCB.hpp **** 
   5:test/../h/PCB.hpp **** #ifndef OS1_VEZBE07_RISCV_CONTEXT_SWITCH_1_SYNCHRONOUS_CCB_HPP
   6:test/../h/PCB.hpp **** #define OS1_VEZBE07_RISCV_CONTEXT_SWITCH_1_SYNCHRONOUS_CCB_HPP
   7:test/../h/PCB.hpp **** 
   8:test/../h/PCB.hpp **** 
   9:test/../h/PCB.hpp **** #include "../lib/hw.h"
  10:test/../h/PCB.hpp **** #include "scheduler.hpp"
  11:test/../h/PCB.hpp **** #include "../h/syscall_c.hpp"
  12:test/../h/PCB.hpp **** #include "MemoryAllocator.hpp"
  13:test/../h/PCB.hpp **** // static int id = 0;
  14:test/../h/PCB.hpp **** 
  15:test/../h/PCB.hpp **** class PCB {
  16:test/../h/PCB.hpp **** public:
  17:test/../h/PCB.hpp ****     ~PCB() { delete[] stack; }
  18:test/../h/PCB.hpp **** 
  19:test/../h/PCB.hpp ****     enum threadState {
  20:test/../h/PCB.hpp ****         CREATED, READY, RUNNING, SLEEPING, BLOCKED, FINISHED, IDLE
  21:test/../h/PCB.hpp ****     };
  22:test/../h/PCB.hpp **** 
  23:test/../h/PCB.hpp ****     bool isSystem() const { return system; }
  24:test/../h/PCB.hpp **** 
  25:test/../h/PCB.hpp ****     void setSystem(bool value) { system = value; }
  26:test/../h/PCB.hpp **** 
GAS LISTING /tmp/ccLq5UYy.s 			page 7


  27:test/../h/PCB.hpp ****     bool isParentWaitng() const { return isWaiting; }
  28:test/../h/PCB.hpp **** 
  29:test/../h/PCB.hpp ****     void parentNotWaitng() { isWaiting = false; }
  30:test/../h/PCB.hpp **** 
  31:test/../h/PCB.hpp ****     PCB *getParent() const { return parent; }
  32:test/../h/PCB.hpp **** 
  33:test/../h/PCB.hpp ****     void setParent(PCB *pcb) { parent = pcb; }
  34:test/../h/PCB.hpp **** 
  35:test/../h/PCB.hpp ****     using Body = void (*)(void *);
  36:test/../h/PCB.hpp **** 
  37:test/../h/PCB.hpp ****     static thread_t create_thread(Body body, void *arg, uint64 *stack_space);
  38:test/../h/PCB.hpp **** 
  39:test/../h/PCB.hpp ****     static void yield();
  40:test/../h/PCB.hpp **** 
  41:test/../h/PCB.hpp ****     static void dispatch();
  42:test/../h/PCB.hpp **** 
  43:test/../h/PCB.hpp ****     threadState getState() const { return state; }
  44:test/../h/PCB.hpp **** 
  45:test/../h/PCB.hpp ****     void setState(threadState st) { state = st; }
 232              		.loc 2 45 37
 233              		.loc 2 45 43 is_stmt 0
 234 0024 13075000 		li	a4,5
 235 0028 23A8E702 		sw	a4,48(a5)
 236              	.LVL14:
 237              	.LBE89:
 238              	.LBE88:
  30:test/../h/syscall_cpp.hpp ****     }
 239              		.loc 1 30 9 is_stmt 1
  30:test/../h/syscall_cpp.hpp ****     }
 240              		.loc 1 30 16 is_stmt 0
 241 002c 83348500 		ld	s1,8(a0)
  30:test/../h/syscall_cpp.hpp ****     }
 242              		.loc 1 30 24
 243 0030 63800402 		beqz	s1,.L14
 244              	.LVL15:
 245              	.LBB90:
 246              	.LBB91:
  17:test/../h/PCB.hpp **** 
 247              		.loc 2 17 14 is_stmt 1
  17:test/../h/PCB.hpp **** 
 248              		.loc 2 17 23 is_stmt 0
 249 0034 03B58401 		ld	a0,24(s1)
 250              	.LVL16:
  17:test/../h/PCB.hpp **** 
 251              		.loc 2 17 28
 252 0038 63060500 		beqz	a0,.L16
  17:test/../h/PCB.hpp **** 
 253              		.loc 2 17 23
 254 003c 97000000 		call	_ZdaPv@plt
 254      E7800000 
 255              	.LVL17:
 256              	.L16:
 257              	.LBE91:
 258              	.LBE90:
  30:test/../h/syscall_cpp.hpp ****     }
 259              		.loc 1 30 16
 260 0044 13850400 		mv	a0,s1
GAS LISTING /tmp/ccLq5UYy.s 			page 8


 261 0048 97000000 		call	_ZdlPv@plt
 261      E7800000 
 262              	.LVL18:
 263              	.L14:
 264              	.LBE87:
  31:test/../h/syscall_cpp.hpp **** 
 265              		.loc 1 31 5
 266 0050 83308101 		ld	ra,24(sp)
 267              		.cfi_restore 1
 268 0054 03340101 		ld	s0,16(sp)
 269              		.cfi_restore 8
 270              		.cfi_def_cfa 2, 32
 271 0058 83348100 		ld	s1,8(sp)
 272              		.cfi_restore 9
 273 005c 13010102 		addi	sp,sp,32
 274              		.cfi_def_cfa_offset 0
 275 0060 67800000 		jr	ra
 276              		.cfi_endproc
 277              	.LFE29:
 278              		.section	.gcc_except_table._ZN6ThreadD2Ev,"aG",@progbits,_ZN6ThreadD5Ev,comdat
 279              	.LLSDA29:
 280 0000 FF       		.byte	0xff
 281 0001 FF       		.byte	0xff
 282 0002 03       		.byte	0x3
 283 0003 00       		.byte	0
 284              		.section	.text._ZN6ThreadD2Ev,"axG",@progbits,_ZN6ThreadD5Ev,comdat
 286              		.weak	_ZN6ThreadD1Ev
 287              		.set	_ZN6ThreadD1Ev,_ZN6ThreadD2Ev
 288              		.section	.text._ZN16ProducerKeyboardD2Ev,"axG",@progbits,_ZN16ProducerKeyboardD5Ev,comdat
 289              		.align	2
 290              		.weak	_ZN16ProducerKeyboardD2Ev
 292              	_ZN16ProducerKeyboardD2Ev:
 293              	.LFB73:
 294              		.file 3 "test/ConsumerProducer_CPP_Sync_API_test.cpp"
   1:test/ConsumerProducer_CPP_Sync_API_test.cpp **** #include "../h/syscall_cpp.hpp"
   2:test/ConsumerProducer_CPP_Sync_API_test.cpp **** 
   3:test/ConsumerProducer_CPP_Sync_API_test.cpp **** #include "buffer_CPP_API.hpp"
   4:test/ConsumerProducer_CPP_Sync_API_test.cpp **** 
   5:test/ConsumerProducer_CPP_Sync_API_test.cpp **** static Semaphore *waitForAll;
   6:test/ConsumerProducer_CPP_Sync_API_test.cpp **** 
   7:test/ConsumerProducer_CPP_Sync_API_test.cpp **** struct thread_data {
   8:test/ConsumerProducer_CPP_Sync_API_test.cpp ****     int id;
   9:test/ConsumerProducer_CPP_Sync_API_test.cpp ****     BufferCPP *buffer;
  10:test/ConsumerProducer_CPP_Sync_API_test.cpp ****     Semaphore *wait;
  11:test/ConsumerProducer_CPP_Sync_API_test.cpp **** };
  12:test/ConsumerProducer_CPP_Sync_API_test.cpp **** 
  13:test/ConsumerProducer_CPP_Sync_API_test.cpp **** static volatile int threadEnd = 0;
  14:test/ConsumerProducer_CPP_Sync_API_test.cpp **** 
  15:test/ConsumerProducer_CPP_Sync_API_test.cpp **** class ProducerKeyboard : public Thread {
 295              		.loc 3 15 7 is_stmt 1
 296              		.cfi_startproc
 297              		.cfi_personality 0x9b,DW.ref.__gxx_personality_v0
 298              		.cfi_lsda 0x1b,.LLSDA73
 299              	.LVL19:
 300 0000 130101FE 		addi	sp,sp,-32
 301              		.cfi_def_cfa_offset 32
 302 0004 233C1100 		sd	ra,24(sp)
GAS LISTING /tmp/ccLq5UYy.s 			page 9


 303 0008 23388100 		sd	s0,16(sp)
 304 000c 23349100 		sd	s1,8(sp)
 305              		.cfi_offset 1, -8
 306              		.cfi_offset 8, -16
 307              		.cfi_offset 9, -24
 308 0010 13040102 		addi	s0,sp,32
 309              		.cfi_def_cfa 8, 0
 310              	.LVL20:
 311              	.LBB100:
 312              	.LBB101:
 313              	.LBB102:
  28:test/../h/syscall_cpp.hpp ****         myHandle->setState(PCB::FINISHED);
 314              		.loc 1 28 23 is_stmt 0
 315 0014 97070000 		lla	a5,_ZTV6Thread+16
 315      93870700 
 316 001c 2330F500 		sd	a5,0(a0)
  29:test/../h/syscall_cpp.hpp ****         delete myHandle;
 317              		.loc 1 29 9 is_stmt 1
 318 0020 83378500 		ld	a5,8(a0)
 319              	.LVL21:
 320              	.LBB103:
 321              	.LBB104:
 322              		.loc 2 45 37
 323              		.loc 2 45 43 is_stmt 0
 324 0024 13075000 		li	a4,5
 325 0028 23A8E702 		sw	a4,48(a5)
 326              	.LVL22:
 327              	.LBE104:
 328              	.LBE103:
  30:test/../h/syscall_cpp.hpp ****     }
 329              		.loc 1 30 9 is_stmt 1
  30:test/../h/syscall_cpp.hpp ****     }
 330              		.loc 1 30 16 is_stmt 0
 331 002c 83348500 		ld	s1,8(a0)
  30:test/../h/syscall_cpp.hpp ****     }
 332              		.loc 1 30 24
 333 0030 63800402 		beqz	s1,.L18
 334              	.LVL23:
 335              	.LBB105:
 336              	.LBB106:
  17:test/../h/PCB.hpp **** 
 337              		.loc 2 17 14 is_stmt 1
  17:test/../h/PCB.hpp **** 
 338              		.loc 2 17 23 is_stmt 0
 339 0034 03B58401 		ld	a0,24(s1)
 340              	.LVL24:
  17:test/../h/PCB.hpp **** 
 341              		.loc 2 17 28
 342 0038 63060500 		beqz	a0,.L20
  17:test/../h/PCB.hpp **** 
 343              		.loc 2 17 23
 344 003c 97000000 		call	_ZdaPv@plt
 344      E7800000 
 345              	.LVL25:
 346              	.L20:
 347              	.LBE106:
 348              	.LBE105:
GAS LISTING /tmp/ccLq5UYy.s 			page 10


  30:test/../h/syscall_cpp.hpp ****     }
 349              		.loc 1 30 16
 350 0044 13850400 		mv	a0,s1
 351 0048 97000000 		call	_ZdlPv@plt
 351      E7800000 
 352              	.LVL26:
 353              	.L18:
 354              	.LBE102:
 355              	.LBE101:
 356              	.LBE100:
 357              		.loc 3 15 7
 358 0050 83308101 		ld	ra,24(sp)
 359              		.cfi_restore 1
 360 0054 03340101 		ld	s0,16(sp)
 361              		.cfi_restore 8
 362              		.cfi_def_cfa 2, 32
 363 0058 83348100 		ld	s1,8(sp)
 364              		.cfi_restore 9
 365 005c 13010102 		addi	sp,sp,32
 366              		.cfi_def_cfa_offset 0
 367 0060 67800000 		jr	ra
 368              		.cfi_endproc
 369              	.LFE73:
 370              		.section	.gcc_except_table._ZN16ProducerKeyboardD2Ev,"aG",@progbits,_ZN16ProducerKeyboardD5Ev,comd
 371              	.LLSDA73:
 372 0000 FF       		.byte	0xff
 373 0001 FF       		.byte	0xff
 374 0002 03       		.byte	0x3
 375 0003 00       		.byte	0
 376              		.section	.text._ZN16ProducerKeyboardD2Ev,"axG",@progbits,_ZN16ProducerKeyboardD5Ev,comdat
 378              		.weak	_ZN16ProducerKeyboardD1Ev
 379              		.set	_ZN16ProducerKeyboardD1Ev,_ZN16ProducerKeyboardD2Ev
 380              		.section	.text._ZN12ConsumerSyncD2Ev,"axG",@progbits,_ZN12ConsumerSyncD5Ev,comdat
 381              		.align	2
 382              		.weak	_ZN12ConsumerSyncD2Ev
 384              	_ZN12ConsumerSyncD2Ev:
 385              	.LFB65:
  16:test/ConsumerProducer_CPP_Sync_API_test.cpp ****     thread_data *td;
  17:test/ConsumerProducer_CPP_Sync_API_test.cpp **** 
  18:test/ConsumerProducer_CPP_Sync_API_test.cpp ****     void producerKeyboard(void *arg);
  19:test/ConsumerProducer_CPP_Sync_API_test.cpp **** 
  20:test/ConsumerProducer_CPP_Sync_API_test.cpp **** public:
  21:test/ConsumerProducer_CPP_Sync_API_test.cpp ****     ProducerKeyboard(thread_data *_td): Thread(), td(_td) {
  22:test/ConsumerProducer_CPP_Sync_API_test.cpp ****     }
  23:test/ConsumerProducer_CPP_Sync_API_test.cpp **** 
  24:test/ConsumerProducer_CPP_Sync_API_test.cpp ****     void run() override {
  25:test/ConsumerProducer_CPP_Sync_API_test.cpp ****         producerKeyboard(td);
  26:test/ConsumerProducer_CPP_Sync_API_test.cpp ****     }
  27:test/ConsumerProducer_CPP_Sync_API_test.cpp **** };
  28:test/ConsumerProducer_CPP_Sync_API_test.cpp **** 
  29:test/ConsumerProducer_CPP_Sync_API_test.cpp **** void ProducerKeyboard::producerKeyboard(void *arg) {
  30:test/ConsumerProducer_CPP_Sync_API_test.cpp ****     struct thread_data *data = (struct thread_data *) arg;
  31:test/ConsumerProducer_CPP_Sync_API_test.cpp **** 
  32:test/ConsumerProducer_CPP_Sync_API_test.cpp ****     int key;
  33:test/ConsumerProducer_CPP_Sync_API_test.cpp ****     int i = 0;
  34:test/ConsumerProducer_CPP_Sync_API_test.cpp ****     while ((key = getc()) != 97) {
  35:test/ConsumerProducer_CPP_Sync_API_test.cpp ****         data->buffer->put(key);
GAS LISTING /tmp/ccLq5UYy.s 			page 11


  36:test/ConsumerProducer_CPP_Sync_API_test.cpp ****         i++;
  37:test/ConsumerProducer_CPP_Sync_API_test.cpp **** 
  38:test/ConsumerProducer_CPP_Sync_API_test.cpp ****         if (i % (10 * data->id) == 0) {
  39:test/ConsumerProducer_CPP_Sync_API_test.cpp ****             Thread::dispatch();
  40:test/ConsumerProducer_CPP_Sync_API_test.cpp ****         }
  41:test/ConsumerProducer_CPP_Sync_API_test.cpp ****     }
  42:test/ConsumerProducer_CPP_Sync_API_test.cpp **** 
  43:test/ConsumerProducer_CPP_Sync_API_test.cpp ****     threadEnd = 1;
  44:test/ConsumerProducer_CPP_Sync_API_test.cpp ****     td->buffer->put('!');
  45:test/ConsumerProducer_CPP_Sync_API_test.cpp **** 
  46:test/ConsumerProducer_CPP_Sync_API_test.cpp ****     data->wait->signal();
  47:test/ConsumerProducer_CPP_Sync_API_test.cpp **** }
  48:test/ConsumerProducer_CPP_Sync_API_test.cpp **** 
  49:test/ConsumerProducer_CPP_Sync_API_test.cpp **** class ProducerSync : public Thread {
  50:test/ConsumerProducer_CPP_Sync_API_test.cpp ****     thread_data *td;
  51:test/ConsumerProducer_CPP_Sync_API_test.cpp **** 
  52:test/ConsumerProducer_CPP_Sync_API_test.cpp ****     void producer(void *arg);
  53:test/ConsumerProducer_CPP_Sync_API_test.cpp **** 
  54:test/ConsumerProducer_CPP_Sync_API_test.cpp **** public:
  55:test/ConsumerProducer_CPP_Sync_API_test.cpp ****     ProducerSync(thread_data *_td): Thread(), td(_td) {
  56:test/ConsumerProducer_CPP_Sync_API_test.cpp ****     }
  57:test/ConsumerProducer_CPP_Sync_API_test.cpp **** 
  58:test/ConsumerProducer_CPP_Sync_API_test.cpp ****     void run() override {
  59:test/ConsumerProducer_CPP_Sync_API_test.cpp ****         producer(td);
  60:test/ConsumerProducer_CPP_Sync_API_test.cpp ****     }
  61:test/ConsumerProducer_CPP_Sync_API_test.cpp **** };
  62:test/ConsumerProducer_CPP_Sync_API_test.cpp **** 
  63:test/ConsumerProducer_CPP_Sync_API_test.cpp **** void ProducerSync::producer(void *arg) {
  64:test/ConsumerProducer_CPP_Sync_API_test.cpp ****     struct thread_data *data = (struct thread_data *) arg;
  65:test/ConsumerProducer_CPP_Sync_API_test.cpp **** 
  66:test/ConsumerProducer_CPP_Sync_API_test.cpp ****     int i = 0;
  67:test/ConsumerProducer_CPP_Sync_API_test.cpp ****     while (!threadEnd) {
  68:test/ConsumerProducer_CPP_Sync_API_test.cpp ****         data->buffer->put(data->id + '0');
  69:test/ConsumerProducer_CPP_Sync_API_test.cpp ****         i++;
  70:test/ConsumerProducer_CPP_Sync_API_test.cpp **** 
  71:test/ConsumerProducer_CPP_Sync_API_test.cpp ****         if (i % (10 * data->id) == 0) {
  72:test/ConsumerProducer_CPP_Sync_API_test.cpp ****             Thread::dispatch();
  73:test/ConsumerProducer_CPP_Sync_API_test.cpp ****         }
  74:test/ConsumerProducer_CPP_Sync_API_test.cpp ****     }
  75:test/ConsumerProducer_CPP_Sync_API_test.cpp **** 
  76:test/ConsumerProducer_CPP_Sync_API_test.cpp ****     data->wait->signal();
  77:test/ConsumerProducer_CPP_Sync_API_test.cpp **** }
  78:test/ConsumerProducer_CPP_Sync_API_test.cpp **** 
  79:test/ConsumerProducer_CPP_Sync_API_test.cpp **** class ConsumerSync : public Thread {
 386              		.loc 3 79 7 is_stmt 1
 387              		.cfi_startproc
 388              		.cfi_personality 0x9b,DW.ref.__gxx_personality_v0
 389              		.cfi_lsda 0x1b,.LLSDA65
 390              	.LVL27:
 391 0000 130101FE 		addi	sp,sp,-32
 392              		.cfi_def_cfa_offset 32
 393 0004 233C1100 		sd	ra,24(sp)
 394 0008 23388100 		sd	s0,16(sp)
 395 000c 23349100 		sd	s1,8(sp)
 396              		.cfi_offset 1, -8
 397              		.cfi_offset 8, -16
 398              		.cfi_offset 9, -24
GAS LISTING /tmp/ccLq5UYy.s 			page 12


 399 0010 13040102 		addi	s0,sp,32
 400              		.cfi_def_cfa 8, 0
 401              	.LVL28:
 402              	.LBB115:
 403              	.LBB116:
 404              	.LBB117:
  28:test/../h/syscall_cpp.hpp ****         myHandle->setState(PCB::FINISHED);
 405              		.loc 1 28 23 is_stmt 0
 406 0014 97070000 		lla	a5,_ZTV6Thread+16
 406      93870700 
 407 001c 2330F500 		sd	a5,0(a0)
  29:test/../h/syscall_cpp.hpp ****         delete myHandle;
 408              		.loc 1 29 9 is_stmt 1
 409 0020 83378500 		ld	a5,8(a0)
 410              	.LVL29:
 411              	.LBB118:
 412              	.LBB119:
 413              		.loc 2 45 37
 414              		.loc 2 45 43 is_stmt 0
 415 0024 13075000 		li	a4,5
 416 0028 23A8E702 		sw	a4,48(a5)
 417              	.LVL30:
 418              	.LBE119:
 419              	.LBE118:
  30:test/../h/syscall_cpp.hpp ****     }
 420              		.loc 1 30 9 is_stmt 1
  30:test/../h/syscall_cpp.hpp ****     }
 421              		.loc 1 30 16 is_stmt 0
 422 002c 83348500 		ld	s1,8(a0)
  30:test/../h/syscall_cpp.hpp ****     }
 423              		.loc 1 30 24
 424 0030 63800402 		beqz	s1,.L22
 425              	.LVL31:
 426              	.LBB120:
 427              	.LBB121:
  17:test/../h/PCB.hpp **** 
 428              		.loc 2 17 14 is_stmt 1
  17:test/../h/PCB.hpp **** 
 429              		.loc 2 17 23 is_stmt 0
 430 0034 03B58401 		ld	a0,24(s1)
 431              	.LVL32:
  17:test/../h/PCB.hpp **** 
 432              		.loc 2 17 28
 433 0038 63060500 		beqz	a0,.L24
  17:test/../h/PCB.hpp **** 
 434              		.loc 2 17 23
 435 003c 97000000 		call	_ZdaPv@plt
 435      E7800000 
 436              	.LVL33:
 437              	.L24:
 438              	.LBE121:
 439              	.LBE120:
  30:test/../h/syscall_cpp.hpp ****     }
 440              		.loc 1 30 16
 441 0044 13850400 		mv	a0,s1
 442 0048 97000000 		call	_ZdlPv@plt
 442      E7800000 
GAS LISTING /tmp/ccLq5UYy.s 			page 13


 443              	.LVL34:
 444              	.L22:
 445              	.LBE117:
 446              	.LBE116:
 447              	.LBE115:
 448              		.loc 3 79 7
 449 0050 83308101 		ld	ra,24(sp)
 450              		.cfi_restore 1
 451 0054 03340101 		ld	s0,16(sp)
 452              		.cfi_restore 8
 453              		.cfi_def_cfa 2, 32
 454 0058 83348100 		ld	s1,8(sp)
 455              		.cfi_restore 9
 456 005c 13010102 		addi	sp,sp,32
 457              		.cfi_def_cfa_offset 0
 458 0060 67800000 		jr	ra
 459              		.cfi_endproc
 460              	.LFE65:
 461              		.section	.gcc_except_table._ZN12ConsumerSyncD2Ev,"aG",@progbits,_ZN12ConsumerSyncD5Ev,comdat
 462              	.LLSDA65:
 463 0000 FF       		.byte	0xff
 464 0001 FF       		.byte	0xff
 465 0002 03       		.byte	0x3
 466 0003 00       		.byte	0
 467              		.section	.text._ZN12ConsumerSyncD2Ev,"axG",@progbits,_ZN12ConsumerSyncD5Ev,comdat
 469              		.weak	_ZN12ConsumerSyncD1Ev
 470              		.set	_ZN12ConsumerSyncD1Ev,_ZN12ConsumerSyncD2Ev
 471              		.section	.text._ZN12ProducerSyncD2Ev,"axG",@progbits,_ZN12ProducerSyncD5Ev,comdat
 472              		.align	2
 473              		.weak	_ZN12ProducerSyncD2Ev
 475              	_ZN12ProducerSyncD2Ev:
 476              	.LFB69:
  49:test/ConsumerProducer_CPP_Sync_API_test.cpp ****     thread_data *td;
 477              		.loc 3 49 7 is_stmt 1
 478              		.cfi_startproc
 479              		.cfi_personality 0x9b,DW.ref.__gxx_personality_v0
 480              		.cfi_lsda 0x1b,.LLSDA69
 481              	.LVL35:
 482 0000 130101FE 		addi	sp,sp,-32
 483              		.cfi_def_cfa_offset 32
 484 0004 233C1100 		sd	ra,24(sp)
 485 0008 23388100 		sd	s0,16(sp)
 486 000c 23349100 		sd	s1,8(sp)
 487              		.cfi_offset 1, -8
 488              		.cfi_offset 8, -16
 489              		.cfi_offset 9, -24
 490 0010 13040102 		addi	s0,sp,32
 491              		.cfi_def_cfa 8, 0
 492              	.LVL36:
 493              	.LBB130:
 494              	.LBB131:
 495              	.LBB132:
  28:test/../h/syscall_cpp.hpp ****         myHandle->setState(PCB::FINISHED);
 496              		.loc 1 28 23 is_stmt 0
 497 0014 97070000 		lla	a5,_ZTV6Thread+16
 497      93870700 
 498 001c 2330F500 		sd	a5,0(a0)
GAS LISTING /tmp/ccLq5UYy.s 			page 14


  29:test/../h/syscall_cpp.hpp ****         delete myHandle;
 499              		.loc 1 29 9 is_stmt 1
 500 0020 83378500 		ld	a5,8(a0)
 501              	.LVL37:
 502              	.LBB133:
 503              	.LBB134:
 504              		.loc 2 45 37
 505              		.loc 2 45 43 is_stmt 0
 506 0024 13075000 		li	a4,5
 507 0028 23A8E702 		sw	a4,48(a5)
 508              	.LVL38:
 509              	.LBE134:
 510              	.LBE133:
  30:test/../h/syscall_cpp.hpp ****     }
 511              		.loc 1 30 9 is_stmt 1
  30:test/../h/syscall_cpp.hpp ****     }
 512              		.loc 1 30 16 is_stmt 0
 513 002c 83348500 		ld	s1,8(a0)
  30:test/../h/syscall_cpp.hpp ****     }
 514              		.loc 1 30 24
 515 0030 63800402 		beqz	s1,.L26
 516              	.LVL39:
 517              	.LBB135:
 518              	.LBB136:
  17:test/../h/PCB.hpp **** 
 519              		.loc 2 17 14 is_stmt 1
  17:test/../h/PCB.hpp **** 
 520              		.loc 2 17 23 is_stmt 0
 521 0034 03B58401 		ld	a0,24(s1)
 522              	.LVL40:
  17:test/../h/PCB.hpp **** 
 523              		.loc 2 17 28
 524 0038 63060500 		beqz	a0,.L28
  17:test/../h/PCB.hpp **** 
 525              		.loc 2 17 23
 526 003c 97000000 		call	_ZdaPv@plt
 526      E7800000 
 527              	.LVL41:
 528              	.L28:
 529              	.LBE136:
 530              	.LBE135:
  30:test/../h/syscall_cpp.hpp ****     }
 531              		.loc 1 30 16
 532 0044 13850400 		mv	a0,s1
 533 0048 97000000 		call	_ZdlPv@plt
 533      E7800000 
 534              	.LVL42:
 535              	.L26:
 536              	.LBE132:
 537              	.LBE131:
 538              	.LBE130:
  49:test/ConsumerProducer_CPP_Sync_API_test.cpp ****     thread_data *td;
 539              		.loc 3 49 7
 540 0050 83308101 		ld	ra,24(sp)
 541              		.cfi_restore 1
 542 0054 03340101 		ld	s0,16(sp)
 543              		.cfi_restore 8
GAS LISTING /tmp/ccLq5UYy.s 			page 15


 544              		.cfi_def_cfa 2, 32
 545 0058 83348100 		ld	s1,8(sp)
 546              		.cfi_restore 9
 547 005c 13010102 		addi	sp,sp,32
 548              		.cfi_def_cfa_offset 0
 549 0060 67800000 		jr	ra
 550              		.cfi_endproc
 551              	.LFE69:
 552              		.section	.gcc_except_table._ZN12ProducerSyncD2Ev,"aG",@progbits,_ZN12ProducerSyncD5Ev,comdat
 553              	.LLSDA69:
 554 0000 FF       		.byte	0xff
 555 0001 FF       		.byte	0xff
 556 0002 03       		.byte	0x3
 557 0003 00       		.byte	0
 558              		.section	.text._ZN12ProducerSyncD2Ev,"axG",@progbits,_ZN12ProducerSyncD5Ev,comdat
 560              		.weak	_ZN12ProducerSyncD1Ev
 561              		.set	_ZN12ProducerSyncD1Ev,_ZN12ProducerSyncD2Ev
 562              		.section	.text._ZN6ThreadD0Ev,"axG",@progbits,_ZN6ThreadD5Ev,comdat
 563              		.align	2
 564              		.weak	_ZN6ThreadD0Ev
 566              	_ZN6ThreadD0Ev:
 567              	.LFB31:
  28:test/../h/syscall_cpp.hpp ****         myHandle->setState(PCB::FINISHED);
 568              		.loc 1 28 13 is_stmt 1
 569              		.cfi_startproc
 570              		.cfi_personality 0x9b,DW.ref.__gxx_personality_v0
 571              		.cfi_lsda 0x1b,.LLSDA31
 572              	.LVL43:
 573 0000 130101FE 		addi	sp,sp,-32
 574              		.cfi_def_cfa_offset 32
 575 0004 233C1100 		sd	ra,24(sp)
 576 0008 23388100 		sd	s0,16(sp)
 577 000c 23349100 		sd	s1,8(sp)
 578 0010 23302101 		sd	s2,0(sp)
 579              		.cfi_offset 1, -8
 580              		.cfi_offset 8, -16
 581              		.cfi_offset 9, -24
 582              		.cfi_offset 18, -32
 583 0014 13040102 		addi	s0,sp,32
 584              		.cfi_def_cfa 8, 0
 585 0018 93040500 		mv	s1,a0
 586              	.LVL44:
 587              	.LBB144:
 588              	.LBB145:
  28:test/../h/syscall_cpp.hpp ****         myHandle->setState(PCB::FINISHED);
 589              		.loc 1 28 23 is_stmt 0
 590 001c 97070000 		lla	a5,_ZTV6Thread+16
 590      93870700 
 591 0024 2330F500 		sd	a5,0(a0)
  29:test/../h/syscall_cpp.hpp ****         delete myHandle;
 592              		.loc 1 29 9 is_stmt 1
 593 0028 83378500 		ld	a5,8(a0)
 594              	.LVL45:
 595              	.LBB146:
 596              	.LBB147:
 597              		.loc 2 45 37
 598              		.loc 2 45 43 is_stmt 0
GAS LISTING /tmp/ccLq5UYy.s 			page 16


 599 002c 13075000 		li	a4,5
 600 0030 23A8E702 		sw	a4,48(a5)
 601              	.LVL46:
 602              	.LBE147:
 603              	.LBE146:
  30:test/../h/syscall_cpp.hpp ****     }
 604              		.loc 1 30 9 is_stmt 1
  30:test/../h/syscall_cpp.hpp ****     }
 605              		.loc 1 30 16 is_stmt 0
 606 0034 03398500 		ld	s2,8(a0)
  30:test/../h/syscall_cpp.hpp ****     }
 607              		.loc 1 30 24
 608 0038 63000902 		beqz	s2,.L31
 609              	.LVL47:
 610              	.LBB148:
 611              	.LBB149:
  17:test/../h/PCB.hpp **** 
 612              		.loc 2 17 14 is_stmt 1
  17:test/../h/PCB.hpp **** 
 613              		.loc 2 17 23 is_stmt 0
 614 003c 03358901 		ld	a0,24(s2)
 615              	.LVL48:
  17:test/../h/PCB.hpp **** 
 616              		.loc 2 17 28
 617 0040 63060500 		beqz	a0,.L32
  17:test/../h/PCB.hpp **** 
 618              		.loc 2 17 23
 619 0044 97000000 		call	_ZdaPv@plt
 619      E7800000 
 620              	.LVL49:
 621              	.L32:
 622              	.LBE149:
 623              	.LBE148:
  30:test/../h/syscall_cpp.hpp ****     }
 624              		.loc 1 30 16
 625 004c 13050900 		mv	a0,s2
 626 0050 97000000 		call	_ZdlPv@plt
 626      E7800000 
 627              	.LVL50:
 628              	.L31:
 629              	.LBE145:
 630              	.LBE144:
  31:test/../h/syscall_cpp.hpp **** 
 631              		.loc 1 31 5
 632 0058 13850400 		mv	a0,s1
 633              	.LEHB1:
 634 005c 97000000 		call	_ZdlPv@plt
 634      E7800000 
 635              	.LVL51:
 636              	.LEHE1:
 637 0064 83308101 		ld	ra,24(sp)
 638              		.cfi_restore 1
 639 0068 03340101 		ld	s0,16(sp)
 640              		.cfi_restore 8
 641              		.cfi_def_cfa 2, 32
 642 006c 83348100 		ld	s1,8(sp)
 643              		.cfi_restore 9
GAS LISTING /tmp/ccLq5UYy.s 			page 17


 644              	.LVL52:
 645 0070 03390100 		ld	s2,0(sp)
 646              		.cfi_restore 18
 647 0074 13010102 		addi	sp,sp,32
 648              		.cfi_def_cfa_offset 0
 649 0078 67800000 		jr	ra
 650              		.cfi_endproc
 651              	.LFE31:
 652              		.section	.gcc_except_table._ZN6ThreadD0Ev,"aG",@progbits,_ZN6ThreadD5Ev,comdat
 653              	.LLSDA31:
 654 0000 FF       		.byte	0xff
 655 0001 FF       		.byte	0xff
 656 0002 03       		.byte	0x3
 657 0003 0D       		.byte	0xd
 658 0004 00000000 		.4byte	.LEHB1-.LFB31
 659 0008 00000000 		.4byte	.LEHE1-.LEHB1
 660 000c 00000000 		.4byte	0
 661 0010 00       		.byte	0
 662              		.section	.text._ZN6ThreadD0Ev,"axG",@progbits,_ZN6ThreadD5Ev,comdat
 664              		.section	.text._ZN16ProducerKeyboardD0Ev,"axG",@progbits,_ZN16ProducerKeyboardD5Ev,comdat
 665              		.align	2
 666              		.weak	_ZN16ProducerKeyboardD0Ev
 668              	_ZN16ProducerKeyboardD0Ev:
 669              	.LFB75:
  15:test/ConsumerProducer_CPP_Sync_API_test.cpp ****     thread_data *td;
 670              		.loc 3 15 7 is_stmt 1
 671              		.cfi_startproc
 672              		.cfi_personality 0x9b,DW.ref.__gxx_personality_v0
 673              		.cfi_lsda 0x1b,.LLSDA75
 674              	.LVL53:
 675 0000 130101FE 		addi	sp,sp,-32
 676              		.cfi_def_cfa_offset 32
 677 0004 233C1100 		sd	ra,24(sp)
 678 0008 23388100 		sd	s0,16(sp)
 679 000c 23349100 		sd	s1,8(sp)
 680 0010 23302101 		sd	s2,0(sp)
 681              		.cfi_offset 1, -8
 682              		.cfi_offset 8, -16
 683              		.cfi_offset 9, -24
 684              		.cfi_offset 18, -32
 685 0014 13040102 		addi	s0,sp,32
 686              		.cfi_def_cfa 8, 0
 687 0018 93040500 		mv	s1,a0
 688              	.LVL54:
 689              	.LBB159:
 690              	.LBB160:
 691              	.LBB161:
 692              	.LBB162:
  28:test/../h/syscall_cpp.hpp ****         myHandle->setState(PCB::FINISHED);
 693              		.loc 1 28 23 is_stmt 0
 694 001c 97070000 		lla	a5,_ZTV6Thread+16
 694      93870700 
 695 0024 2330F500 		sd	a5,0(a0)
  29:test/../h/syscall_cpp.hpp ****         delete myHandle;
 696              		.loc 1 29 9 is_stmt 1
 697 0028 83378500 		ld	a5,8(a0)
 698              	.LVL55:
GAS LISTING /tmp/ccLq5UYy.s 			page 18


 699              	.LBB163:
 700              	.LBB164:
 701              		.loc 2 45 37
 702              		.loc 2 45 43 is_stmt 0
 703 002c 13075000 		li	a4,5
 704 0030 23A8E702 		sw	a4,48(a5)
 705              	.LVL56:
 706              	.LBE164:
 707              	.LBE163:
  30:test/../h/syscall_cpp.hpp ****     }
 708              		.loc 1 30 9 is_stmt 1
  30:test/../h/syscall_cpp.hpp ****     }
 709              		.loc 1 30 16 is_stmt 0
 710 0034 03398500 		ld	s2,8(a0)
  30:test/../h/syscall_cpp.hpp ****     }
 711              		.loc 1 30 24
 712 0038 63000902 		beqz	s2,.L35
 713              	.LVL57:
 714              	.LBB165:
 715              	.LBB166:
  17:test/../h/PCB.hpp **** 
 716              		.loc 2 17 14 is_stmt 1
  17:test/../h/PCB.hpp **** 
 717              		.loc 2 17 23 is_stmt 0
 718 003c 03358901 		ld	a0,24(s2)
 719              	.LVL58:
  17:test/../h/PCB.hpp **** 
 720              		.loc 2 17 28
 721 0040 63060500 		beqz	a0,.L36
  17:test/../h/PCB.hpp **** 
 722              		.loc 2 17 23
 723 0044 97000000 		call	_ZdaPv@plt
 723      E7800000 
 724              	.LVL59:
 725              	.L36:
 726              	.LBE166:
 727              	.LBE165:
  30:test/../h/syscall_cpp.hpp ****     }
 728              		.loc 1 30 16
 729 004c 13050900 		mv	a0,s2
 730 0050 97000000 		call	_ZdlPv@plt
 730      E7800000 
 731              	.LVL60:
 732              	.L35:
 733              	.LBE162:
 734              	.LBE161:
 735              	.LBE160:
 736              	.LBE159:
  15:test/ConsumerProducer_CPP_Sync_API_test.cpp ****     thread_data *td;
 737              		.loc 3 15 7
 738 0058 13850400 		mv	a0,s1
 739              	.LEHB2:
 740 005c 97000000 		call	_ZdlPv@plt
 740      E7800000 
 741              	.LVL61:
 742              	.LEHE2:
 743 0064 83308101 		ld	ra,24(sp)
GAS LISTING /tmp/ccLq5UYy.s 			page 19


 744              		.cfi_restore 1
 745 0068 03340101 		ld	s0,16(sp)
 746              		.cfi_restore 8
 747              		.cfi_def_cfa 2, 32
 748 006c 83348100 		ld	s1,8(sp)
 749              		.cfi_restore 9
 750              	.LVL62:
 751 0070 03390100 		ld	s2,0(sp)
 752              		.cfi_restore 18
 753 0074 13010102 		addi	sp,sp,32
 754              		.cfi_def_cfa_offset 0
 755 0078 67800000 		jr	ra
 756              		.cfi_endproc
 757              	.LFE75:
 758              		.section	.gcc_except_table._ZN16ProducerKeyboardD0Ev,"aG",@progbits,_ZN16ProducerKeyboardD5Ev,comd
 759              	.LLSDA75:
 760 0000 FF       		.byte	0xff
 761 0001 FF       		.byte	0xff
 762 0002 03       		.byte	0x3
 763 0003 0D       		.byte	0xd
 764 0004 00000000 		.4byte	.LEHB2-.LFB75
 765 0008 00000000 		.4byte	.LEHE2-.LEHB2
 766 000c 00000000 		.4byte	0
 767 0010 00       		.byte	0
 768              		.section	.text._ZN16ProducerKeyboardD0Ev,"axG",@progbits,_ZN16ProducerKeyboardD5Ev,comdat
 770              		.section	.text._ZN12ConsumerSyncD0Ev,"axG",@progbits,_ZN12ConsumerSyncD5Ev,comdat
 771              		.align	2
 772              		.weak	_ZN12ConsumerSyncD0Ev
 774              	_ZN12ConsumerSyncD0Ev:
 775              	.LFB67:
 776              		.loc 3 79 7 is_stmt 1
 777              		.cfi_startproc
 778              		.cfi_personality 0x9b,DW.ref.__gxx_personality_v0
 779              		.cfi_lsda 0x1b,.LLSDA67
 780              	.LVL63:
 781 0000 130101FE 		addi	sp,sp,-32
 782              		.cfi_def_cfa_offset 32
 783 0004 233C1100 		sd	ra,24(sp)
 784 0008 23388100 		sd	s0,16(sp)
 785 000c 23349100 		sd	s1,8(sp)
 786 0010 23302101 		sd	s2,0(sp)
 787              		.cfi_offset 1, -8
 788              		.cfi_offset 8, -16
 789              		.cfi_offset 9, -24
 790              		.cfi_offset 18, -32
 791 0014 13040102 		addi	s0,sp,32
 792              		.cfi_def_cfa 8, 0
 793 0018 93040500 		mv	s1,a0
 794              	.LVL64:
 795              	.LBB176:
 796              	.LBB177:
 797              	.LBB178:
 798              	.LBB179:
  28:test/../h/syscall_cpp.hpp ****         myHandle->setState(PCB::FINISHED);
 799              		.loc 1 28 23 is_stmt 0
 800 001c 97070000 		lla	a5,_ZTV6Thread+16
 800      93870700 
GAS LISTING /tmp/ccLq5UYy.s 			page 20


 801 0024 2330F500 		sd	a5,0(a0)
  29:test/../h/syscall_cpp.hpp ****         delete myHandle;
 802              		.loc 1 29 9 is_stmt 1
 803 0028 83378500 		ld	a5,8(a0)
 804              	.LVL65:
 805              	.LBB180:
 806              	.LBB181:
 807              		.loc 2 45 37
 808              		.loc 2 45 43 is_stmt 0
 809 002c 13075000 		li	a4,5
 810 0030 23A8E702 		sw	a4,48(a5)
 811              	.LVL66:
 812              	.LBE181:
 813              	.LBE180:
  30:test/../h/syscall_cpp.hpp ****     }
 814              		.loc 1 30 9 is_stmt 1
  30:test/../h/syscall_cpp.hpp ****     }
 815              		.loc 1 30 16 is_stmt 0
 816 0034 03398500 		ld	s2,8(a0)
  30:test/../h/syscall_cpp.hpp ****     }
 817              		.loc 1 30 24
 818 0038 63000902 		beqz	s2,.L39
 819              	.LVL67:
 820              	.LBB182:
 821              	.LBB183:
  17:test/../h/PCB.hpp **** 
 822              		.loc 2 17 14 is_stmt 1
  17:test/../h/PCB.hpp **** 
 823              		.loc 2 17 23 is_stmt 0
 824 003c 03358901 		ld	a0,24(s2)
 825              	.LVL68:
  17:test/../h/PCB.hpp **** 
 826              		.loc 2 17 28
 827 0040 63060500 		beqz	a0,.L40
  17:test/../h/PCB.hpp **** 
 828              		.loc 2 17 23
 829 0044 97000000 		call	_ZdaPv@plt
 829      E7800000 
 830              	.LVL69:
 831              	.L40:
 832              	.LBE183:
 833              	.LBE182:
  30:test/../h/syscall_cpp.hpp ****     }
 834              		.loc 1 30 16
 835 004c 13050900 		mv	a0,s2
 836 0050 97000000 		call	_ZdlPv@plt
 836      E7800000 
 837              	.LVL70:
 838              	.L39:
 839              	.LBE179:
 840              	.LBE178:
 841              	.LBE177:
 842              	.LBE176:
 843              		.loc 3 79 7
 844 0058 13850400 		mv	a0,s1
 845              	.LEHB3:
 846 005c 97000000 		call	_ZdlPv@plt
GAS LISTING /tmp/ccLq5UYy.s 			page 21


 846      E7800000 
 847              	.LVL71:
 848              	.LEHE3:
 849 0064 83308101 		ld	ra,24(sp)
 850              		.cfi_restore 1
 851 0068 03340101 		ld	s0,16(sp)
 852              		.cfi_restore 8
 853              		.cfi_def_cfa 2, 32
 854 006c 83348100 		ld	s1,8(sp)
 855              		.cfi_restore 9
 856              	.LVL72:
 857 0070 03390100 		ld	s2,0(sp)
 858              		.cfi_restore 18
 859 0074 13010102 		addi	sp,sp,32
 860              		.cfi_def_cfa_offset 0
 861 0078 67800000 		jr	ra
 862              		.cfi_endproc
 863              	.LFE67:
 864              		.section	.gcc_except_table._ZN12ConsumerSyncD0Ev,"aG",@progbits,_ZN12ConsumerSyncD5Ev,comdat
 865              	.LLSDA67:
 866 0000 FF       		.byte	0xff
 867 0001 FF       		.byte	0xff
 868 0002 03       		.byte	0x3
 869 0003 0D       		.byte	0xd
 870 0004 00000000 		.4byte	.LEHB3-.LFB67
 871 0008 00000000 		.4byte	.LEHE3-.LEHB3
 872 000c 00000000 		.4byte	0
 873 0010 00       		.byte	0
 874              		.section	.text._ZN12ConsumerSyncD0Ev,"axG",@progbits,_ZN12ConsumerSyncD5Ev,comdat
 876              		.section	.text._ZN12ProducerSyncD0Ev,"axG",@progbits,_ZN12ProducerSyncD5Ev,comdat
 877              		.align	2
 878              		.weak	_ZN12ProducerSyncD0Ev
 880              	_ZN12ProducerSyncD0Ev:
 881              	.LFB71:
  49:test/ConsumerProducer_CPP_Sync_API_test.cpp ****     thread_data *td;
 882              		.loc 3 49 7 is_stmt 1
 883              		.cfi_startproc
 884              		.cfi_personality 0x9b,DW.ref.__gxx_personality_v0
 885              		.cfi_lsda 0x1b,.LLSDA71
 886              	.LVL73:
 887 0000 130101FE 		addi	sp,sp,-32
 888              		.cfi_def_cfa_offset 32
 889 0004 233C1100 		sd	ra,24(sp)
 890 0008 23388100 		sd	s0,16(sp)
 891 000c 23349100 		sd	s1,8(sp)
 892 0010 23302101 		sd	s2,0(sp)
 893              		.cfi_offset 1, -8
 894              		.cfi_offset 8, -16
 895              		.cfi_offset 9, -24
 896              		.cfi_offset 18, -32
 897 0014 13040102 		addi	s0,sp,32
 898              		.cfi_def_cfa 8, 0
 899 0018 93040500 		mv	s1,a0
 900              	.LVL74:
 901              	.LBB193:
 902              	.LBB194:
 903              	.LBB195:
GAS LISTING /tmp/ccLq5UYy.s 			page 22


 904              	.LBB196:
  28:test/../h/syscall_cpp.hpp ****         myHandle->setState(PCB::FINISHED);
 905              		.loc 1 28 23 is_stmt 0
 906 001c 97070000 		lla	a5,_ZTV6Thread+16
 906      93870700 
 907 0024 2330F500 		sd	a5,0(a0)
  29:test/../h/syscall_cpp.hpp ****         delete myHandle;
 908              		.loc 1 29 9 is_stmt 1
 909 0028 83378500 		ld	a5,8(a0)
 910              	.LVL75:
 911              	.LBB197:
 912              	.LBB198:
 913              		.loc 2 45 37
 914              		.loc 2 45 43 is_stmt 0
 915 002c 13075000 		li	a4,5
 916 0030 23A8E702 		sw	a4,48(a5)
 917              	.LVL76:
 918              	.LBE198:
 919              	.LBE197:
  30:test/../h/syscall_cpp.hpp ****     }
 920              		.loc 1 30 9 is_stmt 1
  30:test/../h/syscall_cpp.hpp ****     }
 921              		.loc 1 30 16 is_stmt 0
 922 0034 03398500 		ld	s2,8(a0)
  30:test/../h/syscall_cpp.hpp ****     }
 923              		.loc 1 30 24
 924 0038 63000902 		beqz	s2,.L43
 925              	.LVL77:
 926              	.LBB199:
 927              	.LBB200:
  17:test/../h/PCB.hpp **** 
 928              		.loc 2 17 14 is_stmt 1
  17:test/../h/PCB.hpp **** 
 929              		.loc 2 17 23 is_stmt 0
 930 003c 03358901 		ld	a0,24(s2)
 931              	.LVL78:
  17:test/../h/PCB.hpp **** 
 932              		.loc 2 17 28
 933 0040 63060500 		beqz	a0,.L44
  17:test/../h/PCB.hpp **** 
 934              		.loc 2 17 23
 935 0044 97000000 		call	_ZdaPv@plt
 935      E7800000 
 936              	.LVL79:
 937              	.L44:
 938              	.LBE200:
 939              	.LBE199:
  30:test/../h/syscall_cpp.hpp ****     }
 940              		.loc 1 30 16
 941 004c 13050900 		mv	a0,s2
 942 0050 97000000 		call	_ZdlPv@plt
 942      E7800000 
 943              	.LVL80:
 944              	.L43:
 945              	.LBE196:
 946              	.LBE195:
 947              	.LBE194:
GAS LISTING /tmp/ccLq5UYy.s 			page 23


 948              	.LBE193:
  49:test/ConsumerProducer_CPP_Sync_API_test.cpp ****     thread_data *td;
 949              		.loc 3 49 7
 950 0058 13850400 		mv	a0,s1
 951              	.LEHB4:
 952 005c 97000000 		call	_ZdlPv@plt
 952      E7800000 
 953              	.LVL81:
 954              	.LEHE4:
 955 0064 83308101 		ld	ra,24(sp)
 956              		.cfi_restore 1
 957 0068 03340101 		ld	s0,16(sp)
 958              		.cfi_restore 8
 959              		.cfi_def_cfa 2, 32
 960 006c 83348100 		ld	s1,8(sp)
 961              		.cfi_restore 9
 962              	.LVL82:
 963 0070 03390100 		ld	s2,0(sp)
 964              		.cfi_restore 18
 965 0074 13010102 		addi	sp,sp,32
 966              		.cfi_def_cfa_offset 0
 967 0078 67800000 		jr	ra
 968              		.cfi_endproc
 969              	.LFE71:
 970              		.section	.gcc_except_table._ZN12ProducerSyncD0Ev,"aG",@progbits,_ZN12ProducerSyncD5Ev,comdat
 971              	.LLSDA71:
 972 0000 FF       		.byte	0xff
 973 0001 FF       		.byte	0xff
 974 0002 03       		.byte	0x3
 975 0003 0D       		.byte	0xd
 976 0004 00000000 		.4byte	.LEHB4-.LFB71
 977 0008 00000000 		.4byte	.LEHE4-.LEHB4
 978 000c 00000000 		.4byte	0
 979 0010 00       		.byte	0
 980              		.section	.text._ZN12ProducerSyncD0Ev,"axG",@progbits,_ZN12ProducerSyncD5Ev,comdat
 982              		.text
 983              		.align	2
 984              		.globl	_ZN16ProducerKeyboard16producerKeyboardEPv
 986              	_ZN16ProducerKeyboard16producerKeyboardEPv:
 987              	.LFB52:
  29:test/ConsumerProducer_CPP_Sync_API_test.cpp ****     struct thread_data *data = (struct thread_data *) arg;
 988              		.loc 3 29 52 is_stmt 1
 989              		.cfi_startproc
 990              	.LVL83:
 991 0000 130101FD 		addi	sp,sp,-48
 992              		.cfi_def_cfa_offset 48
 993 0004 23341102 		sd	ra,40(sp)
 994 0008 23308102 		sd	s0,32(sp)
 995 000c 233C9100 		sd	s1,24(sp)
 996 0010 23382101 		sd	s2,16(sp)
 997 0014 23343101 		sd	s3,8(sp)
 998              		.cfi_offset 1, -8
 999              		.cfi_offset 8, -16
 1000              		.cfi_offset 9, -24
 1001              		.cfi_offset 18, -32
 1002              		.cfi_offset 19, -40
 1003 0018 13040103 		addi	s0,sp,48
GAS LISTING /tmp/ccLq5UYy.s 			page 24


 1004              		.cfi_def_cfa 8, 0
 1005 001c 93090500 		mv	s3,a0
 1006 0020 93840500 		mv	s1,a1
  30:test/ConsumerProducer_CPP_Sync_API_test.cpp **** 
 1007              		.loc 3 30 5
 1008              	.LVL84:
  32:test/ConsumerProducer_CPP_Sync_API_test.cpp ****     int i = 0;
 1009              		.loc 3 32 5
  33:test/ConsumerProducer_CPP_Sync_API_test.cpp ****     while ((key = getc()) != 97) {
 1010              		.loc 3 33 5
  33:test/ConsumerProducer_CPP_Sync_API_test.cpp ****     while ((key = getc()) != 97) {
 1011              		.loc 3 33 9 is_stmt 0
 1012 0024 13090000 		li	s2,0
 1013 0028 6F00C000 		j	.L47
 1014              	.LVL85:
 1015              	.L52:
  39:test/ConsumerProducer_CPP_Sync_API_test.cpp ****         }
 1016              		.loc 3 39 13 is_stmt 1
 1017              	.LBB201:
 1018              	.LBB202:
  41:test/../h/syscall_cpp.hpp ****     }
 1019              		.loc 1 41 9
  41:test/../h/syscall_cpp.hpp ****     }
 1020              		.loc 1 41 24 is_stmt 0
 1021 002c 97000000 		call	_Z15thread_dispatchv@plt
 1021      E7800000 
 1022              	.LVL86:
 1023              	.L47:
 1024              	.LBE202:
 1025              	.LBE201:
  34:test/ConsumerProducer_CPP_Sync_API_test.cpp ****         data->buffer->put(key);
 1026              		.loc 3 34 5 is_stmt 1
  34:test/ConsumerProducer_CPP_Sync_API_test.cpp ****         data->buffer->put(key);
 1027              		.loc 3 34 27
  34:test/ConsumerProducer_CPP_Sync_API_test.cpp ****         data->buffer->put(key);
 1028              		.loc 3 34 23 is_stmt 0
 1029 0034 97000000 		call	_Z4getcv@plt
 1029      E7800000 
 1030              	.LVL87:
  34:test/ConsumerProducer_CPP_Sync_API_test.cpp ****         data->buffer->put(key);
 1031              		.loc 3 34 17
 1032 003c 9B050500 		sext.w	a1,a0
 1033              	.LVL88:
  34:test/ConsumerProducer_CPP_Sync_API_test.cpp ****         data->buffer->put(key);
 1034              		.loc 3 34 27
 1035 0040 93071006 		li	a5,97
 1036 0044 638AF502 		beq	a1,a5,.L48
  35:test/ConsumerProducer_CPP_Sync_API_test.cpp ****         i++;
 1037              		.loc 3 35 9 is_stmt 1
  35:test/ConsumerProducer_CPP_Sync_API_test.cpp ****         i++;
 1038              		.loc 3 35 26 is_stmt 0
 1039 0048 03B58400 		ld	a0,8(s1)
 1040 004c 97000000 		call	_ZN9BufferCPP3putEi@plt
 1040      E7800000 
 1041              	.LVL89:
  36:test/ConsumerProducer_CPP_Sync_API_test.cpp **** 
 1042              		.loc 3 36 9 is_stmt 1
GAS LISTING /tmp/ccLq5UYy.s 			page 25


  36:test/ConsumerProducer_CPP_Sync_API_test.cpp **** 
 1043              		.loc 3 36 10 is_stmt 0
 1044 0054 1B071900 		addiw	a4,s2,1
 1045 0058 1B090700 		sext.w	s2,a4
 1046              	.LVL90:
  38:test/ConsumerProducer_CPP_Sync_API_test.cpp ****             Thread::dispatch();
 1047              		.loc 3 38 9 is_stmt 1
  38:test/ConsumerProducer_CPP_Sync_API_test.cpp ****             Thread::dispatch();
 1048              		.loc 3 38 29 is_stmt 0
 1049 005c 83A60400 		lw	a3,0(s1)
  38:test/ConsumerProducer_CPP_Sync_API_test.cpp ****             Thread::dispatch();
 1050              		.loc 3 38 21
 1051 0060 9B972600 		slliw	a5,a3,2
 1052 0064 BB87D700 		addw	a5,a5,a3
 1053 0068 9B971700 		slliw	a5,a5,1
  38:test/ConsumerProducer_CPP_Sync_API_test.cpp ****             Thread::dispatch();
 1054              		.loc 3 38 15
 1055 006c BB67F702 		remw	a5,a4,a5
  38:test/ConsumerProducer_CPP_Sync_API_test.cpp ****             Thread::dispatch();
 1056              		.loc 3 38 9
 1057 0070 E39207FC 		bnez	a5,.L47
 1058 0074 6FF09FFB 		j	.L52
 1059              	.LVL91:
 1060              	.L48:
  43:test/ConsumerProducer_CPP_Sync_API_test.cpp ****     td->buffer->put('!');
 1061              		.loc 3 43 5 is_stmt 1
  43:test/ConsumerProducer_CPP_Sync_API_test.cpp ****     td->buffer->put('!');
 1062              		.loc 3 43 15 is_stmt 0
 1063 0078 93071000 		li	a5,1
 1064 007c 17070000 		sw	a5,.LANCHOR0,a4
 1064      2320F700 
  44:test/ConsumerProducer_CPP_Sync_API_test.cpp **** 
 1065              		.loc 3 44 5 is_stmt 1
 1066 0084 83B70902 		ld	a5,32(s3)
  44:test/ConsumerProducer_CPP_Sync_API_test.cpp **** 
 1067              		.loc 3 44 20 is_stmt 0
 1068 0088 93051002 		li	a1,33
 1069              	.LVL92:
 1070 008c 03B58700 		ld	a0,8(a5)
 1071              	.LVL93:
 1072 0090 97000000 		call	_ZN9BufferCPP3putEi@plt
 1072      E7800000 
 1073              	.LVL94:
  46:test/ConsumerProducer_CPP_Sync_API_test.cpp **** }
 1074              		.loc 3 46 5 is_stmt 1
  46:test/ConsumerProducer_CPP_Sync_API_test.cpp **** }
 1075              		.loc 3 46 11 is_stmt 0
 1076 0098 83B70401 		ld	a5,16(s1)
 1077              	.LVL95:
 1078              	.LBB203:
 1079              	.LBB204:
  78:test/../h/syscall_cpp.hpp **** 
  79:test/../h/syscall_cpp.hpp ****     int wait() {
  80:test/../h/syscall_cpp.hpp ****         if (myHandle != nullptr) {
  81:test/../h/syscall_cpp.hpp ****             return sem_wait(myHandle);
  82:test/../h/syscall_cpp.hpp ****         }
  83:test/../h/syscall_cpp.hpp ****         return -1;
GAS LISTING /tmp/ccLq5UYy.s 			page 26


  84:test/../h/syscall_cpp.hpp ****     }
  85:test/../h/syscall_cpp.hpp **** 
  86:test/../h/syscall_cpp.hpp ****     int signal() {
  87:test/../h/syscall_cpp.hpp ****         if (myHandle != nullptr) {
 1080              		.loc 1 87 9 is_stmt 1
 1081              		.loc 1 87 13 is_stmt 0
 1082 009c 03B58700 		ld	a0,8(a5)
 1083              		.loc 1 87 9
 1084 00a0 63060500 		beqz	a0,.L46
  88:test/../h/syscall_cpp.hpp ****             return sem_signal(myHandle);
 1085              		.loc 1 88 13 is_stmt 1
 1086              		.loc 1 88 30 is_stmt 0
 1087 00a4 97000000 		call	_Z10sem_signalP4_sem@plt
 1087      E7800000 
 1088              	.LVL96:
 1089              	.L46:
 1090              	.LBE204:
 1091              	.LBE203:
  47:test/ConsumerProducer_CPP_Sync_API_test.cpp **** 
 1092              		.loc 3 47 1
 1093 00ac 83308102 		ld	ra,40(sp)
 1094              		.cfi_restore 1
 1095 00b0 03340102 		ld	s0,32(sp)
 1096              		.cfi_restore 8
 1097              		.cfi_def_cfa 2, 48
 1098 00b4 83348101 		ld	s1,24(sp)
 1099              		.cfi_restore 9
 1100              	.LVL97:
 1101 00b8 03390101 		ld	s2,16(sp)
 1102              		.cfi_restore 18
 1103              	.LVL98:
 1104 00bc 83398100 		ld	s3,8(sp)
 1105              		.cfi_restore 19
 1106              	.LVL99:
 1107 00c0 13010103 		addi	sp,sp,48
 1108              		.cfi_def_cfa_offset 0
 1109 00c4 67800000 		jr	ra
 1110              		.cfi_endproc
 1111              	.LFE52:
 1113              		.section	.text._ZN16ProducerKeyboard3runEv,"axG",@progbits,_ZN16ProducerKeyboard3runEv,comdat
 1114              		.align	2
 1115              		.weak	_ZN16ProducerKeyboard3runEv
 1117              	_ZN16ProducerKeyboard3runEv:
 1118              	.LFB51:
  24:test/ConsumerProducer_CPP_Sync_API_test.cpp ****         producerKeyboard(td);
 1119              		.loc 3 24 10 is_stmt 1
 1120              		.cfi_startproc
 1121              	.LVL100:
 1122 0000 130101FF 		addi	sp,sp,-16
 1123              		.cfi_def_cfa_offset 16
 1124 0004 23341100 		sd	ra,8(sp)
 1125 0008 23308100 		sd	s0,0(sp)
 1126              		.cfi_offset 1, -8
 1127              		.cfi_offset 8, -16
 1128 000c 13040101 		addi	s0,sp,16
 1129              		.cfi_def_cfa 8, 0
  25:test/ConsumerProducer_CPP_Sync_API_test.cpp ****     }
GAS LISTING /tmp/ccLq5UYy.s 			page 27


 1130              		.loc 3 25 9
  25:test/ConsumerProducer_CPP_Sync_API_test.cpp ****     }
 1131              		.loc 3 25 25 is_stmt 0
 1132 0010 83350502 		ld	a1,32(a0)
 1133 0014 97000000 		call	_ZN16ProducerKeyboard16producerKeyboardEPv
 1133      E7800000 
 1134              	.LVL101:
  26:test/ConsumerProducer_CPP_Sync_API_test.cpp **** };
 1135              		.loc 3 26 5
 1136 001c 83308100 		ld	ra,8(sp)
 1137              		.cfi_restore 1
 1138 0020 03340100 		ld	s0,0(sp)
 1139              		.cfi_restore 8
 1140              		.cfi_def_cfa 2, 16
 1141 0024 13010101 		addi	sp,sp,16
 1142              		.cfi_def_cfa_offset 0
 1143 0028 67800000 		jr	ra
 1144              		.cfi_endproc
 1145              	.LFE51:
 1147              		.text
 1148              		.align	2
 1149              		.globl	_ZN12ProducerSync8producerEPv
 1151              	_ZN12ProducerSync8producerEPv:
 1152              	.LFB57:
  63:test/ConsumerProducer_CPP_Sync_API_test.cpp ****     struct thread_data *data = (struct thread_data *) arg;
 1153              		.loc 3 63 40 is_stmt 1
 1154              		.cfi_startproc
 1155              	.LVL102:
 1156 00c8 130101FE 		addi	sp,sp,-32
 1157              		.cfi_def_cfa_offset 32
 1158 00cc 233C1100 		sd	ra,24(sp)
 1159 00d0 23388100 		sd	s0,16(sp)
 1160 00d4 23349100 		sd	s1,8(sp)
 1161 00d8 23302101 		sd	s2,0(sp)
 1162              		.cfi_offset 1, -8
 1163              		.cfi_offset 8, -16
 1164              		.cfi_offset 9, -24
 1165              		.cfi_offset 18, -32
 1166 00dc 13040102 		addi	s0,sp,32
 1167              		.cfi_def_cfa 8, 0
 1168 00e0 93840500 		mv	s1,a1
  64:test/ConsumerProducer_CPP_Sync_API_test.cpp **** 
 1169              		.loc 3 64 5
 1170              	.LVL103:
  66:test/ConsumerProducer_CPP_Sync_API_test.cpp ****     while (!threadEnd) {
 1171              		.loc 3 66 5
  66:test/ConsumerProducer_CPP_Sync_API_test.cpp ****     while (!threadEnd) {
 1172              		.loc 3 66 9 is_stmt 0
 1173 00e4 13090000 		li	s2,0
 1174 00e8 6F00C000 		j	.L56
 1175              	.LVL104:
 1176              	.L61:
  72:test/ConsumerProducer_CPP_Sync_API_test.cpp ****         }
 1177              		.loc 3 72 13 is_stmt 1
 1178              	.LBB205:
 1179              	.LBB206:
  41:test/../h/syscall_cpp.hpp ****     }
GAS LISTING /tmp/ccLq5UYy.s 			page 28


 1180              		.loc 1 41 9
  41:test/../h/syscall_cpp.hpp ****     }
 1181              		.loc 1 41 24 is_stmt 0
 1182 00ec 97000000 		call	_Z15thread_dispatchv@plt
 1182      E7800000 
 1183              	.LVL105:
 1184              	.L56:
 1185              	.LBE206:
 1186              	.LBE205:
  67:test/ConsumerProducer_CPP_Sync_API_test.cpp ****         data->buffer->put(data->id + '0');
 1187              		.loc 3 67 5 is_stmt 1
  67:test/ConsumerProducer_CPP_Sync_API_test.cpp ****         data->buffer->put(data->id + '0');
 1188              		.loc 3 67 12
 1189 00f4 97070000 		lw	a5,.LANCHOR0
 1189      83A70700 
 1190 00fc 639E0702 		bnez	a5,.L57
  68:test/ConsumerProducer_CPP_Sync_API_test.cpp ****         i++;
 1191              		.loc 3 68 9
  68:test/ConsumerProducer_CPP_Sync_API_test.cpp ****         i++;
 1192              		.loc 3 68 33 is_stmt 0
 1193 0100 83A50400 		lw	a1,0(s1)
  68:test/ConsumerProducer_CPP_Sync_API_test.cpp ****         i++;
 1194              		.loc 3 68 26
 1195 0104 9B850503 		addiw	a1,a1,48
 1196 0108 03B58400 		ld	a0,8(s1)
 1197 010c 97000000 		call	_ZN9BufferCPP3putEi@plt
 1197      E7800000 
 1198              	.LVL106:
  69:test/ConsumerProducer_CPP_Sync_API_test.cpp **** 
 1199              		.loc 3 69 9 is_stmt 1
  69:test/ConsumerProducer_CPP_Sync_API_test.cpp **** 
 1200              		.loc 3 69 10 is_stmt 0
 1201 0114 1B071900 		addiw	a4,s2,1
 1202 0118 1B090700 		sext.w	s2,a4
 1203              	.LVL107:
  71:test/ConsumerProducer_CPP_Sync_API_test.cpp ****             Thread::dispatch();
 1204              		.loc 3 71 9 is_stmt 1
  71:test/ConsumerProducer_CPP_Sync_API_test.cpp ****             Thread::dispatch();
 1205              		.loc 3 71 29 is_stmt 0
 1206 011c 83A60400 		lw	a3,0(s1)
  71:test/ConsumerProducer_CPP_Sync_API_test.cpp ****             Thread::dispatch();
 1207              		.loc 3 71 21
 1208 0120 9B972600 		slliw	a5,a3,2
 1209 0124 BB87D700 		addw	a5,a5,a3
 1210 0128 9B971700 		slliw	a5,a5,1
  71:test/ConsumerProducer_CPP_Sync_API_test.cpp ****             Thread::dispatch();
 1211              		.loc 3 71 15
 1212 012c BB67F702 		remw	a5,a4,a5
  71:test/ConsumerProducer_CPP_Sync_API_test.cpp ****             Thread::dispatch();
 1213              		.loc 3 71 9
 1214 0130 E39207FC 		bnez	a5,.L56
 1215 0134 6FF09FFB 		j	.L61
 1216              	.LVL108:
 1217              	.L57:
  76:test/ConsumerProducer_CPP_Sync_API_test.cpp **** }
 1218              		.loc 3 76 5 is_stmt 1
  76:test/ConsumerProducer_CPP_Sync_API_test.cpp **** }
GAS LISTING /tmp/ccLq5UYy.s 			page 29


 1219              		.loc 3 76 11 is_stmt 0
 1220 0138 83B70401 		ld	a5,16(s1)
 1221              	.LVL109:
 1222              	.LBB207:
 1223              	.LBB208:
  87:test/../h/syscall_cpp.hpp ****             return sem_signal(myHandle);
 1224              		.loc 1 87 9 is_stmt 1
  87:test/../h/syscall_cpp.hpp ****             return sem_signal(myHandle);
 1225              		.loc 1 87 13 is_stmt 0
 1226 013c 03B58700 		ld	a0,8(a5)
  87:test/../h/syscall_cpp.hpp ****             return sem_signal(myHandle);
 1227              		.loc 1 87 9
 1228 0140 63060500 		beqz	a0,.L55
 1229              		.loc 1 88 13 is_stmt 1
 1230              		.loc 1 88 30 is_stmt 0
 1231 0144 97000000 		call	_Z10sem_signalP4_sem@plt
 1231      E7800000 
 1232              	.LVL110:
 1233              	.L55:
 1234              	.LBE208:
 1235              	.LBE207:
  77:test/ConsumerProducer_CPP_Sync_API_test.cpp **** 
 1236              		.loc 3 77 1
 1237 014c 83308101 		ld	ra,24(sp)
 1238              		.cfi_restore 1
 1239 0150 03340101 		ld	s0,16(sp)
 1240              		.cfi_restore 8
 1241              		.cfi_def_cfa 2, 32
 1242 0154 83348100 		ld	s1,8(sp)
 1243              		.cfi_restore 9
 1244              	.LVL111:
 1245 0158 03390100 		ld	s2,0(sp)
 1246              		.cfi_restore 18
 1247              	.LVL112:
 1248 015c 13010102 		addi	sp,sp,32
 1249              		.cfi_def_cfa_offset 0
 1250 0160 67800000 		jr	ra
 1251              		.cfi_endproc
 1252              	.LFE57:
 1254              		.section	.text._ZN12ProducerSync3runEv,"axG",@progbits,_ZN12ProducerSync3runEv,comdat
 1255              		.align	2
 1256              		.weak	_ZN12ProducerSync3runEv
 1258              	_ZN12ProducerSync3runEv:
 1259              	.LFB56:
  58:test/ConsumerProducer_CPP_Sync_API_test.cpp ****         producer(td);
 1260              		.loc 3 58 10 is_stmt 1
 1261              		.cfi_startproc
 1262              	.LVL113:
 1263 0000 130101FF 		addi	sp,sp,-16
 1264              		.cfi_def_cfa_offset 16
 1265 0004 23341100 		sd	ra,8(sp)
 1266 0008 23308100 		sd	s0,0(sp)
 1267              		.cfi_offset 1, -8
 1268              		.cfi_offset 8, -16
 1269 000c 13040101 		addi	s0,sp,16
 1270              		.cfi_def_cfa 8, 0
  59:test/ConsumerProducer_CPP_Sync_API_test.cpp ****     }
GAS LISTING /tmp/ccLq5UYy.s 			page 30


 1271              		.loc 3 59 9
  59:test/ConsumerProducer_CPP_Sync_API_test.cpp ****     }
 1272              		.loc 3 59 17 is_stmt 0
 1273 0010 83350502 		ld	a1,32(a0)
 1274 0014 97000000 		call	_ZN12ProducerSync8producerEPv
 1274      E7800000 
 1275              	.LVL114:
  60:test/ConsumerProducer_CPP_Sync_API_test.cpp **** };
 1276              		.loc 3 60 5
 1277 001c 83308100 		ld	ra,8(sp)
 1278              		.cfi_restore 1
 1279 0020 03340100 		ld	s0,0(sp)
 1280              		.cfi_restore 8
 1281              		.cfi_def_cfa 2, 16
 1282 0024 13010101 		addi	sp,sp,16
 1283              		.cfi_def_cfa_offset 0
 1284 0028 67800000 		jr	ra
 1285              		.cfi_endproc
 1286              	.LFE56:
 1288              		.text
 1289              		.align	2
 1290              		.globl	_ZN12ConsumerSync8consumerEPv
 1292              	_ZN12ConsumerSync8consumerEPv:
 1293              	.LFB62:
  80:test/ConsumerProducer_CPP_Sync_API_test.cpp ****     thread_data *td;
  81:test/ConsumerProducer_CPP_Sync_API_test.cpp **** 
  82:test/ConsumerProducer_CPP_Sync_API_test.cpp ****     void consumer(void *arg);
  83:test/ConsumerProducer_CPP_Sync_API_test.cpp **** 
  84:test/ConsumerProducer_CPP_Sync_API_test.cpp **** public:
  85:test/ConsumerProducer_CPP_Sync_API_test.cpp ****     ConsumerSync(thread_data *_td): Thread(), td(_td) {
  86:test/ConsumerProducer_CPP_Sync_API_test.cpp ****     }
  87:test/ConsumerProducer_CPP_Sync_API_test.cpp **** 
  88:test/ConsumerProducer_CPP_Sync_API_test.cpp ****     void run() override {
  89:test/ConsumerProducer_CPP_Sync_API_test.cpp ****         consumer(td);
  90:test/ConsumerProducer_CPP_Sync_API_test.cpp ****     }
  91:test/ConsumerProducer_CPP_Sync_API_test.cpp **** };
  92:test/ConsumerProducer_CPP_Sync_API_test.cpp **** 
  93:test/ConsumerProducer_CPP_Sync_API_test.cpp **** void ConsumerSync::consumer(void *arg) {
 1294              		.loc 3 93 40 is_stmt 1
 1295              		.cfi_startproc
 1296              	.LVL115:
 1297 0164 130101FD 		addi	sp,sp,-48
 1298              		.cfi_def_cfa_offset 48
 1299 0168 23341102 		sd	ra,40(sp)
 1300 016c 23308102 		sd	s0,32(sp)
 1301 0170 233C9100 		sd	s1,24(sp)
 1302 0174 23382101 		sd	s2,16(sp)
 1303 0178 23343101 		sd	s3,8(sp)
 1304 017c 23304101 		sd	s4,0(sp)
 1305              		.cfi_offset 1, -8
 1306              		.cfi_offset 8, -16
 1307              		.cfi_offset 9, -24
 1308              		.cfi_offset 18, -32
 1309              		.cfi_offset 19, -40
 1310              		.cfi_offset 20, -48
 1311 0180 13040103 		addi	s0,sp,48
 1312              		.cfi_def_cfa 8, 0
GAS LISTING /tmp/ccLq5UYy.s 			page 31


 1313 0184 93090500 		mv	s3,a0
 1314 0188 13890500 		mv	s2,a1
  94:test/ConsumerProducer_CPP_Sync_API_test.cpp ****     struct thread_data *data = (struct thread_data *) arg;
 1315              		.loc 3 94 5
 1316              	.LVL116:
  95:test/ConsumerProducer_CPP_Sync_API_test.cpp **** 
  96:test/ConsumerProducer_CPP_Sync_API_test.cpp ****     int i = 0;
 1317              		.loc 3 96 5
 1318              		.loc 3 96 9 is_stmt 0
 1319 018c 130A0000 		li	s4,0
 1320 0190 6F00C001 		j	.L65
 1321              	.LVL117:
 1322              	.L72:
 1323              	.LBB209:
  97:test/ConsumerProducer_CPP_Sync_API_test.cpp ****     while (!threadEnd) {
  98:test/ConsumerProducer_CPP_Sync_API_test.cpp ****         int key = data->buffer->get();
  99:test/ConsumerProducer_CPP_Sync_API_test.cpp ****         i++;
 100:test/ConsumerProducer_CPP_Sync_API_test.cpp **** 
 101:test/ConsumerProducer_CPP_Sync_API_test.cpp ****         putc(key);
 102:test/ConsumerProducer_CPP_Sync_API_test.cpp **** 
 103:test/ConsumerProducer_CPP_Sync_API_test.cpp ****         if (i % (5 * data->id) == 0) {
 104:test/ConsumerProducer_CPP_Sync_API_test.cpp ****             Thread::dispatch();
 1324              		.loc 3 104 13 is_stmt 1
 1325              	.LBB210:
 1326              	.LBB211:
  41:test/../h/syscall_cpp.hpp ****     }
 1327              		.loc 1 41 9
  41:test/../h/syscall_cpp.hpp ****     }
 1328              		.loc 1 41 24 is_stmt 0
 1329 0194 97000000 		call	_Z15thread_dispatchv@plt
 1329      E7800000 
 1330              	.LVL118:
  42:test/../h/syscall_cpp.hpp **** 
 1331              		.loc 1 42 5
 1332 019c 6F000005 		j	.L67
 1333              	.LVL119:
 1334              	.L73:
 1335              	.LBE211:
 1336              	.LBE210:
 105:test/ConsumerProducer_CPP_Sync_API_test.cpp ****         }
 106:test/ConsumerProducer_CPP_Sync_API_test.cpp **** 
 107:test/ConsumerProducer_CPP_Sync_API_test.cpp ****         if (i % 80 == 0) {
 108:test/ConsumerProducer_CPP_Sync_API_test.cpp ****             putc('\n');
 1337              		.loc 3 108 13 is_stmt 1
 1338              		.loc 3 108 17 is_stmt 0
 1339 01a0 1305A000 		li	a0,10
 1340 01a4 97000000 		call	_Z4putcc@plt
 1340      E7800000 
 1341              	.LVL120:
 1342              	.L65:
 1343              	.LBE209:
  97:test/ConsumerProducer_CPP_Sync_API_test.cpp ****         int key = data->buffer->get();
 1344              		.loc 3 97 5 is_stmt 1
  97:test/ConsumerProducer_CPP_Sync_API_test.cpp ****         int key = data->buffer->get();
 1345              		.loc 3 97 12
 1346 01ac 97070000 		lw	a5,.LANCHOR0
 1346      83A70700 
GAS LISTING /tmp/ccLq5UYy.s 			page 32


 1347 01b4 63920706 		bnez	a5,.L66
 1348              	.LBB212:
  98:test/ConsumerProducer_CPP_Sync_API_test.cpp ****         i++;
 1349              		.loc 3 98 9
  98:test/ConsumerProducer_CPP_Sync_API_test.cpp ****         i++;
 1350              		.loc 3 98 36 is_stmt 0
 1351 01b8 03358900 		ld	a0,8(s2)
 1352 01bc 97000000 		call	_ZN9BufferCPP3getEv@plt
 1352      E7800000 
 1353              	.LVL121:
  99:test/ConsumerProducer_CPP_Sync_API_test.cpp **** 
 1354              		.loc 3 99 9 is_stmt 1
  99:test/ConsumerProducer_CPP_Sync_API_test.cpp **** 
 1355              		.loc 3 99 10 is_stmt 0
 1356 01c4 9B041A00 		addiw	s1,s4,1
 1357 01c8 1B8A0400 		sext.w	s4,s1
 1358              	.LVL122:
 101:test/ConsumerProducer_CPP_Sync_API_test.cpp **** 
 1359              		.loc 3 101 9 is_stmt 1
 101:test/ConsumerProducer_CPP_Sync_API_test.cpp **** 
 1360              		.loc 3 101 13 is_stmt 0
 1361 01cc 1375F50F 		andi	a0,a0,0xff
 1362              	.LVL123:
 1363 01d0 97000000 		call	_Z4putcc@plt
 1363      E7800000 
 1364              	.LVL124:
 103:test/ConsumerProducer_CPP_Sync_API_test.cpp ****             Thread::dispatch();
 1365              		.loc 3 103 9 is_stmt 1
 103:test/ConsumerProducer_CPP_Sync_API_test.cpp ****             Thread::dispatch();
 1366              		.loc 3 103 28 is_stmt 0
 1367 01d8 03270900 		lw	a4,0(s2)
 103:test/ConsumerProducer_CPP_Sync_API_test.cpp ****             Thread::dispatch();
 1368              		.loc 3 103 20
 1369 01dc 9B172700 		slliw	a5,a4,2
 1370 01e0 BB87E700 		addw	a5,a5,a4
 103:test/ConsumerProducer_CPP_Sync_API_test.cpp ****             Thread::dispatch();
 1371              		.loc 3 103 15
 1372 01e4 BBE7F402 		remw	a5,s1,a5
 103:test/ConsumerProducer_CPP_Sync_API_test.cpp ****             Thread::dispatch();
 1373              		.loc 3 103 9
 1374 01e8 E38607FA 		beqz	a5,.L72
 1375              	.L67:
 107:test/ConsumerProducer_CPP_Sync_API_test.cpp ****             putc('\n');
 1376              		.loc 3 107 9 is_stmt 1
 107:test/ConsumerProducer_CPP_Sync_API_test.cpp ****             putc('\n');
 1377              		.loc 3 107 15 is_stmt 0
 1378 01ec 93070005 		li	a5,80
 1379 01f0 BBE4F402 		remw	s1,s1,a5
 1380              	.LVL125:
 107:test/ConsumerProducer_CPP_Sync_API_test.cpp ****             putc('\n');
 1381              		.loc 3 107 9
 1382 01f4 E39C04FA 		bnez	s1,.L65
 1383 01f8 6FF09FFA 		j	.L73
 1384              	.L74:
 1385              	.LBE212:
 1386              	.LBB213:
 109:test/ConsumerProducer_CPP_Sync_API_test.cpp ****         }
GAS LISTING /tmp/ccLq5UYy.s 			page 33


 110:test/ConsumerProducer_CPP_Sync_API_test.cpp ****     }
 111:test/ConsumerProducer_CPP_Sync_API_test.cpp **** 
 112:test/ConsumerProducer_CPP_Sync_API_test.cpp **** 
 113:test/ConsumerProducer_CPP_Sync_API_test.cpp ****     while (td->buffer->getCnt() > 0) {
 114:test/ConsumerProducer_CPP_Sync_API_test.cpp ****         int key = td->buffer->get();
 1387              		.loc 3 114 9 is_stmt 1
 1388              		.loc 3 114 19 is_stmt 0
 1389 01fc 83B70902 		ld	a5,32(s3)
 1390              		.loc 3 114 34
 1391 0200 03B58700 		ld	a0,8(a5)
 1392 0204 97000000 		call	_ZN9BufferCPP3getEv@plt
 1392      E7800000 
 1393              	.LVL126:
 115:test/ConsumerProducer_CPP_Sync_API_test.cpp ****         Console::putc(key);
 1394              		.loc 3 115 9 is_stmt 1
 1395              		.loc 3 115 22 is_stmt 0
 1396 020c 1375F50F 		andi	a0,a0,0xff
 1397              	.LVL127:
 1398 0210 97000000 		call	_ZN7Console4putcEc@plt
 1398      E7800000 
 1399              	.LVL128:
 1400              	.L66:
 1401              	.LBE213:
 113:test/ConsumerProducer_CPP_Sync_API_test.cpp ****         int key = td->buffer->get();
 1402              		.loc 3 113 5 is_stmt 1
 113:test/ConsumerProducer_CPP_Sync_API_test.cpp ****         int key = td->buffer->get();
 1403              		.loc 3 113 33
 113:test/ConsumerProducer_CPP_Sync_API_test.cpp ****         int key = td->buffer->get();
 1404              		.loc 3 113 12 is_stmt 0
 1405 0218 83B70902 		ld	a5,32(s3)
 113:test/ConsumerProducer_CPP_Sync_API_test.cpp ****         int key = td->buffer->get();
 1406              		.loc 3 113 30
 1407 021c 03B58700 		ld	a0,8(a5)
 1408 0220 97000000 		call	_ZN9BufferCPP6getCntEv@plt
 1408      E7800000 
 1409              	.LVL129:
 113:test/ConsumerProducer_CPP_Sync_API_test.cpp ****         int key = td->buffer->get();
 1410              		.loc 3 113 33
 1411 0228 E34AA0FC 		bgtz	a0,.L74
 116:test/ConsumerProducer_CPP_Sync_API_test.cpp ****     }
 117:test/ConsumerProducer_CPP_Sync_API_test.cpp **** 
 118:test/ConsumerProducer_CPP_Sync_API_test.cpp ****     data->wait->signal();
 1412              		.loc 3 118 5 is_stmt 1
 1413              		.loc 3 118 11 is_stmt 0
 1414 022c 83370901 		ld	a5,16(s2)
 1415              	.LVL130:
 1416              	.LBB214:
 1417              	.LBB215:
  87:test/../h/syscall_cpp.hpp ****             return sem_signal(myHandle);
 1418              		.loc 1 87 9 is_stmt 1
  87:test/../h/syscall_cpp.hpp ****             return sem_signal(myHandle);
 1419              		.loc 1 87 13 is_stmt 0
 1420 0230 03B58700 		ld	a0,8(a5)
  87:test/../h/syscall_cpp.hpp ****             return sem_signal(myHandle);
 1421              		.loc 1 87 9
 1422 0234 63060500 		beqz	a0,.L64
 1423              		.loc 1 88 13 is_stmt 1
GAS LISTING /tmp/ccLq5UYy.s 			page 34


 1424              		.loc 1 88 30 is_stmt 0
 1425 0238 97000000 		call	_Z10sem_signalP4_sem@plt
 1425      E7800000 
 1426              	.LVL131:
 1427              	.L64:
 1428              	.LBE215:
 1429              	.LBE214:
 119:test/ConsumerProducer_CPP_Sync_API_test.cpp **** }
 1430              		.loc 3 119 1
 1431 0240 83308102 		ld	ra,40(sp)
 1432              		.cfi_restore 1
 1433 0244 03340102 		ld	s0,32(sp)
 1434              		.cfi_restore 8
 1435              		.cfi_def_cfa 2, 48
 1436 0248 83348101 		ld	s1,24(sp)
 1437              		.cfi_restore 9
 1438 024c 03390101 		ld	s2,16(sp)
 1439              		.cfi_restore 18
 1440              	.LVL132:
 1441 0250 83398100 		ld	s3,8(sp)
 1442              		.cfi_restore 19
 1443              	.LVL133:
 1444 0254 033A0100 		ld	s4,0(sp)
 1445              		.cfi_restore 20
 1446              	.LVL134:
 1447 0258 13010103 		addi	sp,sp,48
 1448              		.cfi_def_cfa_offset 0
 1449 025c 67800000 		jr	ra
 1450              		.cfi_endproc
 1451              	.LFE62:
 1453              		.section	.text._ZN12ConsumerSync3runEv,"axG",@progbits,_ZN12ConsumerSync3runEv,comdat
 1454              		.align	2
 1455              		.weak	_ZN12ConsumerSync3runEv
 1457              	_ZN12ConsumerSync3runEv:
 1458              	.LFB61:
  88:test/ConsumerProducer_CPP_Sync_API_test.cpp ****         consumer(td);
 1459              		.loc 3 88 10 is_stmt 1
 1460              		.cfi_startproc
 1461              	.LVL135:
 1462 0000 130101FF 		addi	sp,sp,-16
 1463              		.cfi_def_cfa_offset 16
 1464 0004 23341100 		sd	ra,8(sp)
 1465 0008 23308100 		sd	s0,0(sp)
 1466              		.cfi_offset 1, -8
 1467              		.cfi_offset 8, -16
 1468 000c 13040101 		addi	s0,sp,16
 1469              		.cfi_def_cfa 8, 0
  89:test/ConsumerProducer_CPP_Sync_API_test.cpp ****     }
 1470              		.loc 3 89 9
  89:test/ConsumerProducer_CPP_Sync_API_test.cpp ****     }
 1471              		.loc 3 89 17 is_stmt 0
 1472 0010 83350502 		ld	a1,32(a0)
 1473 0014 97000000 		call	_ZN12ConsumerSync8consumerEPv
 1473      E7800000 
 1474              	.LVL136:
  90:test/ConsumerProducer_CPP_Sync_API_test.cpp **** };
 1475              		.loc 3 90 5
GAS LISTING /tmp/ccLq5UYy.s 			page 35


 1476 001c 83308100 		ld	ra,8(sp)
 1477              		.cfi_restore 1
 1478 0020 03340100 		ld	s0,0(sp)
 1479              		.cfi_restore 8
 1480              		.cfi_def_cfa 2, 16
 1481 0024 13010101 		addi	sp,sp,16
 1482              		.cfi_def_cfa_offset 0
 1483 0028 67800000 		jr	ra
 1484              		.cfi_endproc
 1485              	.LFE61:
 1487              		.section	.rodata.str1.8,"aMS",@progbits,1
 1488              		.align	3
 1489              	.LC0:
 1490 0000 556E6573 		.string	"Unesite broj proizvodjaca?\n"
 1490      69746520 
 1490      62726F6A 
 1490      2070726F 
 1490      697A766F 
 1491 001c 00000000 		.align	3
 1492              	.LC1:
 1493 0020 556E6573 		.string	"Unesite velicinu bafera?\n"
 1493      69746520 
 1493      76656C69 
 1493      63696E75 
 1493      20626166 
 1494 003a 00000000 		.align	3
 1494      0000
 1495              	.LC2:
 1496 0040 42726F6A 		.string	"Broj proizvodjaca "
 1496      2070726F 
 1496      697A766F 
 1496      646A6163 
 1496      612000
 1497 0053 00000000 		.align	3
 1497      00
 1498              	.LC3:
 1499 0058 20692076 		.string	" i velicina bafera "
 1499      656C6963 
 1499      696E6120 
 1499      62616665 
 1499      72612000 
 1500 006c 00000000 		.align	3
 1501              	.LC4:
 1502 0070 2E0A00   		.string	".\n"
 1503 0073 00000000 		.align	3
 1503      00
 1504              	.LC5:
 1505 0078 42726F6A 		.string	"Broj proizvodjaca ne sme biti manji od velicine bafera!\n"
 1505      2070726F 
 1505      697A766F 
 1505      646A6163 
 1505      61206E65 
 1506 00b1 00000000 		.align	3
 1506      000000
 1507              	.LC6:
 1508 00b8 42726F6A 		.string	"Broj proizvodjaca mora biti veci od nula!\n"
 1508      2070726F 
GAS LISTING /tmp/ccLq5UYy.s 			page 36


 1508      697A766F 
 1508      646A6163 
 1508      61206D6F 
 1509              		.text
 1510              		.align	2
 1511              		.globl	_Z29producerConsumer_CPP_Sync_APIv
 1513              	_Z29producerConsumer_CPP_Sync_APIv:
 1514              	.LFB63:
 120:test/ConsumerProducer_CPP_Sync_API_test.cpp **** 
 121:test/ConsumerProducer_CPP_Sync_API_test.cpp **** void producerConsumer_CPP_Sync_API() {
 1515              		.loc 3 121 38 is_stmt 1
 1516              		.cfi_startproc
 1517              		.cfi_personality 0x9b,DW.ref.__gxx_personality_v0
 1518              		.cfi_lsda 0x1b,.LLSDA63
 1519 0260 130101F9 		addi	sp,sp,-112
 1520              		.cfi_def_cfa_offset 112
 1521 0264 23341106 		sd	ra,104(sp)
 1522 0268 23308106 		sd	s0,96(sp)
 1523 026c 233C9104 		sd	s1,88(sp)
 1524 0270 23382105 		sd	s2,80(sp)
 1525 0274 23343105 		sd	s3,72(sp)
 1526 0278 23304105 		sd	s4,64(sp)
 1527 027c 233C5103 		sd	s5,56(sp)
 1528 0280 23386103 		sd	s6,48(sp)
 1529 0284 23347103 		sd	s7,40(sp)
 1530 0288 23308103 		sd	s8,32(sp)
 1531              		.cfi_offset 1, -8
 1532              		.cfi_offset 8, -16
 1533              		.cfi_offset 9, -24
 1534              		.cfi_offset 18, -32
 1535              		.cfi_offset 19, -40
 1536              		.cfi_offset 20, -48
 1537              		.cfi_offset 21, -56
 1538              		.cfi_offset 22, -64
 1539              		.cfi_offset 23, -72
 1540              		.cfi_offset 24, -80
 1541 028c 13040107 		addi	s0,sp,112
 1542              		.cfi_def_cfa 8, 0
 122:test/ConsumerProducer_CPP_Sync_API_test.cpp ****     char input[30];
 123:test/ConsumerProducer_CPP_Sync_API_test.cpp ****     int n, threadNum;
 124:test/ConsumerProducer_CPP_Sync_API_test.cpp **** 
 125:test/ConsumerProducer_CPP_Sync_API_test.cpp ****     printString("Unesite broj proizvodjaca?\n");
 126:test/ConsumerProducer_CPP_Sync_API_test.cpp ****     getString(input, 30);
 127:test/ConsumerProducer_CPP_Sync_API_test.cpp ****     threadNum = stringToInt(input);
 128:test/ConsumerProducer_CPP_Sync_API_test.cpp **** 
 129:test/ConsumerProducer_CPP_Sync_API_test.cpp ****     printString("Unesite velicinu bafera?\n");
 130:test/ConsumerProducer_CPP_Sync_API_test.cpp ****     getString(input, 30);
 131:test/ConsumerProducer_CPP_Sync_API_test.cpp ****     n = stringToInt(input);
 132:test/ConsumerProducer_CPP_Sync_API_test.cpp **** 
 133:test/ConsumerProducer_CPP_Sync_API_test.cpp ****     printString("Broj proizvodjaca ");
 134:test/ConsumerProducer_CPP_Sync_API_test.cpp ****     printInt(threadNum);
 135:test/ConsumerProducer_CPP_Sync_API_test.cpp ****     printString(" i velicina bafera ");
 136:test/ConsumerProducer_CPP_Sync_API_test.cpp ****     printInt(n);
 137:test/ConsumerProducer_CPP_Sync_API_test.cpp ****     printString(".\n");
 138:test/ConsumerProducer_CPP_Sync_API_test.cpp **** 
 139:test/ConsumerProducer_CPP_Sync_API_test.cpp ****     if (threadNum > n) {
 140:test/ConsumerProducer_CPP_Sync_API_test.cpp ****         printString("Broj proizvodjaca ne sme biti manji od velicine bafera!\n");
GAS LISTING /tmp/ccLq5UYy.s 			page 37


 141:test/ConsumerProducer_CPP_Sync_API_test.cpp ****         return;
 142:test/ConsumerProducer_CPP_Sync_API_test.cpp ****     } else if (threadNum < 1) {
 143:test/ConsumerProducer_CPP_Sync_API_test.cpp ****         printString("Broj proizvodjaca mora biti veci od nula!\n");
 144:test/ConsumerProducer_CPP_Sync_API_test.cpp ****         return;
 145:test/ConsumerProducer_CPP_Sync_API_test.cpp ****     }
 146:test/ConsumerProducer_CPP_Sync_API_test.cpp **** 
 147:test/ConsumerProducer_CPP_Sync_API_test.cpp ****     BufferCPP *buffer = new BufferCPP(n);
 148:test/ConsumerProducer_CPP_Sync_API_test.cpp **** 
 149:test/ConsumerProducer_CPP_Sync_API_test.cpp ****     waitForAll = new Semaphore(0);
 150:test/ConsumerProducer_CPP_Sync_API_test.cpp **** 
 151:test/ConsumerProducer_CPP_Sync_API_test.cpp ****     Thread *threads[threadNum];
 152:test/ConsumerProducer_CPP_Sync_API_test.cpp ****     Thread *consumerThread;
 153:test/ConsumerProducer_CPP_Sync_API_test.cpp **** 
 154:test/ConsumerProducer_CPP_Sync_API_test.cpp ****     struct thread_data data[threadNum + 1];
 155:test/ConsumerProducer_CPP_Sync_API_test.cpp **** 
 156:test/ConsumerProducer_CPP_Sync_API_test.cpp ****     data[threadNum].id = threadNum;
 157:test/ConsumerProducer_CPP_Sync_API_test.cpp ****     data[threadNum].buffer = buffer;
 158:test/ConsumerProducer_CPP_Sync_API_test.cpp ****     data[threadNum].wait = waitForAll;
 159:test/ConsumerProducer_CPP_Sync_API_test.cpp ****     consumerThread = new ConsumerSync(data + threadNum);
 160:test/ConsumerProducer_CPP_Sync_API_test.cpp ****     consumerThread->start();
 161:test/ConsumerProducer_CPP_Sync_API_test.cpp **** 
 162:test/ConsumerProducer_CPP_Sync_API_test.cpp ****     for (int i = 0; i < threadNum; i++) {
 163:test/ConsumerProducer_CPP_Sync_API_test.cpp ****         data[i].id = i;
 164:test/ConsumerProducer_CPP_Sync_API_test.cpp ****         data[i].buffer = buffer;
 165:test/ConsumerProducer_CPP_Sync_API_test.cpp ****         data[i].wait = waitForAll;
 166:test/ConsumerProducer_CPP_Sync_API_test.cpp **** 
 167:test/ConsumerProducer_CPP_Sync_API_test.cpp ****         if (i > 0) {
 168:test/ConsumerProducer_CPP_Sync_API_test.cpp ****             threads[i] = new ProducerSync(data + i);
 169:test/ConsumerProducer_CPP_Sync_API_test.cpp ****         } else {
 170:test/ConsumerProducer_CPP_Sync_API_test.cpp ****             threads[i] = new ProducerKeyboard(data + i);
 171:test/ConsumerProducer_CPP_Sync_API_test.cpp ****         }
 172:test/ConsumerProducer_CPP_Sync_API_test.cpp **** 
 173:test/ConsumerProducer_CPP_Sync_API_test.cpp ****         threads[i]->start();
 174:test/ConsumerProducer_CPP_Sync_API_test.cpp ****     }
 175:test/ConsumerProducer_CPP_Sync_API_test.cpp **** 
 176:test/ConsumerProducer_CPP_Sync_API_test.cpp ****     Thread::dispatch();
 177:test/ConsumerProducer_CPP_Sync_API_test.cpp **** 
 178:test/ConsumerProducer_CPP_Sync_API_test.cpp ****     for (int i = 0; i <= threadNum; i++) {
 179:test/ConsumerProducer_CPP_Sync_API_test.cpp ****         waitForAll->wait();
 180:test/ConsumerProducer_CPP_Sync_API_test.cpp ****     }
 181:test/ConsumerProducer_CPP_Sync_API_test.cpp **** 
 182:test/ConsumerProducer_CPP_Sync_API_test.cpp ****     for (int i = 0; i < threadNum; i++) {
 183:test/ConsumerProducer_CPP_Sync_API_test.cpp ****         delete threads[i];
 184:test/ConsumerProducer_CPP_Sync_API_test.cpp ****     }
 185:test/ConsumerProducer_CPP_Sync_API_test.cpp ****     delete consumerThread;
 186:test/ConsumerProducer_CPP_Sync_API_test.cpp ****     delete waitForAll;
 187:test/ConsumerProducer_CPP_Sync_API_test.cpp ****     delete buffer;
 1543              		.loc 3 187 18 is_stmt 0
 1544 0290 930B0100 		mv	s7,sp
 122:test/ConsumerProducer_CPP_Sync_API_test.cpp ****     char input[30];
 1545              		.loc 3 122 5 is_stmt 1
 123:test/ConsumerProducer_CPP_Sync_API_test.cpp **** 
 1546              		.loc 3 123 5
 125:test/ConsumerProducer_CPP_Sync_API_test.cpp ****     getString(input, 30);
 1547              		.loc 3 125 5
 125:test/ConsumerProducer_CPP_Sync_API_test.cpp ****     getString(input, 30);
 1548              		.loc 3 125 16 is_stmt 0
GAS LISTING /tmp/ccLq5UYy.s 			page 38


 1549 0294 17050000 		lla	a0,.LC0
 1549      13050500 
 1550              	.LEHB5:
 1551 029c 97000000 		call	_Z11printStringPKc@plt
 1551      E7800000 
 1552              	.LVL137:
 126:test/ConsumerProducer_CPP_Sync_API_test.cpp ****     threadNum = stringToInt(input);
 1553              		.loc 3 126 5 is_stmt 1
 126:test/ConsumerProducer_CPP_Sync_API_test.cpp ****     threadNum = stringToInt(input);
 1554              		.loc 3 126 14 is_stmt 0
 1555 02a4 9305E001 		li	a1,30
 1556 02a8 930404F9 		addi	s1,s0,-112
 1557 02ac 13850400 		mv	a0,s1
 1558 02b0 97000000 		call	_Z9getStringPci@plt
 1558      E7800000 
 1559              	.LVL138:
 127:test/ConsumerProducer_CPP_Sync_API_test.cpp **** 
 1560              		.loc 3 127 5 is_stmt 1
 127:test/ConsumerProducer_CPP_Sync_API_test.cpp **** 
 1561              		.loc 3 127 28 is_stmt 0
 1562 02b8 13850400 		mv	a0,s1
 1563 02bc 97000000 		call	_Z11stringToIntPKc@plt
 1563      E7800000 
 1564              	.LVL139:
 1565 02c4 13090500 		mv	s2,a0
 1566              	.LVL140:
 129:test/ConsumerProducer_CPP_Sync_API_test.cpp ****     getString(input, 30);
 1567              		.loc 3 129 5 is_stmt 1
 129:test/ConsumerProducer_CPP_Sync_API_test.cpp ****     getString(input, 30);
 1568              		.loc 3 129 16 is_stmt 0
 1569 02c8 17050000 		lla	a0,.LC1
 1569      13050500 
 1570 02d0 97000000 		call	_Z11printStringPKc@plt
 1570      E7800000 
 1571              	.LVL141:
 130:test/ConsumerProducer_CPP_Sync_API_test.cpp ****     n = stringToInt(input);
 1572              		.loc 3 130 5 is_stmt 1
 130:test/ConsumerProducer_CPP_Sync_API_test.cpp ****     n = stringToInt(input);
 1573              		.loc 3 130 14 is_stmt 0
 1574 02d8 9305E001 		li	a1,30
 1575 02dc 13850400 		mv	a0,s1
 1576 02e0 97000000 		call	_Z9getStringPci@plt
 1576      E7800000 
 1577              	.LVL142:
 131:test/ConsumerProducer_CPP_Sync_API_test.cpp **** 
 1578              		.loc 3 131 5 is_stmt 1
 131:test/ConsumerProducer_CPP_Sync_API_test.cpp **** 
 1579              		.loc 3 131 20 is_stmt 0
 1580 02e8 13850400 		mv	a0,s1
 1581 02ec 97000000 		call	_Z11stringToIntPKc@plt
 1581      E7800000 
 1582              	.LVL143:
 1583 02f4 93040500 		mv	s1,a0
 1584              	.LVL144:
 133:test/ConsumerProducer_CPP_Sync_API_test.cpp ****     printInt(threadNum);
 1585              		.loc 3 133 5 is_stmt 1
 133:test/ConsumerProducer_CPP_Sync_API_test.cpp ****     printInt(threadNum);
GAS LISTING /tmp/ccLq5UYy.s 			page 39


 1586              		.loc 3 133 16 is_stmt 0
 1587 02f8 17050000 		lla	a0,.LC2
 1587      13050500 
 1588 0300 97000000 		call	_Z11printStringPKc@plt
 1588      E7800000 
 1589              	.LVL145:
 134:test/ConsumerProducer_CPP_Sync_API_test.cpp ****     printString(" i velicina bafera ");
 1590              		.loc 3 134 5 is_stmt 1
 134:test/ConsumerProducer_CPP_Sync_API_test.cpp ****     printString(" i velicina bafera ");
 1591              		.loc 3 134 13 is_stmt 0
 1592 0308 13060000 		li	a2,0
 1593 030c 9305A000 		li	a1,10
 1594 0310 13050900 		mv	a0,s2
 1595 0314 97000000 		call	_Z8printIntiii@plt
 1595      E7800000 
 1596              	.LVL146:
 135:test/ConsumerProducer_CPP_Sync_API_test.cpp ****     printInt(n);
 1597              		.loc 3 135 5 is_stmt 1
 135:test/ConsumerProducer_CPP_Sync_API_test.cpp ****     printInt(n);
 1598              		.loc 3 135 16 is_stmt 0
 1599 031c 17050000 		lla	a0,.LC3
 1599      13050500 
 1600 0324 97000000 		call	_Z11printStringPKc@plt
 1600      E7800000 
 1601              	.LVL147:
 136:test/ConsumerProducer_CPP_Sync_API_test.cpp ****     printString(".\n");
 1602              		.loc 3 136 5 is_stmt 1
 136:test/ConsumerProducer_CPP_Sync_API_test.cpp ****     printString(".\n");
 1603              		.loc 3 136 13 is_stmt 0
 1604 032c 13060000 		li	a2,0
 1605 0330 9305A000 		li	a1,10
 1606 0334 13850400 		mv	a0,s1
 1607 0338 97000000 		call	_Z8printIntiii@plt
 1607      E7800000 
 1608              	.LVL148:
 137:test/ConsumerProducer_CPP_Sync_API_test.cpp **** 
 1609              		.loc 3 137 5 is_stmt 1
 137:test/ConsumerProducer_CPP_Sync_API_test.cpp **** 
 1610              		.loc 3 137 16 is_stmt 0
 1611 0340 17050000 		lla	a0,.LC4
 1611      13050500 
 1612 0348 97000000 		call	_Z11printStringPKc@plt
 1612      E7800000 
 1613              	.LVL149:
 139:test/ConsumerProducer_CPP_Sync_API_test.cpp ****         printString("Broj proizvodjaca ne sme biti manji od velicine bafera!\n");
 1614              		.loc 3 139 5 is_stmt 1
 1615 0350 63C42403 		bgt	s2,s1,.L100
 142:test/ConsumerProducer_CPP_Sync_API_test.cpp ****         printString("Broj proizvodjaca mora biti veci od nula!\n");
 1616              		.loc 3 142 12
 1617 0354 635C2003 		blez	s2,.L101
 147:test/ConsumerProducer_CPP_Sync_API_test.cpp **** 
 1618              		.loc 3 147 5
 147:test/ConsumerProducer_CPP_Sync_API_test.cpp **** 
 1619              		.loc 3 147 40 is_stmt 0
 1620 0358 13058003 		li	a0,56
 1621 035c 97000000 		call	_Znwm@plt
 1621      E7800000 
GAS LISTING /tmp/ccLq5UYy.s 			page 40


 1622              	.LVL150:
 1623              	.LEHE5:
 1624 0364 930A0500 		mv	s5,a0
 1625 0368 93850400 		mv	a1,s1
 1626              	.LEHB6:
 1627 036c 97000000 		call	_ZN9BufferCPPC1Ei@plt
 1627      E7800000 
 1628              	.LVL151:
 1629              	.LEHE6:
 1630 0374 6F000003 		j	.L102
 1631              	.L100:
 140:test/ConsumerProducer_CPP_Sync_API_test.cpp ****         return;
 1632              		.loc 3 140 9 is_stmt 1
 140:test/ConsumerProducer_CPP_Sync_API_test.cpp ****         return;
 1633              		.loc 3 140 20 is_stmt 0
 1634 0378 17050000 		lla	a0,.LC5
 1634      13050500 
 1635              	.LEHB7:
 1636 0380 97000000 		call	_Z11printStringPKc@plt
 1636      E7800000 
 1637              	.LVL152:
 141:test/ConsumerProducer_CPP_Sync_API_test.cpp ****     } else if (threadNum < 1) {
 1638              		.loc 3 141 9 is_stmt 1
 1639 0388 6F004001 		j	.L79
 1640              	.L101:
 143:test/ConsumerProducer_CPP_Sync_API_test.cpp ****         return;
 1641              		.loc 3 143 9
 143:test/ConsumerProducer_CPP_Sync_API_test.cpp ****         return;
 1642              		.loc 3 143 20 is_stmt 0
 1643 038c 17050000 		lla	a0,.LC6
 1643      13050500 
 1644 0394 97000000 		call	_Z11printStringPKc@plt
 1644      E7800000 
 1645              	.LVL153:
 144:test/ConsumerProducer_CPP_Sync_API_test.cpp ****     }
 1646              		.loc 3 144 9 is_stmt 1
 1647              	.L79:
 1648 039c 13810B00 		mv	sp,s7
 1649 03a0 6F000027 		j	.L77
 1650              	.L102:
 1651              	.LVL154:
 149:test/ConsumerProducer_CPP_Sync_API_test.cpp **** 
 1652              		.loc 3 149 5 discriminator 3
 149:test/ConsumerProducer_CPP_Sync_API_test.cpp **** 
 1653              		.loc 3 149 33 is_stmt 0 discriminator 3
 1654 03a4 13050001 		li	a0,16
 1655 03a8 97000000 		call	_Znwm@plt
 1655      E7800000 
 1656              	.LVL155:
 1657              	.LEHE7:
 1658 03b0 93040500 		mv	s1,a0
 1659              	.LVL156:
 1660              	.LBB216:
 1661              	.LBB217:
 1662              	.LBB218:
  69:test/../h/syscall_cpp.hpp ****         sem_open(&myHandle, init);
 1663              		.loc 1 69 34 discriminator 3
GAS LISTING /tmp/ccLq5UYy.s 			page 41


 1664 03b4 97070000 		lla	a5,_ZTV9Semaphore+16
 1664      93870700 
 1665 03bc 2330F500 		sd	a5,0(a0)
  70:test/../h/syscall_cpp.hpp ****     }
 1666              		.loc 1 70 9 is_stmt 1 discriminator 3
  70:test/../h/syscall_cpp.hpp ****     }
 1667              		.loc 1 70 17 is_stmt 0 discriminator 3
 1668 03c0 93050000 		li	a1,0
 1669 03c4 13058500 		addi	a0,a0,8
 1670              	.LEHB8:
 1671 03c8 97000000 		call	_Z8sem_openPP4_semj@plt
 1671      E7800000 
 1672              	.LVL157:
 1673              	.LEHE8:
 1674              	.LBE218:
 1675              	.LBE217:
 1676              	.LBE216:
 149:test/ConsumerProducer_CPP_Sync_API_test.cpp **** 
 1677              		.loc 3 149 16 discriminator 3
 1678 03d0 97070000 		sd	s1,.LANCHOR0+8,a5
 1678      23B09700 
 151:test/ConsumerProducer_CPP_Sync_API_test.cpp ****     Thread *consumerThread;
 1679              		.loc 3 151 5 is_stmt 1 discriminator 3
 1680              	.LVL158:
 151:test/ConsumerProducer_CPP_Sync_API_test.cpp ****     Thread *consumerThread;
 1681              		.loc 3 151 13 is_stmt 0 discriminator 3
 1682 03d8 93173900 		slli	a5,s2,3
 1683 03dc 9387F700 		addi	a5,a5,15
 1684 03e0 93F707FF 		andi	a5,a5,-16
 1685 03e4 3301F140 		sub	sp,sp,a5
 1686 03e8 93090100 		mv	s3,sp
 1687              	.LVL159:
 152:test/ConsumerProducer_CPP_Sync_API_test.cpp **** 
 1688              		.loc 3 152 5 is_stmt 1 discriminator 3
 154:test/ConsumerProducer_CPP_Sync_API_test.cpp **** 
 1689              		.loc 3 154 5 discriminator 3
 154:test/ConsumerProducer_CPP_Sync_API_test.cpp **** 
 1690              		.loc 3 154 39 is_stmt 0 discriminator 3
 1691 03ec 1B071900 		addiw	a4,s2,1
 1692              	.LVL160:
 154:test/ConsumerProducer_CPP_Sync_API_test.cpp **** 
 1693              		.loc 3 154 24 discriminator 3
 1694 03f0 93171700 		slli	a5,a4,1
 1695 03f4 B387E700 		add	a5,a5,a4
 1696 03f8 93973700 		slli	a5,a5,3
 1697 03fc 9387F700 		addi	a5,a5,15
 1698 0400 93F707FF 		andi	a5,a5,-16
 1699 0404 3301F140 		sub	sp,sp,a5
 1700              	.LVL161:
 1701 0408 130A0100 		mv	s4,sp
 1702              	.LVL162:
 156:test/ConsumerProducer_CPP_Sync_API_test.cpp ****     data[threadNum].buffer = buffer;
 1703              		.loc 3 156 5 is_stmt 1 discriminator 3
 156:test/ConsumerProducer_CPP_Sync_API_test.cpp ****     data[threadNum].buffer = buffer;
 1704              		.loc 3 156 24 is_stmt 0 discriminator 3
 1705 040c 131C1900 		slli	s8,s2,1
 1706 0410 B3072C01 		add	a5,s8,s2
GAS LISTING /tmp/ccLq5UYy.s 			page 42


 1707 0414 93973700 		slli	a5,a5,3
 1708 0418 B307FA00 		add	a5,s4,a5
 1709 041c 23A02701 		sw	s2,0(a5)
 157:test/ConsumerProducer_CPP_Sync_API_test.cpp ****     data[threadNum].wait = waitForAll;
 1710              		.loc 3 157 5 is_stmt 1 discriminator 3
 157:test/ConsumerProducer_CPP_Sync_API_test.cpp ****     data[threadNum].wait = waitForAll;
 1711              		.loc 3 157 28 is_stmt 0 discriminator 3
 1712 0420 23B45701 		sd	s5,8(a5)
 158:test/ConsumerProducer_CPP_Sync_API_test.cpp ****     consumerThread = new ConsumerSync(data + threadNum);
 1713              		.loc 3 158 5 is_stmt 1 discriminator 3
 158:test/ConsumerProducer_CPP_Sync_API_test.cpp ****     consumerThread = new ConsumerSync(data + threadNum);
 1714              		.loc 3 158 26 is_stmt 0 discriminator 3
 1715 0424 23B89700 		sd	s1,16(a5)
 159:test/ConsumerProducer_CPP_Sync_API_test.cpp ****     consumerThread->start();
 1716              		.loc 3 159 5 is_stmt 1 discriminator 3
 159:test/ConsumerProducer_CPP_Sync_API_test.cpp ****     consumerThread->start();
 1717              		.loc 3 159 55 is_stmt 0 discriminator 3
 1718 0428 13058002 		li	a0,40
 1719              	.LEHB9:
 1720 042c 97000000 		call	_Znwm@plt
 1720      E7800000 
 1721              	.LVL163:
 1722 0434 130B0500 		mv	s6,a0
 159:test/ConsumerProducer_CPP_Sync_API_test.cpp ****     consumerThread->start();
 1723              		.loc 3 159 44 discriminator 3
 1724 0438 330C2C01 		add	s8,s8,s2
 1725 043c 131C3C00 		slli	s8,s8,3
 159:test/ConsumerProducer_CPP_Sync_API_test.cpp ****     consumerThread->start();
 1726              		.loc 3 159 55 discriminator 3
 1727 0440 330C8A01 		add	s8,s4,s8
 1728              	.LVL164:
 1729              	.LBB219:
 1730              	.LBB220:
 1731              	.LBB221:
 1732              	.LBB222:
  48:test/../h/syscall_cpp.hpp ****         this->arg = this;
 1733              		.loc 1 48 9 is_stmt 1 discriminator 3
  48:test/../h/syscall_cpp.hpp ****         this->arg = this;
 1734              		.loc 1 48 20 is_stmt 0 discriminator 3
 1735 0444 97050000 		lla	a1,_ZN6Thread14thread_wrapperEPv
 1735      93850500 
 1736 044c 2338B500 		sd	a1,16(a0)
  49:test/../h/syscall_cpp.hpp ****     }
 1737              		.loc 1 49 9 is_stmt 1 discriminator 3
  49:test/../h/syscall_cpp.hpp ****     }
 1738              		.loc 1 49 19 is_stmt 0 discriminator 3
 1739 0450 233CA500 		sd	a0,24(a0)
 1740              	.LVL165:
 1741              	.LBE222:
 1742              	.LBE221:
  85:test/ConsumerProducer_CPP_Sync_API_test.cpp ****     }
 1743              		.loc 3 85 53 discriminator 3
 1744 0454 97070000 		lla	a5,_ZTV12ConsumerSync+16
 1744      93870700 
 1745 045c 2330F500 		sd	a5,0(a0)
 1746 0460 23308503 		sd	s8,32(a0)
 1747              	.LVL166:
GAS LISTING /tmp/ccLq5UYy.s 			page 43


 1748              	.LBE220:
 1749              	.LBE219:
 160:test/ConsumerProducer_CPP_Sync_API_test.cpp **** 
 1750              		.loc 3 160 5 is_stmt 1 discriminator 3
 1751              	.LBB223:
 1752              	.LBB224:
  34:test/../h/syscall_cpp.hpp ****         return 0;
 1753              		.loc 1 34 9 discriminator 3
  34:test/../h/syscall_cpp.hpp ****         return 0;
 1754              		.loc 1 34 22 is_stmt 0 discriminator 3
 1755 0464 13060500 		mv	a2,a0
 1756 0468 13058500 		addi	a0,a0,8
 1757              	.LVL167:
 1758 046c 97000000 		call	_Z13thread_createPP3PCBPFvPvES2_@plt
 1758      E7800000 
 1759              	.LVL168:
 1760              	.LBE224:
 1761              	.LBE223:
 1762              	.LBB225:
 162:test/ConsumerProducer_CPP_Sync_API_test.cpp ****         data[i].id = i;
 1763              		.loc 3 162 14 discriminator 3
 1764 0474 93040000 		li	s1,0
 1765 0478 6F000007 		j	.L84
 1766              	.LVL169:
 1767              	.L103:
 168:test/ConsumerProducer_CPP_Sync_API_test.cpp ****         } else {
 1768              		.loc 3 168 13 is_stmt 1
 168:test/ConsumerProducer_CPP_Sync_API_test.cpp ****         } else {
 1769              		.loc 3 168 51 is_stmt 0
 1770 047c 13058002 		li	a0,40
 1771 0480 97000000 		call	_Znwm@plt
 1771      E7800000 
 1772              	.LVL170:
 168:test/ConsumerProducer_CPP_Sync_API_test.cpp ****         } else {
 1773              		.loc 3 168 48
 1774 0488 93971400 		slli	a5,s1,1
 1775 048c B3879700 		add	a5,a5,s1
 1776 0490 93973700 		slli	a5,a5,3
 168:test/ConsumerProducer_CPP_Sync_API_test.cpp ****         } else {
 1777              		.loc 3 168 51
 1778 0494 B307FA00 		add	a5,s4,a5
 1779              	.LVL171:
 1780              	.LBB226:
 1781              	.LBB227:
 1782              	.LBB228:
 1783              	.LBB229:
  48:test/../h/syscall_cpp.hpp ****         this->arg = this;
 1784              		.loc 1 48 9 is_stmt 1
  48:test/../h/syscall_cpp.hpp ****         this->arg = this;
 1785              		.loc 1 48 20 is_stmt 0
 1786 0498 17070000 		lla	a4,_ZN6Thread14thread_wrapperEPv
 1786      13070700 
 1787 04a0 2338E500 		sd	a4,16(a0)
  49:test/../h/syscall_cpp.hpp ****     }
 1788              		.loc 1 49 9 is_stmt 1
  49:test/../h/syscall_cpp.hpp ****     }
 1789              		.loc 1 49 19 is_stmt 0
GAS LISTING /tmp/ccLq5UYy.s 			page 44


 1790 04a4 233CA500 		sd	a0,24(a0)
 1791              	.LVL172:
 1792              	.LBE229:
 1793              	.LBE228:
  55:test/ConsumerProducer_CPP_Sync_API_test.cpp ****     }
 1794              		.loc 3 55 53
 1795 04a8 17070000 		lla	a4,_ZTV12ProducerSync+16
 1795      13070700 
 1796 04b0 2330E500 		sd	a4,0(a0)
 1797 04b4 2330F502 		sd	a5,32(a0)
 1798              	.LVL173:
 1799              	.LBE227:
 1800              	.LBE226:
 168:test/ConsumerProducer_CPP_Sync_API_test.cpp ****         } else {
 1801              		.loc 3 168 24
 1802 04b8 93973400 		slli	a5,s1,3
 1803 04bc B387F900 		add	a5,s3,a5
 1804 04c0 23B0A700 		sd	a0,0(a5)
 1805              	.L83:
 173:test/ConsumerProducer_CPP_Sync_API_test.cpp ****     }
 1806              		.loc 3 173 9 is_stmt 1
 173:test/ConsumerProducer_CPP_Sync_API_test.cpp ****     }
 1807              		.loc 3 173 18 is_stmt 0
 1808 04c4 93973400 		slli	a5,s1,3
 1809 04c8 B387F900 		add	a5,s3,a5
 1810 04cc 03B50700 		ld	a0,0(a5)
 1811              	.LVL174:
 1812              	.LBB230:
 1813              	.LBB231:
  34:test/../h/syscall_cpp.hpp ****         return 0;
 1814              		.loc 1 34 9 is_stmt 1
  34:test/../h/syscall_cpp.hpp ****         return 0;
 1815              		.loc 1 34 22 is_stmt 0
 1816 04d0 03368501 		ld	a2,24(a0)
 1817 04d4 83350501 		ld	a1,16(a0)
 1818 04d8 13058500 		addi	a0,a0,8
 1819              	.LVL175:
 1820 04dc 97000000 		call	_Z13thread_createPP3PCBPFvPvES2_@plt
 1820      E7800000 
 1821              	.LVL176:
  35:test/../h/syscall_cpp.hpp ****     }
 1822              		.loc 1 35 9 is_stmt 1
 1823              	.LBE231:
 1824              	.LBE230:
 162:test/ConsumerProducer_CPP_Sync_API_test.cpp ****         data[i].id = i;
 1825              		.loc 3 162 5
 1826 04e4 9B841400 		addiw	s1,s1,1
 1827              	.LVL177:
 1828              	.L84:
 162:test/ConsumerProducer_CPP_Sync_API_test.cpp ****         data[i].id = i;
 1829              		.loc 3 162 23 discriminator 1
 1830 04e8 63DC2407 		bge	s1,s2,.L81
 163:test/ConsumerProducer_CPP_Sync_API_test.cpp ****         data[i].buffer = buffer;
 1831              		.loc 3 163 9
 163:test/ConsumerProducer_CPP_Sync_API_test.cpp ****         data[i].buffer = buffer;
 1832              		.loc 3 163 20 is_stmt 0
 1833 04ec 93971400 		slli	a5,s1,1
GAS LISTING /tmp/ccLq5UYy.s 			page 45


 1834 04f0 B3879700 		add	a5,a5,s1
 1835 04f4 93973700 		slli	a5,a5,3
 1836 04f8 B307FA00 		add	a5,s4,a5
 1837 04fc 23A09700 		sw	s1,0(a5)
 164:test/ConsumerProducer_CPP_Sync_API_test.cpp ****         data[i].wait = waitForAll;
 1838              		.loc 3 164 9 is_stmt 1
 164:test/ConsumerProducer_CPP_Sync_API_test.cpp ****         data[i].wait = waitForAll;
 1839              		.loc 3 164 24 is_stmt 0
 1840 0500 23B45701 		sd	s5,8(a5)
 165:test/ConsumerProducer_CPP_Sync_API_test.cpp **** 
 1841              		.loc 3 165 9 is_stmt 1
 165:test/ConsumerProducer_CPP_Sync_API_test.cpp **** 
 1842              		.loc 3 165 22 is_stmt 0
 1843 0504 17070000 		ld	a4,.LANCHOR0+8
 1843      03370700 
 1844 050c 23B8E700 		sd	a4,16(a5)
 167:test/ConsumerProducer_CPP_Sync_API_test.cpp ****             threads[i] = new ProducerSync(data + i);
 1845              		.loc 3 167 9 is_stmt 1
 1846 0510 E34690F6 		bgtz	s1,.L103
 170:test/ConsumerProducer_CPP_Sync_API_test.cpp ****         }
 1847              		.loc 3 170 13
 170:test/ConsumerProducer_CPP_Sync_API_test.cpp ****         }
 1848              		.loc 3 170 55 is_stmt 0
 1849 0514 13058002 		li	a0,40
 1850 0518 97000000 		call	_Znwm@plt
 1850      E7800000 
 1851              	.LVL178:
 170:test/ConsumerProducer_CPP_Sync_API_test.cpp ****         }
 1852              		.loc 3 170 52
 1853 0520 93971400 		slli	a5,s1,1
 1854 0524 B3879700 		add	a5,a5,s1
 1855 0528 93973700 		slli	a5,a5,3
 170:test/ConsumerProducer_CPP_Sync_API_test.cpp ****         }
 1856              		.loc 3 170 55
 1857 052c B307FA00 		add	a5,s4,a5
 1858              	.LVL179:
 1859              	.LBB232:
 1860              	.LBB233:
 1861              	.LBB234:
 1862              	.LBB235:
  48:test/../h/syscall_cpp.hpp ****         this->arg = this;
 1863              		.loc 1 48 9 is_stmt 1
  48:test/../h/syscall_cpp.hpp ****         this->arg = this;
 1864              		.loc 1 48 20 is_stmt 0
 1865 0530 17070000 		lla	a4,_ZN6Thread14thread_wrapperEPv
 1865      13070700 
 1866 0538 2338E500 		sd	a4,16(a0)
  49:test/../h/syscall_cpp.hpp ****     }
 1867              		.loc 1 49 9 is_stmt 1
  49:test/../h/syscall_cpp.hpp ****     }
 1868              		.loc 1 49 19 is_stmt 0
 1869 053c 233CA500 		sd	a0,24(a0)
 1870              	.LVL180:
 1871              	.LBE235:
 1872              	.LBE234:
  21:test/ConsumerProducer_CPP_Sync_API_test.cpp ****     }
 1873              		.loc 3 21 57
GAS LISTING /tmp/ccLq5UYy.s 			page 46


 1874 0540 17070000 		lla	a4,_ZTV16ProducerKeyboard+16
 1874      13070700 
 1875 0548 2330E500 		sd	a4,0(a0)
 1876 054c 2330F502 		sd	a5,32(a0)
 1877              	.LVL181:
 1878              	.LBE233:
 1879              	.LBE232:
 170:test/ConsumerProducer_CPP_Sync_API_test.cpp ****         }
 1880              		.loc 3 170 24
 1881 0550 93973400 		slli	a5,s1,3
 1882 0554 B387F900 		add	a5,s3,a5
 1883 0558 23B0A700 		sd	a0,0(a5)
 1884 055c 6FF09FF6 		j	.L83
 1885              	.L81:
 1886              	.LBE225:
 176:test/ConsumerProducer_CPP_Sync_API_test.cpp **** 
 1887              		.loc 3 176 5 is_stmt 1
 1888              	.LBB236:
 1889              	.LBB237:
  41:test/../h/syscall_cpp.hpp ****     }
 1890              		.loc 1 41 9
  41:test/../h/syscall_cpp.hpp ****     }
 1891              		.loc 1 41 24 is_stmt 0
 1892 0560 97000000 		call	_Z15thread_dispatchv@plt
 1892      E7800000 
 1893              	.LVL182:
 1894              	.LBE237:
 1895              	.LBE236:
 1896              	.LBB239:
 178:test/ConsumerProducer_CPP_Sync_API_test.cpp ****         waitForAll->wait();
 1897              		.loc 3 178 14
 1898 0568 93040000 		li	s1,0
 1899              	.LVL183:
 1900              	.LBE239:
 1901              	.LBB242:
 1902              	.LBB238:
  42:test/../h/syscall_cpp.hpp **** 
 1903              		.loc 1 42 5
 1904 056c 6F008000 		j	.L87
 1905              	.LVL184:
 1906              	.L86:
 1907              	.LBE238:
 1908              	.LBE242:
 1909              	.LBB243:
 178:test/ConsumerProducer_CPP_Sync_API_test.cpp ****         waitForAll->wait();
 1910              		.loc 3 178 5 is_stmt 1
 1911 0570 9B841400 		addiw	s1,s1,1
 1912              	.LVL185:
 1913              	.L87:
 178:test/ConsumerProducer_CPP_Sync_API_test.cpp ****         waitForAll->wait();
 1914              		.loc 3 178 23 discriminator 1
 1915 0574 63409902 		bgt	s1,s2,.L96
 179:test/ConsumerProducer_CPP_Sync_API_test.cpp ****     }
 1916              		.loc 3 179 9
 179:test/ConsumerProducer_CPP_Sync_API_test.cpp ****     }
 1917              		.loc 3 179 25 is_stmt 0
 1918 0578 97070000 		ld	a5,.LANCHOR0+8
GAS LISTING /tmp/ccLq5UYy.s 			page 47


 1918      83B70700 
 1919              	.LVL186:
 1920              	.LBB240:
 1921              	.LBB241:
  80:test/../h/syscall_cpp.hpp ****             return sem_wait(myHandle);
 1922              		.loc 1 80 9 is_stmt 1
  80:test/../h/syscall_cpp.hpp ****             return sem_wait(myHandle);
 1923              		.loc 1 80 13 is_stmt 0
 1924 0580 03B58700 		ld	a0,8(a5)
  80:test/../h/syscall_cpp.hpp ****             return sem_wait(myHandle);
 1925              		.loc 1 80 9
 1926 0584 E30605FE 		beqz	a0,.L86
  81:test/../h/syscall_cpp.hpp ****         }
 1927              		.loc 1 81 13 is_stmt 1
  81:test/../h/syscall_cpp.hpp ****         }
 1928              		.loc 1 81 28 is_stmt 0
 1929 0588 97000000 		call	_Z8sem_waitP4_sem@plt
 1929      E7800000 
 1930              	.LVL187:
  81:test/../h/syscall_cpp.hpp ****         }
 1931              		.loc 1 81 37
 1932 0590 6FF01FFE 		j	.L86
 1933              	.L96:
 1934              	.LBE241:
 1935              	.LBE240:
 1936              	.LBE243:
 1937              	.LBB244:
 182:test/ConsumerProducer_CPP_Sync_API_test.cpp ****         delete threads[i];
 1938              		.loc 3 182 14
 1939 0594 93040000 		li	s1,0
 1940              	.LVL188:
 1941 0598 6F008000 		j	.L85
 1942              	.LVL189:
 1943              	.L89:
 182:test/ConsumerProducer_CPP_Sync_API_test.cpp ****         delete threads[i];
 1944              		.loc 3 182 5 is_stmt 1 discriminator 2
 1945 059c 9B841400 		addiw	s1,s1,1
 1946              	.LVL190:
 1947              	.L85:
 182:test/ConsumerProducer_CPP_Sync_API_test.cpp ****         delete threads[i];
 1948              		.loc 3 182 23 discriminator 1
 1949 05a0 63D22403 		bge	s1,s2,.L88
 183:test/ConsumerProducer_CPP_Sync_API_test.cpp ****     }
 1950              		.loc 3 183 9
 183:test/ConsumerProducer_CPP_Sync_API_test.cpp ****     }
 1951              		.loc 3 183 25 is_stmt 0
 1952 05a4 93973400 		slli	a5,s1,3
 1953 05a8 B387F900 		add	a5,s3,a5
 1954 05ac 03B50700 		ld	a0,0(a5)
 183:test/ConsumerProducer_CPP_Sync_API_test.cpp ****     }
 1955              		.loc 3 183 26
 1956 05b0 E30605FE 		beqz	a0,.L89
 183:test/ConsumerProducer_CPP_Sync_API_test.cpp ****     }
 1957              		.loc 3 183 25 discriminator 1
 1958 05b4 83370500 		ld	a5,0(a0)
 1959 05b8 83B78700 		ld	a5,8(a5)
 1960 05bc E7800700 		jalr	a5
GAS LISTING /tmp/ccLq5UYy.s 			page 48


 1961              	.LVL191:
 1962 05c0 6FF0DFFD 		j	.L89
 1963              	.L88:
 1964              	.LBE244:
 185:test/ConsumerProducer_CPP_Sync_API_test.cpp ****     delete waitForAll;
 1965              		.loc 3 185 5 is_stmt 1
 185:test/ConsumerProducer_CPP_Sync_API_test.cpp ****     delete waitForAll;
 1966              		.loc 3 185 26 is_stmt 0
 1967 05c4 630A0B00 		beqz	s6,.L90
 185:test/ConsumerProducer_CPP_Sync_API_test.cpp ****     delete waitForAll;
 1968              		.loc 3 185 12 discriminator 1
 1969 05c8 83370B00 		ld	a5,0(s6)
 1970 05cc 83B78700 		ld	a5,8(a5)
 1971 05d0 13050B00 		mv	a0,s6
 1972 05d4 E7800700 		jalr	a5
 1973              	.LVL192:
 1974              	.L90:
 186:test/ConsumerProducer_CPP_Sync_API_test.cpp ****     delete buffer;
 1975              		.loc 3 186 5 is_stmt 1
 186:test/ConsumerProducer_CPP_Sync_API_test.cpp ****     delete buffer;
 1976              		.loc 3 186 12 is_stmt 0
 1977 05d8 17050000 		ld	a0,.LANCHOR0+8
 1977      03350500 
 186:test/ConsumerProducer_CPP_Sync_API_test.cpp ****     delete buffer;
 1978              		.loc 3 186 22
 1979 05e0 63080500 		beqz	a0,.L91
 186:test/ConsumerProducer_CPP_Sync_API_test.cpp ****     delete buffer;
 1980              		.loc 3 186 12 discriminator 1
 1981 05e4 83370500 		ld	a5,0(a0)
 1982 05e8 83B78700 		ld	a5,8(a5)
 1983 05ec E7800700 		jalr	a5
 1984              	.LVL193:
 1985              	.L91:
 1986              		.loc 3 187 5 is_stmt 1
 1987              		.loc 3 187 18 is_stmt 0
 1988 05f0 638E0A00 		beqz	s5,.L92
 1989              		.loc 3 187 12 discriminator 1
 1990 05f4 13850A00 		mv	a0,s5
 1991 05f8 97000000 		call	_ZN9BufferCPPD1Ev@plt
 1991      E7800000 
 1992              	.LVL194:
 1993 0600 13850A00 		mv	a0,s5
 1994 0604 97000000 		call	_ZdlPv@plt
 1994      E7800000 
 1995              	.LVL195:
 1996              	.LEHE9:
 1997              	.L92:
 1998 060c 13810B00 		mv	sp,s7
 1999              	.LVL196:
 2000              	.L77:
 188:test/ConsumerProducer_CPP_Sync_API_test.cpp **** }
 2001              		.loc 3 188 1
 2002 0610 130104F9 		addi	sp,s0,-112
 2003              		.cfi_remember_state
 2004              		.cfi_def_cfa 2, 112
 2005 0614 83308106 		ld	ra,104(sp)
 2006              		.cfi_restore 1
GAS LISTING /tmp/ccLq5UYy.s 			page 49


 2007 0618 03340106 		ld	s0,96(sp)
 2008              		.cfi_restore 8
 2009 061c 83348105 		ld	s1,88(sp)
 2010              		.cfi_restore 9
 2011 0620 03390105 		ld	s2,80(sp)
 2012              		.cfi_restore 18
 2013              	.LVL197:
 2014 0624 83398104 		ld	s3,72(sp)
 2015              		.cfi_restore 19
 2016 0628 033A0104 		ld	s4,64(sp)
 2017              		.cfi_restore 20
 2018 062c 833A8103 		ld	s5,56(sp)
 2019              		.cfi_restore 21
 2020 0630 033B0103 		ld	s6,48(sp)
 2021              		.cfi_restore 22
 2022 0634 833B8102 		ld	s7,40(sp)
 2023              		.cfi_restore 23
 2024 0638 033C0102 		ld	s8,32(sp)
 2025              		.cfi_restore 24
 2026 063c 13010107 		addi	sp,sp,112
 2027              		.cfi_def_cfa_offset 0
 2028 0640 67800000 		jr	ra
 2029              	.LVL198:
 2030              	.L97:
 2031              		.cfi_restore_state
 2032 0644 93040500 		mv	s1,a0
 2033              	.LVL199:
 147:test/ConsumerProducer_CPP_Sync_API_test.cpp **** 
 2034              		.loc 3 147 40
 2035 0648 13850A00 		mv	a0,s5
 2036 064c 97000000 		call	_ZdlPv@plt
 2036      E7800000 
 2037              	.LVL200:
 2038 0654 13850400 		mv	a0,s1
 2039              	.LEHB10:
 2040 0658 97000000 		call	_Unwind_Resume@plt
 2040      E7800000 
 2041              	.LVL201:
 2042              	.LEHE10:
 2043              	.L98:
 2044 0660 13090500 		mv	s2,a0
 2045              	.LVL202:
 149:test/ConsumerProducer_CPP_Sync_API_test.cpp **** 
 2046              		.loc 3 149 33
 2047 0664 13850400 		mv	a0,s1
 2048 0668 97000000 		call	_ZdlPv@plt
 2048      E7800000 
 2049              	.LVL203:
 2050 0670 13050900 		mv	a0,s2
 2051              	.LEHB11:
 2052 0674 97000000 		call	_Unwind_Resume@plt
 2052      E7800000 
 2053              	.LVL204:
 2054              	.LEHE11:
 2055              		.cfi_endproc
 2056              	.LFE63:
 2057              		.section	.gcc_except_table,"a",@progbits
GAS LISTING /tmp/ccLq5UYy.s 			page 50


 2058              	.LLSDA63:
 2059 0000 FF       		.byte	0xff
 2060 0001 FF       		.byte	0xff
 2061 0002 03       		.byte	0x3
 2062 0003 5B       		.byte	0x5b
 2063 0004 00000000 		.4byte	.LEHB5-.LFB63
 2064 0008 00000000 		.4byte	.LEHE5-.LEHB5
 2065 000c 00000000 		.4byte	0
 2066 0010 00       		.byte	0
 2067 0011 00000000 		.4byte	.LEHB6-.LFB63
 2068 0015 00000000 		.4byte	.LEHE6-.LEHB6
 2069 0019 00000000 		.4byte	.L97-.LFB63
 2070 001d 00       		.byte	0
 2071 001e 00000000 		.4byte	.LEHB7-.LFB63
 2072 0022 00000000 		.4byte	.LEHE7-.LEHB7
 2073 0026 00000000 		.4byte	0
 2074 002a 00       		.byte	0
 2075 002b 00000000 		.4byte	.LEHB8-.LFB63
 2076 002f 00000000 		.4byte	.LEHE8-.LEHB8
 2077 0033 00000000 		.4byte	.L98-.LFB63
 2078 0037 00       		.byte	0
 2079 0038 00000000 		.4byte	.LEHB9-.LFB63
 2080 003c 00000000 		.4byte	.LEHE9-.LEHB9
 2081 0040 00000000 		.4byte	0
 2082 0044 00       		.byte	0
 2083 0045 00000000 		.4byte	.LEHB10-.LFB63
 2084 0049 00000000 		.4byte	.LEHE10-.LEHB10
 2085 004d 00000000 		.4byte	0
 2086 0051 00       		.byte	0
 2087 0052 00000000 		.4byte	.LEHB11-.LFB63
 2088 0056 00000000 		.4byte	.LEHE11-.LEHB11
 2089 005a 00000000 		.4byte	0
 2090 005e 00       		.byte	0
 2091              		.text
 2093              		.weak	_ZTV6Thread
 2094              		.section	.data.rel.ro.local._ZTV6Thread,"awG",@progbits,_ZTV6Thread,comdat
 2095              		.align	3
 2098              	_ZTV6Thread:
 2099 0000 00000000 		.dword	0
 2099      00000000 
 2100 0008 00000000 		.dword	0
 2100      00000000 
 2101 0010 00000000 		.dword	_ZN6ThreadD1Ev
 2101      00000000 
 2102 0018 00000000 		.dword	_ZN6ThreadD0Ev
 2102      00000000 
 2103 0020 00000000 		.dword	_ZN6Thread3runEv
 2103      00000000 
 2104              		.weak	_ZTV9Semaphore
 2105              		.section	.data.rel.ro.local._ZTV9Semaphore,"awG",@progbits,_ZTV9Semaphore,comdat
 2106              		.align	3
 2109              	_ZTV9Semaphore:
 2110 0000 00000000 		.dword	0
 2110      00000000 
 2111 0008 00000000 		.dword	0
 2111      00000000 
 2112 0010 00000000 		.dword	_ZN9SemaphoreD1Ev
GAS LISTING /tmp/ccLq5UYy.s 			page 51


 2112      00000000 
 2113 0018 00000000 		.dword	_ZN9SemaphoreD0Ev
 2113      00000000 
 2114              		.weak	_ZTV16ProducerKeyboard
 2115              		.section	.data.rel.ro.local._ZTV16ProducerKeyboard,"awG",@progbits,_ZTV16ProducerKeyboard,comdat
 2116              		.align	3
 2119              	_ZTV16ProducerKeyboard:
 2120 0000 00000000 		.dword	0
 2120      00000000 
 2121 0008 00000000 		.dword	0
 2121      00000000 
 2122 0010 00000000 		.dword	_ZN16ProducerKeyboardD1Ev
 2122      00000000 
 2123 0018 00000000 		.dword	_ZN16ProducerKeyboardD0Ev
 2123      00000000 
 2124 0020 00000000 		.dword	_ZN16ProducerKeyboard3runEv
 2124      00000000 
 2125              		.weak	_ZTV12ProducerSync
 2126              		.section	.data.rel.ro.local._ZTV12ProducerSync,"awG",@progbits,_ZTV12ProducerSync,comdat
 2127              		.align	3
 2130              	_ZTV12ProducerSync:
 2131 0000 00000000 		.dword	0
 2131      00000000 
 2132 0008 00000000 		.dword	0
 2132      00000000 
 2133 0010 00000000 		.dword	_ZN12ProducerSyncD1Ev
 2133      00000000 
 2134 0018 00000000 		.dword	_ZN12ProducerSyncD0Ev
 2134      00000000 
 2135 0020 00000000 		.dword	_ZN12ProducerSync3runEv
 2135      00000000 
 2136              		.weak	_ZTV12ConsumerSync
 2137              		.section	.data.rel.ro.local._ZTV12ConsumerSync,"awG",@progbits,_ZTV12ConsumerSync,comdat
 2138              		.align	3
 2141              	_ZTV12ConsumerSync:
 2142 0000 00000000 		.dword	0
 2142      00000000 
 2143 0008 00000000 		.dword	0
 2143      00000000 
 2144 0010 00000000 		.dword	_ZN12ConsumerSyncD1Ev
 2144      00000000 
 2145 0018 00000000 		.dword	_ZN12ConsumerSyncD0Ev
 2145      00000000 
 2146 0020 00000000 		.dword	_ZN12ConsumerSync3runEv
 2146      00000000 
 2147              		.bss
 2148              		.align	3
 2149              		.set	.LANCHOR0,. + 0
 2152              	_ZL9threadEnd:
 2153 0000 00000000 		.zero	4
 2154 0004 00000000 		.zero	4
 2157              	_ZL10waitForAll:
 2158 0008 00000000 		.zero	8
 2158      00000000 
 2159              		.text
 2160              	.Letext0:
 2161              		.file 4 "test/../h/../lib/hw.h"
GAS LISTING /tmp/ccLq5UYy.s 			page 52


 2162              		.file 5 "test/../h/../h/syscall_c.hpp"
 2163              		.file 6 "test/buffer_CPP_API.hpp"
 2164              		.file 7 "test/printing.hpp"
 8417              		.align	3
 8420              	DW.ref.__gxx_personality_v0:
 8421 0000 00000000 		.dword	__gxx_personality_v0
 8421      00000000 
 8422              		.ident	"GCC: (Ubuntu 9.4.0-1ubuntu1~20.04) 9.4.0"
 8423              		.section	.note.GNU-stack,"",@progbits
GAS LISTING /tmp/ccLq5UYy.s 			page 53

