GAS LISTING /tmp/cc6ZYyze.s 			page 1


   1              		.file	"Threads_CPP_API_test.cpp"
   2              		.option pic
   3              		.option norelax
   4              		.text
   5              	.Ltext0:
   6              		.section	.text._ZN6Thread3runEv,"axG",@progbits,_ZN6Thread3runEv,comdat
   7              		.align	2
   8              		.weak	_ZN6Thread3runEv
  10              	_ZN6Thread3runEv:
  11              	.LFB37:
  12              		.file 1 "test/../h/syscall_cpp.hpp"
   1:test/../h/syscall_cpp.hpp **** //
   2:test/../h/syscall_cpp.hpp **** // Created by os on 5/8/23.
   3:test/../h/syscall_cpp.hpp **** //
   4:test/../h/syscall_cpp.hpp **** 
   5:test/../h/syscall_cpp.hpp **** #ifndef PROJECT_BASE_SYSCALL_CPP_HPP
   6:test/../h/syscall_cpp.hpp **** #define PROJECT_BASE_SYSCALL_CPP_HPP
   7:test/../h/syscall_cpp.hpp **** #include "MemoryAllocator.hpp"
   8:test/../h/syscall_cpp.hpp **** #include "PCB.hpp"
   9:test/../h/syscall_cpp.hpp **** #include "syscall_c.hpp"
  10:test/../h/syscall_cpp.hpp **** 
  11:test/../h/syscall_cpp.hpp **** void *operator new(size_t);
  12:test/../h/syscall_cpp.hpp **** 
  13:test/../h/syscall_cpp.hpp **** void operator delete(void *);
  14:test/../h/syscall_cpp.hpp **** 
  15:test/../h/syscall_cpp.hpp **** void *operator new[](size_t);
  16:test/../h/syscall_cpp.hpp **** 
  17:test/../h/syscall_cpp.hpp **** void operator delete[](void *ptr);
  18:test/../h/syscall_cpp.hpp **** 
  19:test/../h/syscall_cpp.hpp **** class PCB;
  20:test/../h/syscall_cpp.hpp **** typedef PCB *thread_t;
  21:test/../h/syscall_cpp.hpp **** 
  22:test/../h/syscall_cpp.hpp **** class Thread {
  23:test/../h/syscall_cpp.hpp **** public:
  24:test/../h/syscall_cpp.hpp ****     Thread(void (*body)(void *), void *arg): body(body), arg(arg) {
  25:test/../h/syscall_cpp.hpp ****     }
  26:test/../h/syscall_cpp.hpp **** 
  27:test/../h/syscall_cpp.hpp **** 
  28:test/../h/syscall_cpp.hpp ****     virtual ~Thread() {
  29:test/../h/syscall_cpp.hpp ****         myHandle->setState(PCB::FINISHED);
  30:test/../h/syscall_cpp.hpp ****         delete myHandle;
  31:test/../h/syscall_cpp.hpp ****     }
  32:test/../h/syscall_cpp.hpp **** 
  33:test/../h/syscall_cpp.hpp ****     int start() {
  34:test/../h/syscall_cpp.hpp ****         thread_create(&this->myHandle, body, arg);
  35:test/../h/syscall_cpp.hpp ****         return 0;
  36:test/../h/syscall_cpp.hpp ****     }
  37:test/../h/syscall_cpp.hpp **** 
  38:test/../h/syscall_cpp.hpp ****     void join();
  39:test/../h/syscall_cpp.hpp **** 
  40:test/../h/syscall_cpp.hpp ****     static void dispatch() {
  41:test/../h/syscall_cpp.hpp ****         thread_dispatch();
  42:test/../h/syscall_cpp.hpp ****     }
  43:test/../h/syscall_cpp.hpp **** 
  44:test/../h/syscall_cpp.hpp ****     static int sleep(time_t);
  45:test/../h/syscall_cpp.hpp **** 
  46:test/../h/syscall_cpp.hpp **** protected:
GAS LISTING /tmp/cc6ZYyze.s 			page 2


  47:test/../h/syscall_cpp.hpp ****     Thread() {
  48:test/../h/syscall_cpp.hpp ****         this->body = thread_wrapper;
  49:test/../h/syscall_cpp.hpp ****         this->arg = this;
  50:test/../h/syscall_cpp.hpp ****     }
  51:test/../h/syscall_cpp.hpp **** 
  52:test/../h/syscall_cpp.hpp ****     virtual void run() {
  13              		.loc 1 52 18
  14              		.cfi_startproc
  15              	.LVL0:
  16 0000 130101FF 		addi	sp,sp,-16
  17              		.cfi_def_cfa_offset 16
  18 0004 23348100 		sd	s0,8(sp)
  19              		.cfi_offset 8, -8
  20 0008 13040101 		addi	s0,sp,16
  21              		.cfi_def_cfa 8, 0
  53:test/../h/syscall_cpp.hpp ****     }
  22              		.loc 1 53 5 is_stmt 0
  23 000c 03348100 		ld	s0,8(sp)
  24              		.cfi_restore 8
  25              		.cfi_def_cfa 2, 16
  26 0010 13010101 		addi	sp,sp,16
  27              		.cfi_def_cfa_offset 0
  28 0014 67800000 		jr	ra
  29              		.cfi_endproc
  30              	.LFE37:
  32              		.section	.text._ZN6Thread14thread_wrapperEPv,"axG",@progbits,_ZN6Thread14thread_wrapperEPv,comdat
  33              		.align	2
  34              		.weak	_ZN6Thread14thread_wrapperEPv
  36              	_ZN6Thread14thread_wrapperEPv:
  37              	.LFB38:
  54:test/../h/syscall_cpp.hpp **** 
  55:test/../h/syscall_cpp.hpp **** private:
  56:test/../h/syscall_cpp.hpp ****     thread_t myHandle;
  57:test/../h/syscall_cpp.hpp **** 
  58:test/../h/syscall_cpp.hpp ****     void (*body)(void *);
  59:test/../h/syscall_cpp.hpp **** 
  60:test/../h/syscall_cpp.hpp ****     static void thread_wrapper(void *t) {
  38              		.loc 1 60 17 is_stmt 1
  39              		.cfi_startproc
  40              	.LVL1:
  41 0000 130101FF 		addi	sp,sp,-16
  42              		.cfi_def_cfa_offset 16
  43 0004 23341100 		sd	ra,8(sp)
  44 0008 23308100 		sd	s0,0(sp)
  45              		.cfi_offset 1, -8
  46              		.cfi_offset 8, -16
  47 000c 13040101 		addi	s0,sp,16
  48              		.cfi_def_cfa 8, 0
  61:test/../h/syscall_cpp.hpp ****         ((Thread *) t)->run();
  49              		.loc 1 61 9
  50              		.loc 1 61 29 is_stmt 0
  51 0010 83370500 		ld	a5,0(a0)
  52 0014 83B70701 		ld	a5,16(a5)
  53              		.loc 1 61 28
  54 0018 E7800700 		jalr	a5
  55              	.LVL2:
  62:test/../h/syscall_cpp.hpp ****     }
GAS LISTING /tmp/cc6ZYyze.s 			page 3


  56              		.loc 1 62 5
  57 001c 83308100 		ld	ra,8(sp)
  58              		.cfi_restore 1
  59 0020 03340100 		ld	s0,0(sp)
  60              		.cfi_restore 8
  61              		.cfi_def_cfa 2, 16
  62 0024 13010101 		addi	sp,sp,16
  63              		.cfi_def_cfa_offset 0
  64 0028 67800000 		jr	ra
  65              		.cfi_endproc
  66              	.LFE38:
  68              		.text
  69              		.align	2
  71              	_ZL9fibonaccim:
  72              	.LFB48:
  73              		.file 2 "test/Threads_CPP_API_test.cpp"
   1:test/Threads_CPP_API_test.cpp **** #include "../h/syscall_cpp.hpp"
   2:test/Threads_CPP_API_test.cpp **** #include "Threads_CPP_API_test.hpp"
   3:test/Threads_CPP_API_test.cpp **** #include "printing.hpp"
   4:test/Threads_CPP_API_test.cpp **** 
   5:test/Threads_CPP_API_test.cpp **** static volatile bool finishedA = false;
   6:test/Threads_CPP_API_test.cpp **** static volatile bool finishedB = false;
   7:test/Threads_CPP_API_test.cpp **** static volatile bool finishedC = false;
   8:test/Threads_CPP_API_test.cpp **** static volatile bool finishedD = false;
   9:test/Threads_CPP_API_test.cpp **** 
  10:test/Threads_CPP_API_test.cpp **** static uint64 fibonacci(uint64 n) {
  74              		.loc 2 10 35 is_stmt 1
  75              		.cfi_startproc
  76              	.LVL3:
  77 0000 130101FE 		addi	sp,sp,-32
  78              		.cfi_def_cfa_offset 32
  79 0004 233C1100 		sd	ra,24(sp)
  80 0008 23388100 		sd	s0,16(sp)
  81 000c 23349100 		sd	s1,8(sp)
  82 0010 23302101 		sd	s2,0(sp)
  83              		.cfi_offset 1, -8
  84              		.cfi_offset 8, -16
  85              		.cfi_offset 9, -24
  86              		.cfi_offset 18, -32
  87 0014 13040102 		addi	s0,sp,32
  88              		.cfi_def_cfa 8, 0
  89 0018 93040500 		mv	s1,a0
  11:test/Threads_CPP_API_test.cpp ****     if (n == 0 || n == 1) { return n; }
  90              		.loc 2 11 5
  91 001c 93071000 		li	a5,1
  92 0020 63F8A702 		bleu	a0,a5,.L5
  12:test/Threads_CPP_API_test.cpp ****     if (n % 10 == 0) { thread_dispatch(); }
  93              		.loc 2 12 5
  94              		.loc 2 12 11 is_stmt 0
  95 0024 9307A000 		li	a5,10
  96 0028 B377F502 		remu	a5,a0,a5
  97              		.loc 2 12 5
  98 002c 638E0702 		beqz	a5,.L10
  99              	.LVL4:
 100              	.L7:
  13:test/Threads_CPP_API_test.cpp ****     return fibonacci(n - 1) + fibonacci(n - 2);
 101              		.loc 2 13 5 is_stmt 1
GAS LISTING /tmp/cc6ZYyze.s 			page 4


 102              		.loc 2 13 21 is_stmt 0
 103 0030 1385F4FF 		addi	a0,s1,-1
 104 0034 97000000 		call	_ZL9fibonaccim
 104      E7800000 
 105              	.LVL5:
 106 003c 13090500 		mv	s2,a0
 107              		.loc 2 13 40
 108 0040 1385E4FF 		addi	a0,s1,-2
 109 0044 97000000 		call	_ZL9fibonaccim
 109      E7800000 
 110              	.LVL6:
 111              		.loc 2 13 46
 112 004c 3305A900 		add	a0,s2,a0
 113              	.L5:
  14:test/Threads_CPP_API_test.cpp **** }
 114              		.loc 2 14 1
 115 0050 83308101 		ld	ra,24(sp)
 116              		.cfi_remember_state
 117              		.cfi_restore 1
 118 0054 03340101 		ld	s0,16(sp)
 119              		.cfi_restore 8
 120              		.cfi_def_cfa 2, 32
 121 0058 83348100 		ld	s1,8(sp)
 122              		.cfi_restore 9
 123              	.LVL7:
 124 005c 03390100 		ld	s2,0(sp)
 125              		.cfi_restore 18
 126 0060 13010102 		addi	sp,sp,32
 127              		.cfi_def_cfa_offset 0
 128 0064 67800000 		jr	ra
 129              	.LVL8:
 130              	.L10:
 131              		.cfi_restore_state
  12:test/Threads_CPP_API_test.cpp ****     if (n % 10 == 0) { thread_dispatch(); }
 132              		.loc 2 12 24 is_stmt 1 discriminator 1
  12:test/Threads_CPP_API_test.cpp ****     if (n % 10 == 0) { thread_dispatch(); }
 133              		.loc 2 12 39 is_stmt 0 discriminator 1
 134 0068 97000000 		call	_Z15thread_dispatchv@plt
 134      E7800000 
 135              	.LVL9:
 136 0070 6FF01FFC 		j	.L7
 137              		.cfi_endproc
 138              	.LFE48:
 140              		.section	.text._ZN6ThreadD2Ev,"axG",@progbits,_ZN6ThreadD5Ev,comdat
 141              		.align	2
 142              		.weak	_ZN6ThreadD2Ev
 144              	_ZN6ThreadD2Ev:
 145              	.LFB29:
  28:test/../h/syscall_cpp.hpp ****         myHandle->setState(PCB::FINISHED);
 146              		.loc 1 28 13 is_stmt 1
 147              		.cfi_startproc
 148              		.cfi_personality 0x9b,DW.ref.__gxx_personality_v0
 149              		.cfi_lsda 0x1b,.LLSDA29
 150              	.LVL10:
 151 0000 130101FE 		addi	sp,sp,-32
 152              		.cfi_def_cfa_offset 32
 153 0004 233C1100 		sd	ra,24(sp)
GAS LISTING /tmp/cc6ZYyze.s 			page 5


 154 0008 23388100 		sd	s0,16(sp)
 155 000c 23349100 		sd	s1,8(sp)
 156              		.cfi_offset 1, -8
 157              		.cfi_offset 8, -16
 158              		.cfi_offset 9, -24
 159 0010 13040102 		addi	s0,sp,32
 160              		.cfi_def_cfa 8, 0
 161              	.LBB71:
  28:test/../h/syscall_cpp.hpp ****         myHandle->setState(PCB::FINISHED);
 162              		.loc 1 28 23 is_stmt 0
 163 0014 97070000 		lla	a5,_ZTV6Thread+16
 163      93870700 
 164 001c 2330F500 		sd	a5,0(a0)
  29:test/../h/syscall_cpp.hpp ****         delete myHandle;
 165              		.loc 1 29 9 is_stmt 1
 166 0020 83378500 		ld	a5,8(a0)
 167              	.LVL11:
 168              	.LBB72:
 169              	.LBB73:
 170              		.file 3 "test/../h/PCB.hpp"
   1:test/../h/PCB.hpp **** //
   2:test/../h/PCB.hpp **** // Created by marko on 20.4.22..
   3:test/../h/PCB.hpp **** //
   4:test/../h/PCB.hpp **** 
   5:test/../h/PCB.hpp **** #ifndef OS1_VEZBE07_RISCV_CONTEXT_SWITCH_1_SYNCHRONOUS_CCB_HPP
   6:test/../h/PCB.hpp **** #define OS1_VEZBE07_RISCV_CONTEXT_SWITCH_1_SYNCHRONOUS_CCB_HPP
   7:test/../h/PCB.hpp **** 
   8:test/../h/PCB.hpp **** 
   9:test/../h/PCB.hpp **** #include "../lib/hw.h"
  10:test/../h/PCB.hpp **** #include "scheduler.hpp"
  11:test/../h/PCB.hpp **** #include "../h/syscall_c.hpp"
  12:test/../h/PCB.hpp **** #include "MemoryAllocator.hpp"
  13:test/../h/PCB.hpp **** // static int id = 0;
  14:test/../h/PCB.hpp **** 
  15:test/../h/PCB.hpp **** class PCB {
  16:test/../h/PCB.hpp **** public:
  17:test/../h/PCB.hpp ****     ~PCB() { delete[] stack; }
  18:test/../h/PCB.hpp **** 
  19:test/../h/PCB.hpp ****     enum threadState {
  20:test/../h/PCB.hpp ****         CREATED, READY, RUNNING, SLEEPING, BLOCKED, FINISHED, IDLE
  21:test/../h/PCB.hpp ****     };
  22:test/../h/PCB.hpp **** 
  23:test/../h/PCB.hpp ****     bool isSystem() const { return system; }
  24:test/../h/PCB.hpp **** 
  25:test/../h/PCB.hpp ****     void setSystem(bool value) { system = value; }
  26:test/../h/PCB.hpp **** 
  27:test/../h/PCB.hpp ****     bool isParentWaitng() const { return isWaiting; }
  28:test/../h/PCB.hpp **** 
  29:test/../h/PCB.hpp ****     void parentNotWaitng() { isWaiting = false; }
  30:test/../h/PCB.hpp **** 
  31:test/../h/PCB.hpp ****     PCB *getParent() const { return parent; }
  32:test/../h/PCB.hpp **** 
  33:test/../h/PCB.hpp ****     void setParent(PCB *pcb) { parent = pcb; }
  34:test/../h/PCB.hpp **** 
  35:test/../h/PCB.hpp ****     using Body = void (*)(void *);
  36:test/../h/PCB.hpp **** 
  37:test/../h/PCB.hpp ****     static thread_t create_thread(Body body, void *arg, uint64 *stack_space);
GAS LISTING /tmp/cc6ZYyze.s 			page 6


  38:test/../h/PCB.hpp **** 
  39:test/../h/PCB.hpp ****     static void yield();
  40:test/../h/PCB.hpp **** 
  41:test/../h/PCB.hpp ****     static void dispatch();
  42:test/../h/PCB.hpp **** 
  43:test/../h/PCB.hpp ****     threadState getState() const { return state; }
  44:test/../h/PCB.hpp **** 
  45:test/../h/PCB.hpp ****     void setState(threadState st) { state = st; }
 171              		.loc 3 45 37
 172              		.loc 3 45 43 is_stmt 0
 173 0024 13075000 		li	a4,5
 174 0028 23A8E702 		sw	a4,48(a5)
 175              	.LVL12:
 176              	.LBE73:
 177              	.LBE72:
  30:test/../h/syscall_cpp.hpp ****     }
 178              		.loc 1 30 9 is_stmt 1
  30:test/../h/syscall_cpp.hpp ****     }
 179              		.loc 1 30 16 is_stmt 0
 180 002c 83348500 		ld	s1,8(a0)
  30:test/../h/syscall_cpp.hpp ****     }
 181              		.loc 1 30 24
 182 0030 63800402 		beqz	s1,.L11
 183              	.LVL13:
 184              	.LBB74:
 185              	.LBB75:
  17:test/../h/PCB.hpp **** 
 186              		.loc 3 17 14 is_stmt 1
  17:test/../h/PCB.hpp **** 
 187              		.loc 3 17 23 is_stmt 0
 188 0034 03B58401 		ld	a0,24(s1)
 189              	.LVL14:
  17:test/../h/PCB.hpp **** 
 190              		.loc 3 17 28
 191 0038 63060500 		beqz	a0,.L13
  17:test/../h/PCB.hpp **** 
 192              		.loc 3 17 23
 193 003c 97000000 		call	_ZdaPv@plt
 193      E7800000 
 194              	.LVL15:
 195              	.L13:
 196              	.LBE75:
 197              	.LBE74:
  30:test/../h/syscall_cpp.hpp ****     }
 198              		.loc 1 30 16
 199 0044 13850400 		mv	a0,s1
 200 0048 97000000 		call	_ZdlPv@plt
 200      E7800000 
 201              	.LVL16:
 202              	.L11:
 203              	.LBE71:
  31:test/../h/syscall_cpp.hpp **** 
 204              		.loc 1 31 5
 205 0050 83308101 		ld	ra,24(sp)
 206              		.cfi_restore 1
 207 0054 03340101 		ld	s0,16(sp)
 208              		.cfi_restore 8
GAS LISTING /tmp/cc6ZYyze.s 			page 7


 209              		.cfi_def_cfa 2, 32
 210 0058 83348100 		ld	s1,8(sp)
 211              		.cfi_restore 9
 212 005c 13010102 		addi	sp,sp,32
 213              		.cfi_def_cfa_offset 0
 214 0060 67800000 		jr	ra
 215              		.cfi_endproc
 216              	.LFE29:
 217              		.globl	__gxx_personality_v0
 218              		.section	.gcc_except_table._ZN6ThreadD2Ev,"aG",@progbits,_ZN6ThreadD5Ev,comdat
 219              	.LLSDA29:
 220 0000 FF       		.byte	0xff
 221 0001 FF       		.byte	0xff
 222 0002 03       		.byte	0x3
 223 0003 00       		.byte	0
 224              		.section	.text._ZN6ThreadD2Ev,"axG",@progbits,_ZN6ThreadD5Ev,comdat
 226              		.weak	_ZN6ThreadD1Ev
 227              		.set	_ZN6ThreadD1Ev,_ZN6ThreadD2Ev
 228              		.section	.text._ZN7WorkerAD2Ev,"axG",@progbits,_ZN7WorkerAD5Ev,comdat
 229              		.align	2
 230              		.weak	_ZN7WorkerAD2Ev
 232              	_ZN7WorkerAD2Ev:
 233              	.LFB83:
  15:test/Threads_CPP_API_test.cpp **** 
  16:test/Threads_CPP_API_test.cpp **** class WorkerA : public Thread {
 234              		.loc 2 16 7 is_stmt 1
 235              		.cfi_startproc
 236              		.cfi_personality 0x9b,DW.ref.__gxx_personality_v0
 237              		.cfi_lsda 0x1b,.LLSDA83
 238              	.LVL17:
 239 0000 130101FE 		addi	sp,sp,-32
 240              		.cfi_def_cfa_offset 32
 241 0004 233C1100 		sd	ra,24(sp)
 242 0008 23388100 		sd	s0,16(sp)
 243 000c 23349100 		sd	s1,8(sp)
 244              		.cfi_offset 1, -8
 245              		.cfi_offset 8, -16
 246              		.cfi_offset 9, -24
 247 0010 13040102 		addi	s0,sp,32
 248              		.cfi_def_cfa 8, 0
 249              	.LVL18:
 250              	.LBB84:
 251              	.LBB85:
 252              	.LBB86:
  28:test/../h/syscall_cpp.hpp ****         myHandle->setState(PCB::FINISHED);
 253              		.loc 1 28 23 is_stmt 0
 254 0014 97070000 		lla	a5,_ZTV6Thread+16
 254      93870700 
 255 001c 2330F500 		sd	a5,0(a0)
  29:test/../h/syscall_cpp.hpp ****         delete myHandle;
 256              		.loc 1 29 9 is_stmt 1
 257 0020 83378500 		ld	a5,8(a0)
 258              	.LVL19:
 259              	.LBB87:
 260              	.LBB88:
 261              		.loc 3 45 37
 262              		.loc 3 45 43 is_stmt 0
GAS LISTING /tmp/cc6ZYyze.s 			page 8


 263 0024 13075000 		li	a4,5
 264 0028 23A8E702 		sw	a4,48(a5)
 265              	.LVL20:
 266              	.LBE88:
 267              	.LBE87:
  30:test/../h/syscall_cpp.hpp ****     }
 268              		.loc 1 30 9 is_stmt 1
  30:test/../h/syscall_cpp.hpp ****     }
 269              		.loc 1 30 16 is_stmt 0
 270 002c 83348500 		ld	s1,8(a0)
  30:test/../h/syscall_cpp.hpp ****     }
 271              		.loc 1 30 24
 272 0030 63800402 		beqz	s1,.L15
 273              	.LVL21:
 274              	.LBB89:
 275              	.LBB90:
  17:test/../h/PCB.hpp **** 
 276              		.loc 3 17 14 is_stmt 1
  17:test/../h/PCB.hpp **** 
 277              		.loc 3 17 23 is_stmt 0
 278 0034 03B58401 		ld	a0,24(s1)
 279              	.LVL22:
  17:test/../h/PCB.hpp **** 
 280              		.loc 3 17 28
 281 0038 63060500 		beqz	a0,.L17
  17:test/../h/PCB.hpp **** 
 282              		.loc 3 17 23
 283 003c 97000000 		call	_ZdaPv@plt
 283      E7800000 
 284              	.LVL23:
 285              	.L17:
 286              	.LBE90:
 287              	.LBE89:
  30:test/../h/syscall_cpp.hpp ****     }
 288              		.loc 1 30 16
 289 0044 13850400 		mv	a0,s1
 290 0048 97000000 		call	_ZdlPv@plt
 290      E7800000 
 291              	.LVL24:
 292              	.L15:
 293              	.LBE86:
 294              	.LBE85:
 295              	.LBE84:
 296              		.loc 2 16 7
 297 0050 83308101 		ld	ra,24(sp)
 298              		.cfi_restore 1
 299 0054 03340101 		ld	s0,16(sp)
 300              		.cfi_restore 8
 301              		.cfi_def_cfa 2, 32
 302 0058 83348100 		ld	s1,8(sp)
 303              		.cfi_restore 9
 304 005c 13010102 		addi	sp,sp,32
 305              		.cfi_def_cfa_offset 0
 306 0060 67800000 		jr	ra
 307              		.cfi_endproc
 308              	.LFE83:
 309              		.section	.gcc_except_table._ZN7WorkerAD2Ev,"aG",@progbits,_ZN7WorkerAD5Ev,comdat
GAS LISTING /tmp/cc6ZYyze.s 			page 9


 310              	.LLSDA83:
 311 0000 FF       		.byte	0xff
 312 0001 FF       		.byte	0xff
 313 0002 03       		.byte	0x3
 314 0003 00       		.byte	0
 315              		.section	.text._ZN7WorkerAD2Ev,"axG",@progbits,_ZN7WorkerAD5Ev,comdat
 317              		.weak	_ZN7WorkerAD1Ev
 318              		.set	_ZN7WorkerAD1Ev,_ZN7WorkerAD2Ev
 319              		.section	.text._ZN7WorkerDD2Ev,"axG",@progbits,_ZN7WorkerDD5Ev,comdat
 320              		.align	2
 321              		.weak	_ZN7WorkerDD2Ev
 323              	_ZN7WorkerDD2Ev:
 324              	.LFB71:
  17:test/Threads_CPP_API_test.cpp ****     void workerBodyA(void *arg);
  18:test/Threads_CPP_API_test.cpp **** 
  19:test/Threads_CPP_API_test.cpp **** public:
  20:test/Threads_CPP_API_test.cpp ****     WorkerA(): Thread() {
  21:test/Threads_CPP_API_test.cpp ****     }
  22:test/Threads_CPP_API_test.cpp **** 
  23:test/Threads_CPP_API_test.cpp ****     void run() override {
  24:test/Threads_CPP_API_test.cpp ****         workerBodyA(nullptr);
  25:test/Threads_CPP_API_test.cpp ****     }
  26:test/Threads_CPP_API_test.cpp **** };
  27:test/Threads_CPP_API_test.cpp **** 
  28:test/Threads_CPP_API_test.cpp **** class WorkerB : public Thread {
  29:test/Threads_CPP_API_test.cpp ****     void workerBodyB(void *arg);
  30:test/Threads_CPP_API_test.cpp **** 
  31:test/Threads_CPP_API_test.cpp **** public:
  32:test/Threads_CPP_API_test.cpp ****     WorkerB(): Thread() {
  33:test/Threads_CPP_API_test.cpp ****     }
  34:test/Threads_CPP_API_test.cpp **** 
  35:test/Threads_CPP_API_test.cpp ****     void run() override {
  36:test/Threads_CPP_API_test.cpp ****         workerBodyB(nullptr);
  37:test/Threads_CPP_API_test.cpp ****     }
  38:test/Threads_CPP_API_test.cpp **** };
  39:test/Threads_CPP_API_test.cpp **** 
  40:test/Threads_CPP_API_test.cpp **** class WorkerC : public Thread {
  41:test/Threads_CPP_API_test.cpp ****     void workerBodyC(void *arg);
  42:test/Threads_CPP_API_test.cpp **** 
  43:test/Threads_CPP_API_test.cpp **** public:
  44:test/Threads_CPP_API_test.cpp ****     WorkerC(): Thread() {
  45:test/Threads_CPP_API_test.cpp ****     }
  46:test/Threads_CPP_API_test.cpp **** 
  47:test/Threads_CPP_API_test.cpp ****     void run() override {
  48:test/Threads_CPP_API_test.cpp ****         workerBodyC(nullptr);
  49:test/Threads_CPP_API_test.cpp ****     }
  50:test/Threads_CPP_API_test.cpp **** };
  51:test/Threads_CPP_API_test.cpp **** 
  52:test/Threads_CPP_API_test.cpp **** class WorkerD : public Thread {
 325              		.loc 2 52 7 is_stmt 1
 326              		.cfi_startproc
 327              		.cfi_personality 0x9b,DW.ref.__gxx_personality_v0
 328              		.cfi_lsda 0x1b,.LLSDA71
 329              	.LVL25:
 330 0000 130101FE 		addi	sp,sp,-32
 331              		.cfi_def_cfa_offset 32
 332 0004 233C1100 		sd	ra,24(sp)
GAS LISTING /tmp/cc6ZYyze.s 			page 10


 333 0008 23388100 		sd	s0,16(sp)
 334 000c 23349100 		sd	s1,8(sp)
 335              		.cfi_offset 1, -8
 336              		.cfi_offset 8, -16
 337              		.cfi_offset 9, -24
 338 0010 13040102 		addi	s0,sp,32
 339              		.cfi_def_cfa 8, 0
 340              	.LVL26:
 341              	.LBB99:
 342              	.LBB100:
 343              	.LBB101:
  28:test/../h/syscall_cpp.hpp ****         myHandle->setState(PCB::FINISHED);
 344              		.loc 1 28 23 is_stmt 0
 345 0014 97070000 		lla	a5,_ZTV6Thread+16
 345      93870700 
 346 001c 2330F500 		sd	a5,0(a0)
  29:test/../h/syscall_cpp.hpp ****         delete myHandle;
 347              		.loc 1 29 9 is_stmt 1
 348 0020 83378500 		ld	a5,8(a0)
 349              	.LVL27:
 350              	.LBB102:
 351              	.LBB103:
 352              		.loc 3 45 37
 353              		.loc 3 45 43 is_stmt 0
 354 0024 13075000 		li	a4,5
 355 0028 23A8E702 		sw	a4,48(a5)
 356              	.LVL28:
 357              	.LBE103:
 358              	.LBE102:
  30:test/../h/syscall_cpp.hpp ****     }
 359              		.loc 1 30 9 is_stmt 1
  30:test/../h/syscall_cpp.hpp ****     }
 360              		.loc 1 30 16 is_stmt 0
 361 002c 83348500 		ld	s1,8(a0)
  30:test/../h/syscall_cpp.hpp ****     }
 362              		.loc 1 30 24
 363 0030 63800402 		beqz	s1,.L19
 364              	.LVL29:
 365              	.LBB104:
 366              	.LBB105:
  17:test/../h/PCB.hpp **** 
 367              		.loc 3 17 14 is_stmt 1
  17:test/../h/PCB.hpp **** 
 368              		.loc 3 17 23 is_stmt 0
 369 0034 03B58401 		ld	a0,24(s1)
 370              	.LVL30:
  17:test/../h/PCB.hpp **** 
 371              		.loc 3 17 28
 372 0038 63060500 		beqz	a0,.L21
  17:test/../h/PCB.hpp **** 
 373              		.loc 3 17 23
 374 003c 97000000 		call	_ZdaPv@plt
 374      E7800000 
 375              	.LVL31:
 376              	.L21:
 377              	.LBE105:
 378              	.LBE104:
GAS LISTING /tmp/cc6ZYyze.s 			page 11


  30:test/../h/syscall_cpp.hpp ****     }
 379              		.loc 1 30 16
 380 0044 13850400 		mv	a0,s1
 381 0048 97000000 		call	_ZdlPv@plt
 381      E7800000 
 382              	.LVL32:
 383              	.L19:
 384              	.LBE101:
 385              	.LBE100:
 386              	.LBE99:
 387              		.loc 2 52 7
 388 0050 83308101 		ld	ra,24(sp)
 389              		.cfi_restore 1
 390 0054 03340101 		ld	s0,16(sp)
 391              		.cfi_restore 8
 392              		.cfi_def_cfa 2, 32
 393 0058 83348100 		ld	s1,8(sp)
 394              		.cfi_restore 9
 395 005c 13010102 		addi	sp,sp,32
 396              		.cfi_def_cfa_offset 0
 397 0060 67800000 		jr	ra
 398              		.cfi_endproc
 399              	.LFE71:
 400              		.section	.gcc_except_table._ZN7WorkerDD2Ev,"aG",@progbits,_ZN7WorkerDD5Ev,comdat
 401              	.LLSDA71:
 402 0000 FF       		.byte	0xff
 403 0001 FF       		.byte	0xff
 404 0002 03       		.byte	0x3
 405 0003 00       		.byte	0
 406              		.section	.text._ZN7WorkerDD2Ev,"axG",@progbits,_ZN7WorkerDD5Ev,comdat
 408              		.weak	_ZN7WorkerDD1Ev
 409              		.set	_ZN7WorkerDD1Ev,_ZN7WorkerDD2Ev
 410              		.section	.text._ZN7WorkerCD2Ev,"axG",@progbits,_ZN7WorkerCD5Ev,comdat
 411              		.align	2
 412              		.weak	_ZN7WorkerCD2Ev
 414              	_ZN7WorkerCD2Ev:
 415              	.LFB75:
  40:test/Threads_CPP_API_test.cpp ****     void workerBodyC(void *arg);
 416              		.loc 2 40 7 is_stmt 1
 417              		.cfi_startproc
 418              		.cfi_personality 0x9b,DW.ref.__gxx_personality_v0
 419              		.cfi_lsda 0x1b,.LLSDA75
 420              	.LVL33:
 421 0000 130101FE 		addi	sp,sp,-32
 422              		.cfi_def_cfa_offset 32
 423 0004 233C1100 		sd	ra,24(sp)
 424 0008 23388100 		sd	s0,16(sp)
 425 000c 23349100 		sd	s1,8(sp)
 426              		.cfi_offset 1, -8
 427              		.cfi_offset 8, -16
 428              		.cfi_offset 9, -24
 429 0010 13040102 		addi	s0,sp,32
 430              		.cfi_def_cfa 8, 0
 431              	.LVL34:
 432              	.LBB114:
 433              	.LBB115:
 434              	.LBB116:
GAS LISTING /tmp/cc6ZYyze.s 			page 12


  28:test/../h/syscall_cpp.hpp ****         myHandle->setState(PCB::FINISHED);
 435              		.loc 1 28 23 is_stmt 0
 436 0014 97070000 		lla	a5,_ZTV6Thread+16
 436      93870700 
 437 001c 2330F500 		sd	a5,0(a0)
  29:test/../h/syscall_cpp.hpp ****         delete myHandle;
 438              		.loc 1 29 9 is_stmt 1
 439 0020 83378500 		ld	a5,8(a0)
 440              	.LVL35:
 441              	.LBB117:
 442              	.LBB118:
 443              		.loc 3 45 37
 444              		.loc 3 45 43 is_stmt 0
 445 0024 13075000 		li	a4,5
 446 0028 23A8E702 		sw	a4,48(a5)
 447              	.LVL36:
 448              	.LBE118:
 449              	.LBE117:
  30:test/../h/syscall_cpp.hpp ****     }
 450              		.loc 1 30 9 is_stmt 1
  30:test/../h/syscall_cpp.hpp ****     }
 451              		.loc 1 30 16 is_stmt 0
 452 002c 83348500 		ld	s1,8(a0)
  30:test/../h/syscall_cpp.hpp ****     }
 453              		.loc 1 30 24
 454 0030 63800402 		beqz	s1,.L23
 455              	.LVL37:
 456              	.LBB119:
 457              	.LBB120:
  17:test/../h/PCB.hpp **** 
 458              		.loc 3 17 14 is_stmt 1
  17:test/../h/PCB.hpp **** 
 459              		.loc 3 17 23 is_stmt 0
 460 0034 03B58401 		ld	a0,24(s1)
 461              	.LVL38:
  17:test/../h/PCB.hpp **** 
 462              		.loc 3 17 28
 463 0038 63060500 		beqz	a0,.L25
  17:test/../h/PCB.hpp **** 
 464              		.loc 3 17 23
 465 003c 97000000 		call	_ZdaPv@plt
 465      E7800000 
 466              	.LVL39:
 467              	.L25:
 468              	.LBE120:
 469              	.LBE119:
  30:test/../h/syscall_cpp.hpp ****     }
 470              		.loc 1 30 16
 471 0044 13850400 		mv	a0,s1
 472 0048 97000000 		call	_ZdlPv@plt
 472      E7800000 
 473              	.LVL40:
 474              	.L23:
 475              	.LBE116:
 476              	.LBE115:
 477              	.LBE114:
  40:test/Threads_CPP_API_test.cpp ****     void workerBodyC(void *arg);
GAS LISTING /tmp/cc6ZYyze.s 			page 13


 478              		.loc 2 40 7
 479 0050 83308101 		ld	ra,24(sp)
 480              		.cfi_restore 1
 481 0054 03340101 		ld	s0,16(sp)
 482              		.cfi_restore 8
 483              		.cfi_def_cfa 2, 32
 484 0058 83348100 		ld	s1,8(sp)
 485              		.cfi_restore 9
 486 005c 13010102 		addi	sp,sp,32
 487              		.cfi_def_cfa_offset 0
 488 0060 67800000 		jr	ra
 489              		.cfi_endproc
 490              	.LFE75:
 491              		.section	.gcc_except_table._ZN7WorkerCD2Ev,"aG",@progbits,_ZN7WorkerCD5Ev,comdat
 492              	.LLSDA75:
 493 0000 FF       		.byte	0xff
 494 0001 FF       		.byte	0xff
 495 0002 03       		.byte	0x3
 496 0003 00       		.byte	0
 497              		.section	.text._ZN7WorkerCD2Ev,"axG",@progbits,_ZN7WorkerCD5Ev,comdat
 499              		.weak	_ZN7WorkerCD1Ev
 500              		.set	_ZN7WorkerCD1Ev,_ZN7WorkerCD2Ev
 501              		.section	.text._ZN7WorkerBD2Ev,"axG",@progbits,_ZN7WorkerBD5Ev,comdat
 502              		.align	2
 503              		.weak	_ZN7WorkerBD2Ev
 505              	_ZN7WorkerBD2Ev:
 506              	.LFB79:
  28:test/Threads_CPP_API_test.cpp ****     void workerBodyB(void *arg);
 507              		.loc 2 28 7 is_stmt 1
 508              		.cfi_startproc
 509              		.cfi_personality 0x9b,DW.ref.__gxx_personality_v0
 510              		.cfi_lsda 0x1b,.LLSDA79
 511              	.LVL41:
 512 0000 130101FE 		addi	sp,sp,-32
 513              		.cfi_def_cfa_offset 32
 514 0004 233C1100 		sd	ra,24(sp)
 515 0008 23388100 		sd	s0,16(sp)
 516 000c 23349100 		sd	s1,8(sp)
 517              		.cfi_offset 1, -8
 518              		.cfi_offset 8, -16
 519              		.cfi_offset 9, -24
 520 0010 13040102 		addi	s0,sp,32
 521              		.cfi_def_cfa 8, 0
 522              	.LVL42:
 523              	.LBB129:
 524              	.LBB130:
 525              	.LBB131:
  28:test/../h/syscall_cpp.hpp ****         myHandle->setState(PCB::FINISHED);
 526              		.loc 1 28 23 is_stmt 0
 527 0014 97070000 		lla	a5,_ZTV6Thread+16
 527      93870700 
 528 001c 2330F500 		sd	a5,0(a0)
  29:test/../h/syscall_cpp.hpp ****         delete myHandle;
 529              		.loc 1 29 9 is_stmt 1
 530 0020 83378500 		ld	a5,8(a0)
 531              	.LVL43:
 532              	.LBB132:
GAS LISTING /tmp/cc6ZYyze.s 			page 14


 533              	.LBB133:
 534              		.loc 3 45 37
 535              		.loc 3 45 43 is_stmt 0
 536 0024 13075000 		li	a4,5
 537 0028 23A8E702 		sw	a4,48(a5)
 538              	.LVL44:
 539              	.LBE133:
 540              	.LBE132:
  30:test/../h/syscall_cpp.hpp ****     }
 541              		.loc 1 30 9 is_stmt 1
  30:test/../h/syscall_cpp.hpp ****     }
 542              		.loc 1 30 16 is_stmt 0
 543 002c 83348500 		ld	s1,8(a0)
  30:test/../h/syscall_cpp.hpp ****     }
 544              		.loc 1 30 24
 545 0030 63800402 		beqz	s1,.L27
 546              	.LVL45:
 547              	.LBB134:
 548              	.LBB135:
  17:test/../h/PCB.hpp **** 
 549              		.loc 3 17 14 is_stmt 1
  17:test/../h/PCB.hpp **** 
 550              		.loc 3 17 23 is_stmt 0
 551 0034 03B58401 		ld	a0,24(s1)
 552              	.LVL46:
  17:test/../h/PCB.hpp **** 
 553              		.loc 3 17 28
 554 0038 63060500 		beqz	a0,.L29
  17:test/../h/PCB.hpp **** 
 555              		.loc 3 17 23
 556 003c 97000000 		call	_ZdaPv@plt
 556      E7800000 
 557              	.LVL47:
 558              	.L29:
 559              	.LBE135:
 560              	.LBE134:
  30:test/../h/syscall_cpp.hpp ****     }
 561              		.loc 1 30 16
 562 0044 13850400 		mv	a0,s1
 563 0048 97000000 		call	_ZdlPv@plt
 563      E7800000 
 564              	.LVL48:
 565              	.L27:
 566              	.LBE131:
 567              	.LBE130:
 568              	.LBE129:
  28:test/Threads_CPP_API_test.cpp ****     void workerBodyB(void *arg);
 569              		.loc 2 28 7
 570 0050 83308101 		ld	ra,24(sp)
 571              		.cfi_restore 1
 572 0054 03340101 		ld	s0,16(sp)
 573              		.cfi_restore 8
 574              		.cfi_def_cfa 2, 32
 575 0058 83348100 		ld	s1,8(sp)
 576              		.cfi_restore 9
 577 005c 13010102 		addi	sp,sp,32
 578              		.cfi_def_cfa_offset 0
GAS LISTING /tmp/cc6ZYyze.s 			page 15


 579 0060 67800000 		jr	ra
 580              		.cfi_endproc
 581              	.LFE79:
 582              		.section	.gcc_except_table._ZN7WorkerBD2Ev,"aG",@progbits,_ZN7WorkerBD5Ev,comdat
 583              	.LLSDA79:
 584 0000 FF       		.byte	0xff
 585 0001 FF       		.byte	0xff
 586 0002 03       		.byte	0x3
 587 0003 00       		.byte	0
 588              		.section	.text._ZN7WorkerBD2Ev,"axG",@progbits,_ZN7WorkerBD5Ev,comdat
 590              		.weak	_ZN7WorkerBD1Ev
 591              		.set	_ZN7WorkerBD1Ev,_ZN7WorkerBD2Ev
 592              		.section	.text._ZN6ThreadD0Ev,"axG",@progbits,_ZN6ThreadD5Ev,comdat
 593              		.align	2
 594              		.weak	_ZN6ThreadD0Ev
 596              	_ZN6ThreadD0Ev:
 597              	.LFB31:
  28:test/../h/syscall_cpp.hpp ****         myHandle->setState(PCB::FINISHED);
 598              		.loc 1 28 13 is_stmt 1
 599              		.cfi_startproc
 600              		.cfi_personality 0x9b,DW.ref.__gxx_personality_v0
 601              		.cfi_lsda 0x1b,.LLSDA31
 602              	.LVL49:
 603 0000 130101FE 		addi	sp,sp,-32
 604              		.cfi_def_cfa_offset 32
 605 0004 233C1100 		sd	ra,24(sp)
 606 0008 23388100 		sd	s0,16(sp)
 607 000c 23349100 		sd	s1,8(sp)
 608 0010 23302101 		sd	s2,0(sp)
 609              		.cfi_offset 1, -8
 610              		.cfi_offset 8, -16
 611              		.cfi_offset 9, -24
 612              		.cfi_offset 18, -32
 613 0014 13040102 		addi	s0,sp,32
 614              		.cfi_def_cfa 8, 0
 615 0018 93040500 		mv	s1,a0
 616              	.LVL50:
 617              	.LBB143:
 618              	.LBB144:
  28:test/../h/syscall_cpp.hpp ****         myHandle->setState(PCB::FINISHED);
 619              		.loc 1 28 23 is_stmt 0
 620 001c 97070000 		lla	a5,_ZTV6Thread+16
 620      93870700 
 621 0024 2330F500 		sd	a5,0(a0)
  29:test/../h/syscall_cpp.hpp ****         delete myHandle;
 622              		.loc 1 29 9 is_stmt 1
 623 0028 83378500 		ld	a5,8(a0)
 624              	.LVL51:
 625              	.LBB145:
 626              	.LBB146:
 627              		.loc 3 45 37
 628              		.loc 3 45 43 is_stmt 0
 629 002c 13075000 		li	a4,5
 630 0030 23A8E702 		sw	a4,48(a5)
 631              	.LVL52:
 632              	.LBE146:
 633              	.LBE145:
GAS LISTING /tmp/cc6ZYyze.s 			page 16


  30:test/../h/syscall_cpp.hpp ****     }
 634              		.loc 1 30 9 is_stmt 1
  30:test/../h/syscall_cpp.hpp ****     }
 635              		.loc 1 30 16 is_stmt 0
 636 0034 03398500 		ld	s2,8(a0)
  30:test/../h/syscall_cpp.hpp ****     }
 637              		.loc 1 30 24
 638 0038 63000902 		beqz	s2,.L32
 639              	.LVL53:
 640              	.LBB147:
 641              	.LBB148:
  17:test/../h/PCB.hpp **** 
 642              		.loc 3 17 14 is_stmt 1
  17:test/../h/PCB.hpp **** 
 643              		.loc 3 17 23 is_stmt 0
 644 003c 03358901 		ld	a0,24(s2)
 645              	.LVL54:
  17:test/../h/PCB.hpp **** 
 646              		.loc 3 17 28
 647 0040 63060500 		beqz	a0,.L33
  17:test/../h/PCB.hpp **** 
 648              		.loc 3 17 23
 649 0044 97000000 		call	_ZdaPv@plt
 649      E7800000 
 650              	.LVL55:
 651              	.L33:
 652              	.LBE148:
 653              	.LBE147:
  30:test/../h/syscall_cpp.hpp ****     }
 654              		.loc 1 30 16
 655 004c 13050900 		mv	a0,s2
 656 0050 97000000 		call	_ZdlPv@plt
 656      E7800000 
 657              	.LVL56:
 658              	.L32:
 659              	.LBE144:
 660              	.LBE143:
  31:test/../h/syscall_cpp.hpp **** 
 661              		.loc 1 31 5
 662 0058 13850400 		mv	a0,s1
 663              	.LEHB0:
 664 005c 97000000 		call	_ZdlPv@plt
 664      E7800000 
 665              	.LVL57:
 666              	.LEHE0:
 667 0064 83308101 		ld	ra,24(sp)
 668              		.cfi_restore 1
 669 0068 03340101 		ld	s0,16(sp)
 670              		.cfi_restore 8
 671              		.cfi_def_cfa 2, 32
 672 006c 83348100 		ld	s1,8(sp)
 673              		.cfi_restore 9
 674              	.LVL58:
 675 0070 03390100 		ld	s2,0(sp)
 676              		.cfi_restore 18
 677 0074 13010102 		addi	sp,sp,32
 678              		.cfi_def_cfa_offset 0
GAS LISTING /tmp/cc6ZYyze.s 			page 17


 679 0078 67800000 		jr	ra
 680              		.cfi_endproc
 681              	.LFE31:
 682              		.section	.gcc_except_table._ZN6ThreadD0Ev,"aG",@progbits,_ZN6ThreadD5Ev,comdat
 683              	.LLSDA31:
 684 0000 FF       		.byte	0xff
 685 0001 FF       		.byte	0xff
 686 0002 03       		.byte	0x3
 687 0003 0D       		.byte	0xd
 688 0004 00000000 		.4byte	.LEHB0-.LFB31
 689 0008 00000000 		.4byte	.LEHE0-.LEHB0
 690 000c 00000000 		.4byte	0
 691 0010 00       		.byte	0
 692              		.section	.text._ZN6ThreadD0Ev,"axG",@progbits,_ZN6ThreadD5Ev,comdat
 694              		.section	.text._ZN7WorkerBD0Ev,"axG",@progbits,_ZN7WorkerBD5Ev,comdat
 695              		.align	2
 696              		.weak	_ZN7WorkerBD0Ev
 698              	_ZN7WorkerBD0Ev:
 699              	.LFB81:
  28:test/Threads_CPP_API_test.cpp ****     void workerBodyB(void *arg);
 700              		.loc 2 28 7 is_stmt 1
 701              		.cfi_startproc
 702              		.cfi_personality 0x9b,DW.ref.__gxx_personality_v0
 703              		.cfi_lsda 0x1b,.LLSDA81
 704              	.LVL59:
 705 0000 130101FE 		addi	sp,sp,-32
 706              		.cfi_def_cfa_offset 32
 707 0004 233C1100 		sd	ra,24(sp)
 708 0008 23388100 		sd	s0,16(sp)
 709 000c 23349100 		sd	s1,8(sp)
 710 0010 23302101 		sd	s2,0(sp)
 711              		.cfi_offset 1, -8
 712              		.cfi_offset 8, -16
 713              		.cfi_offset 9, -24
 714              		.cfi_offset 18, -32
 715 0014 13040102 		addi	s0,sp,32
 716              		.cfi_def_cfa 8, 0
 717 0018 93040500 		mv	s1,a0
 718              	.LVL60:
 719              	.LBB158:
 720              	.LBB159:
 721              	.LBB160:
 722              	.LBB161:
  28:test/../h/syscall_cpp.hpp ****         myHandle->setState(PCB::FINISHED);
 723              		.loc 1 28 23 is_stmt 0
 724 001c 97070000 		lla	a5,_ZTV6Thread+16
 724      93870700 
 725 0024 2330F500 		sd	a5,0(a0)
  29:test/../h/syscall_cpp.hpp ****         delete myHandle;
 726              		.loc 1 29 9 is_stmt 1
 727 0028 83378500 		ld	a5,8(a0)
 728              	.LVL61:
 729              	.LBB162:
 730              	.LBB163:
 731              		.loc 3 45 37
 732              		.loc 3 45 43 is_stmt 0
 733 002c 13075000 		li	a4,5
GAS LISTING /tmp/cc6ZYyze.s 			page 18


 734 0030 23A8E702 		sw	a4,48(a5)
 735              	.LVL62:
 736              	.LBE163:
 737              	.LBE162:
  30:test/../h/syscall_cpp.hpp ****     }
 738              		.loc 1 30 9 is_stmt 1
  30:test/../h/syscall_cpp.hpp ****     }
 739              		.loc 1 30 16 is_stmt 0
 740 0034 03398500 		ld	s2,8(a0)
  30:test/../h/syscall_cpp.hpp ****     }
 741              		.loc 1 30 24
 742 0038 63000902 		beqz	s2,.L36
 743              	.LVL63:
 744              	.LBB164:
 745              	.LBB165:
  17:test/../h/PCB.hpp **** 
 746              		.loc 3 17 14 is_stmt 1
  17:test/../h/PCB.hpp **** 
 747              		.loc 3 17 23 is_stmt 0
 748 003c 03358901 		ld	a0,24(s2)
 749              	.LVL64:
  17:test/../h/PCB.hpp **** 
 750              		.loc 3 17 28
 751 0040 63060500 		beqz	a0,.L37
  17:test/../h/PCB.hpp **** 
 752              		.loc 3 17 23
 753 0044 97000000 		call	_ZdaPv@plt
 753      E7800000 
 754              	.LVL65:
 755              	.L37:
 756              	.LBE165:
 757              	.LBE164:
  30:test/../h/syscall_cpp.hpp ****     }
 758              		.loc 1 30 16
 759 004c 13050900 		mv	a0,s2
 760 0050 97000000 		call	_ZdlPv@plt
 760      E7800000 
 761              	.LVL66:
 762              	.L36:
 763              	.LBE161:
 764              	.LBE160:
 765              	.LBE159:
 766              	.LBE158:
  28:test/Threads_CPP_API_test.cpp ****     void workerBodyB(void *arg);
 767              		.loc 2 28 7
 768 0058 13850400 		mv	a0,s1
 769              	.LEHB1:
 770 005c 97000000 		call	_ZdlPv@plt
 770      E7800000 
 771              	.LVL67:
 772              	.LEHE1:
 773 0064 83308101 		ld	ra,24(sp)
 774              		.cfi_restore 1
 775 0068 03340101 		ld	s0,16(sp)
 776              		.cfi_restore 8
 777              		.cfi_def_cfa 2, 32
 778 006c 83348100 		ld	s1,8(sp)
GAS LISTING /tmp/cc6ZYyze.s 			page 19


 779              		.cfi_restore 9
 780              	.LVL68:
 781 0070 03390100 		ld	s2,0(sp)
 782              		.cfi_restore 18
 783 0074 13010102 		addi	sp,sp,32
 784              		.cfi_def_cfa_offset 0
 785 0078 67800000 		jr	ra
 786              		.cfi_endproc
 787              	.LFE81:
 788              		.section	.gcc_except_table._ZN7WorkerBD0Ev,"aG",@progbits,_ZN7WorkerBD5Ev,comdat
 789              	.LLSDA81:
 790 0000 FF       		.byte	0xff
 791 0001 FF       		.byte	0xff
 792 0002 03       		.byte	0x3
 793 0003 0D       		.byte	0xd
 794 0004 00000000 		.4byte	.LEHB1-.LFB81
 795 0008 00000000 		.4byte	.LEHE1-.LEHB1
 796 000c 00000000 		.4byte	0
 797 0010 00       		.byte	0
 798              		.section	.text._ZN7WorkerBD0Ev,"axG",@progbits,_ZN7WorkerBD5Ev,comdat
 800              		.section	.text._ZN7WorkerAD0Ev,"axG",@progbits,_ZN7WorkerAD5Ev,comdat
 801              		.align	2
 802              		.weak	_ZN7WorkerAD0Ev
 804              	_ZN7WorkerAD0Ev:
 805              	.LFB85:
  16:test/Threads_CPP_API_test.cpp ****     void workerBodyA(void *arg);
 806              		.loc 2 16 7 is_stmt 1
 807              		.cfi_startproc
 808              		.cfi_personality 0x9b,DW.ref.__gxx_personality_v0
 809              		.cfi_lsda 0x1b,.LLSDA85
 810              	.LVL69:
 811 0000 130101FE 		addi	sp,sp,-32
 812              		.cfi_def_cfa_offset 32
 813 0004 233C1100 		sd	ra,24(sp)
 814 0008 23388100 		sd	s0,16(sp)
 815 000c 23349100 		sd	s1,8(sp)
 816 0010 23302101 		sd	s2,0(sp)
 817              		.cfi_offset 1, -8
 818              		.cfi_offset 8, -16
 819              		.cfi_offset 9, -24
 820              		.cfi_offset 18, -32
 821 0014 13040102 		addi	s0,sp,32
 822              		.cfi_def_cfa 8, 0
 823 0018 93040500 		mv	s1,a0
 824              	.LVL70:
 825              	.LBB175:
 826              	.LBB176:
 827              	.LBB177:
 828              	.LBB178:
  28:test/../h/syscall_cpp.hpp ****         myHandle->setState(PCB::FINISHED);
 829              		.loc 1 28 23 is_stmt 0
 830 001c 97070000 		lla	a5,_ZTV6Thread+16
 830      93870700 
 831 0024 2330F500 		sd	a5,0(a0)
  29:test/../h/syscall_cpp.hpp ****         delete myHandle;
 832              		.loc 1 29 9 is_stmt 1
 833 0028 83378500 		ld	a5,8(a0)
GAS LISTING /tmp/cc6ZYyze.s 			page 20


 834              	.LVL71:
 835              	.LBB179:
 836              	.LBB180:
 837              		.loc 3 45 37
 838              		.loc 3 45 43 is_stmt 0
 839 002c 13075000 		li	a4,5
 840 0030 23A8E702 		sw	a4,48(a5)
 841              	.LVL72:
 842              	.LBE180:
 843              	.LBE179:
  30:test/../h/syscall_cpp.hpp ****     }
 844              		.loc 1 30 9 is_stmt 1
  30:test/../h/syscall_cpp.hpp ****     }
 845              		.loc 1 30 16 is_stmt 0
 846 0034 03398500 		ld	s2,8(a0)
  30:test/../h/syscall_cpp.hpp ****     }
 847              		.loc 1 30 24
 848 0038 63000902 		beqz	s2,.L40
 849              	.LVL73:
 850              	.LBB181:
 851              	.LBB182:
  17:test/../h/PCB.hpp **** 
 852              		.loc 3 17 14 is_stmt 1
  17:test/../h/PCB.hpp **** 
 853              		.loc 3 17 23 is_stmt 0
 854 003c 03358901 		ld	a0,24(s2)
 855              	.LVL74:
  17:test/../h/PCB.hpp **** 
 856              		.loc 3 17 28
 857 0040 63060500 		beqz	a0,.L41
  17:test/../h/PCB.hpp **** 
 858              		.loc 3 17 23
 859 0044 97000000 		call	_ZdaPv@plt
 859      E7800000 
 860              	.LVL75:
 861              	.L41:
 862              	.LBE182:
 863              	.LBE181:
  30:test/../h/syscall_cpp.hpp ****     }
 864              		.loc 1 30 16
 865 004c 13050900 		mv	a0,s2
 866 0050 97000000 		call	_ZdlPv@plt
 866      E7800000 
 867              	.LVL76:
 868              	.L40:
 869              	.LBE178:
 870              	.LBE177:
 871              	.LBE176:
 872              	.LBE175:
  16:test/Threads_CPP_API_test.cpp ****     void workerBodyA(void *arg);
 873              		.loc 2 16 7
 874 0058 13850400 		mv	a0,s1
 875              	.LEHB2:
 876 005c 97000000 		call	_ZdlPv@plt
 876      E7800000 
 877              	.LVL77:
 878              	.LEHE2:
GAS LISTING /tmp/cc6ZYyze.s 			page 21


 879 0064 83308101 		ld	ra,24(sp)
 880              		.cfi_restore 1
 881 0068 03340101 		ld	s0,16(sp)
 882              		.cfi_restore 8
 883              		.cfi_def_cfa 2, 32
 884 006c 83348100 		ld	s1,8(sp)
 885              		.cfi_restore 9
 886              	.LVL78:
 887 0070 03390100 		ld	s2,0(sp)
 888              		.cfi_restore 18
 889 0074 13010102 		addi	sp,sp,32
 890              		.cfi_def_cfa_offset 0
 891 0078 67800000 		jr	ra
 892              		.cfi_endproc
 893              	.LFE85:
 894              		.section	.gcc_except_table._ZN7WorkerAD0Ev,"aG",@progbits,_ZN7WorkerAD5Ev,comdat
 895              	.LLSDA85:
 896 0000 FF       		.byte	0xff
 897 0001 FF       		.byte	0xff
 898 0002 03       		.byte	0x3
 899 0003 0D       		.byte	0xd
 900 0004 00000000 		.4byte	.LEHB2-.LFB85
 901 0008 00000000 		.4byte	.LEHE2-.LEHB2
 902 000c 00000000 		.4byte	0
 903 0010 00       		.byte	0
 904              		.section	.text._ZN7WorkerAD0Ev,"axG",@progbits,_ZN7WorkerAD5Ev,comdat
 906              		.section	.text._ZN7WorkerDD0Ev,"axG",@progbits,_ZN7WorkerDD5Ev,comdat
 907              		.align	2
 908              		.weak	_ZN7WorkerDD0Ev
 910              	_ZN7WorkerDD0Ev:
 911              	.LFB73:
 912              		.loc 2 52 7 is_stmt 1
 913              		.cfi_startproc
 914              		.cfi_personality 0x9b,DW.ref.__gxx_personality_v0
 915              		.cfi_lsda 0x1b,.LLSDA73
 916              	.LVL79:
 917 0000 130101FE 		addi	sp,sp,-32
 918              		.cfi_def_cfa_offset 32
 919 0004 233C1100 		sd	ra,24(sp)
 920 0008 23388100 		sd	s0,16(sp)
 921 000c 23349100 		sd	s1,8(sp)
 922 0010 23302101 		sd	s2,0(sp)
 923              		.cfi_offset 1, -8
 924              		.cfi_offset 8, -16
 925              		.cfi_offset 9, -24
 926              		.cfi_offset 18, -32
 927 0014 13040102 		addi	s0,sp,32
 928              		.cfi_def_cfa 8, 0
 929 0018 93040500 		mv	s1,a0
 930              	.LVL80:
 931              	.LBB192:
 932              	.LBB193:
 933              	.LBB194:
 934              	.LBB195:
  28:test/../h/syscall_cpp.hpp ****         myHandle->setState(PCB::FINISHED);
 935              		.loc 1 28 23 is_stmt 0
 936 001c 97070000 		lla	a5,_ZTV6Thread+16
GAS LISTING /tmp/cc6ZYyze.s 			page 22


 936      93870700 
 937 0024 2330F500 		sd	a5,0(a0)
  29:test/../h/syscall_cpp.hpp ****         delete myHandle;
 938              		.loc 1 29 9 is_stmt 1
 939 0028 83378500 		ld	a5,8(a0)
 940              	.LVL81:
 941              	.LBB196:
 942              	.LBB197:
 943              		.loc 3 45 37
 944              		.loc 3 45 43 is_stmt 0
 945 002c 13075000 		li	a4,5
 946 0030 23A8E702 		sw	a4,48(a5)
 947              	.LVL82:
 948              	.LBE197:
 949              	.LBE196:
  30:test/../h/syscall_cpp.hpp ****     }
 950              		.loc 1 30 9 is_stmt 1
  30:test/../h/syscall_cpp.hpp ****     }
 951              		.loc 1 30 16 is_stmt 0
 952 0034 03398500 		ld	s2,8(a0)
  30:test/../h/syscall_cpp.hpp ****     }
 953              		.loc 1 30 24
 954 0038 63000902 		beqz	s2,.L44
 955              	.LVL83:
 956              	.LBB198:
 957              	.LBB199:
  17:test/../h/PCB.hpp **** 
 958              		.loc 3 17 14 is_stmt 1
  17:test/../h/PCB.hpp **** 
 959              		.loc 3 17 23 is_stmt 0
 960 003c 03358901 		ld	a0,24(s2)
 961              	.LVL84:
  17:test/../h/PCB.hpp **** 
 962              		.loc 3 17 28
 963 0040 63060500 		beqz	a0,.L45
  17:test/../h/PCB.hpp **** 
 964              		.loc 3 17 23
 965 0044 97000000 		call	_ZdaPv@plt
 965      E7800000 
 966              	.LVL85:
 967              	.L45:
 968              	.LBE199:
 969              	.LBE198:
  30:test/../h/syscall_cpp.hpp ****     }
 970              		.loc 1 30 16
 971 004c 13050900 		mv	a0,s2
 972 0050 97000000 		call	_ZdlPv@plt
 972      E7800000 
 973              	.LVL86:
 974              	.L44:
 975              	.LBE195:
 976              	.LBE194:
 977              	.LBE193:
 978              	.LBE192:
 979              		.loc 2 52 7
 980 0058 13850400 		mv	a0,s1
 981              	.LEHB3:
GAS LISTING /tmp/cc6ZYyze.s 			page 23


 982 005c 97000000 		call	_ZdlPv@plt
 982      E7800000 
 983              	.LVL87:
 984              	.LEHE3:
 985 0064 83308101 		ld	ra,24(sp)
 986              		.cfi_restore 1
 987 0068 03340101 		ld	s0,16(sp)
 988              		.cfi_restore 8
 989              		.cfi_def_cfa 2, 32
 990 006c 83348100 		ld	s1,8(sp)
 991              		.cfi_restore 9
 992              	.LVL88:
 993 0070 03390100 		ld	s2,0(sp)
 994              		.cfi_restore 18
 995 0074 13010102 		addi	sp,sp,32
 996              		.cfi_def_cfa_offset 0
 997 0078 67800000 		jr	ra
 998              		.cfi_endproc
 999              	.LFE73:
 1000              		.section	.gcc_except_table._ZN7WorkerDD0Ev,"aG",@progbits,_ZN7WorkerDD5Ev,comdat
 1001              	.LLSDA73:
 1002 0000 FF       		.byte	0xff
 1003 0001 FF       		.byte	0xff
 1004 0002 03       		.byte	0x3
 1005 0003 0D       		.byte	0xd
 1006 0004 00000000 		.4byte	.LEHB3-.LFB73
 1007 0008 00000000 		.4byte	.LEHE3-.LEHB3
 1008 000c 00000000 		.4byte	0
 1009 0010 00       		.byte	0
 1010              		.section	.text._ZN7WorkerDD0Ev,"axG",@progbits,_ZN7WorkerDD5Ev,comdat
 1012              		.section	.text._ZN7WorkerCD0Ev,"axG",@progbits,_ZN7WorkerCD5Ev,comdat
 1013              		.align	2
 1014              		.weak	_ZN7WorkerCD0Ev
 1016              	_ZN7WorkerCD0Ev:
 1017              	.LFB77:
  40:test/Threads_CPP_API_test.cpp ****     void workerBodyC(void *arg);
 1018              		.loc 2 40 7 is_stmt 1
 1019              		.cfi_startproc
 1020              		.cfi_personality 0x9b,DW.ref.__gxx_personality_v0
 1021              		.cfi_lsda 0x1b,.LLSDA77
 1022              	.LVL89:
 1023 0000 130101FE 		addi	sp,sp,-32
 1024              		.cfi_def_cfa_offset 32
 1025 0004 233C1100 		sd	ra,24(sp)
 1026 0008 23388100 		sd	s0,16(sp)
 1027 000c 23349100 		sd	s1,8(sp)
 1028 0010 23302101 		sd	s2,0(sp)
 1029              		.cfi_offset 1, -8
 1030              		.cfi_offset 8, -16
 1031              		.cfi_offset 9, -24
 1032              		.cfi_offset 18, -32
 1033 0014 13040102 		addi	s0,sp,32
 1034              		.cfi_def_cfa 8, 0
 1035 0018 93040500 		mv	s1,a0
 1036              	.LVL90:
 1037              	.LBB209:
 1038              	.LBB210:
GAS LISTING /tmp/cc6ZYyze.s 			page 24


 1039              	.LBB211:
 1040              	.LBB212:
  28:test/../h/syscall_cpp.hpp ****         myHandle->setState(PCB::FINISHED);
 1041              		.loc 1 28 23 is_stmt 0
 1042 001c 97070000 		lla	a5,_ZTV6Thread+16
 1042      93870700 
 1043 0024 2330F500 		sd	a5,0(a0)
  29:test/../h/syscall_cpp.hpp ****         delete myHandle;
 1044              		.loc 1 29 9 is_stmt 1
 1045 0028 83378500 		ld	a5,8(a0)
 1046              	.LVL91:
 1047              	.LBB213:
 1048              	.LBB214:
 1049              		.loc 3 45 37
 1050              		.loc 3 45 43 is_stmt 0
 1051 002c 13075000 		li	a4,5
 1052 0030 23A8E702 		sw	a4,48(a5)
 1053              	.LVL92:
 1054              	.LBE214:
 1055              	.LBE213:
  30:test/../h/syscall_cpp.hpp ****     }
 1056              		.loc 1 30 9 is_stmt 1
  30:test/../h/syscall_cpp.hpp ****     }
 1057              		.loc 1 30 16 is_stmt 0
 1058 0034 03398500 		ld	s2,8(a0)
  30:test/../h/syscall_cpp.hpp ****     }
 1059              		.loc 1 30 24
 1060 0038 63000902 		beqz	s2,.L48
 1061              	.LVL93:
 1062              	.LBB215:
 1063              	.LBB216:
  17:test/../h/PCB.hpp **** 
 1064              		.loc 3 17 14 is_stmt 1
  17:test/../h/PCB.hpp **** 
 1065              		.loc 3 17 23 is_stmt 0
 1066 003c 03358901 		ld	a0,24(s2)
 1067              	.LVL94:
  17:test/../h/PCB.hpp **** 
 1068              		.loc 3 17 28
 1069 0040 63060500 		beqz	a0,.L49
  17:test/../h/PCB.hpp **** 
 1070              		.loc 3 17 23
 1071 0044 97000000 		call	_ZdaPv@plt
 1071      E7800000 
 1072              	.LVL95:
 1073              	.L49:
 1074              	.LBE216:
 1075              	.LBE215:
  30:test/../h/syscall_cpp.hpp ****     }
 1076              		.loc 1 30 16
 1077 004c 13050900 		mv	a0,s2
 1078 0050 97000000 		call	_ZdlPv@plt
 1078      E7800000 
 1079              	.LVL96:
 1080              	.L48:
 1081              	.LBE212:
 1082              	.LBE211:
GAS LISTING /tmp/cc6ZYyze.s 			page 25


 1083              	.LBE210:
 1084              	.LBE209:
  40:test/Threads_CPP_API_test.cpp ****     void workerBodyC(void *arg);
 1085              		.loc 2 40 7
 1086 0058 13850400 		mv	a0,s1
 1087              	.LEHB4:
 1088 005c 97000000 		call	_ZdlPv@plt
 1088      E7800000 
 1089              	.LVL97:
 1090              	.LEHE4:
 1091 0064 83308101 		ld	ra,24(sp)
 1092              		.cfi_restore 1
 1093 0068 03340101 		ld	s0,16(sp)
 1094              		.cfi_restore 8
 1095              		.cfi_def_cfa 2, 32
 1096 006c 83348100 		ld	s1,8(sp)
 1097              		.cfi_restore 9
 1098              	.LVL98:
 1099 0070 03390100 		ld	s2,0(sp)
 1100              		.cfi_restore 18
 1101 0074 13010102 		addi	sp,sp,32
 1102              		.cfi_def_cfa_offset 0
 1103 0078 67800000 		jr	ra
 1104              		.cfi_endproc
 1105              	.LFE77:
 1106              		.section	.gcc_except_table._ZN7WorkerCD0Ev,"aG",@progbits,_ZN7WorkerCD5Ev,comdat
 1107              	.LLSDA77:
 1108 0000 FF       		.byte	0xff
 1109 0001 FF       		.byte	0xff
 1110 0002 03       		.byte	0x3
 1111 0003 0D       		.byte	0xd
 1112 0004 00000000 		.4byte	.LEHB4-.LFB77
 1113 0008 00000000 		.4byte	.LEHE4-.LEHB4
 1114 000c 00000000 		.4byte	0
 1115 0010 00       		.byte	0
 1116              		.section	.text._ZN7WorkerCD0Ev,"axG",@progbits,_ZN7WorkerCD5Ev,comdat
 1118              		.section	.rodata.str1.8,"aMS",@progbits,1
 1119              		.align	3
 1120              	.LC0:
 1121 0000 413A2069 		.string	"A: i="
 1121      3D00
 1122 0006 0000     		.align	3
 1123              	.LC1:
 1124 0008 0A00     		.string	"\n"
 1125 000a 00000000 		.align	3
 1125      0000
 1126              	.LC2:
 1127 0010 41206669 		.string	"A finished!\n"
 1127      6E697368 
 1127      6564210A 
 1127      00
 1128              		.text
 1129              		.align	2
 1130              		.globl	_ZN7WorkerA11workerBodyAEPv
 1132              	_ZN7WorkerA11workerBodyAEPv:
 1133              	.LFB65:
  53:test/Threads_CPP_API_test.cpp ****     void workerBodyD(void *arg);
GAS LISTING /tmp/cc6ZYyze.s 			page 26


  54:test/Threads_CPP_API_test.cpp **** 
  55:test/Threads_CPP_API_test.cpp **** public:
  56:test/Threads_CPP_API_test.cpp ****     WorkerD(): Thread() {
  57:test/Threads_CPP_API_test.cpp ****     }
  58:test/Threads_CPP_API_test.cpp **** 
  59:test/Threads_CPP_API_test.cpp ****     void run() override {
  60:test/Threads_CPP_API_test.cpp ****         workerBodyD(nullptr);
  61:test/Threads_CPP_API_test.cpp ****     }
  62:test/Threads_CPP_API_test.cpp **** };
  63:test/Threads_CPP_API_test.cpp **** 
  64:test/Threads_CPP_API_test.cpp **** void WorkerA::workerBodyA(void *arg) {
 1134              		.loc 2 64 38 is_stmt 1
 1135              		.cfi_startproc
 1136              	.LVL99:
 1137 0074 130101FE 		addi	sp,sp,-32
 1138              		.cfi_def_cfa_offset 32
 1139 0078 233C1100 		sd	ra,24(sp)
 1140 007c 23388100 		sd	s0,16(sp)
 1141 0080 23349100 		sd	s1,8(sp)
 1142 0084 23302101 		sd	s2,0(sp)
 1143              		.cfi_offset 1, -8
 1144              		.cfi_offset 8, -16
 1145              		.cfi_offset 9, -24
 1146              		.cfi_offset 18, -32
 1147 0088 13040102 		addi	s0,sp,32
 1148              		.cfi_def_cfa 8, 0
  65:test/Threads_CPP_API_test.cpp ****     for (uint64 i = 0; i < 10; i++) {
 1149              		.loc 2 65 5
 1150              	.LVL100:
 1151              	.LBB217:
 1152              		.loc 2 65 17 is_stmt 0
 1153 008c 13090000 		li	s2,0
 1154 0090 6F008003 		j	.L57
 1155              	.LVL101:
 1156              	.L54:
 1157              	.LBB218:
 1158              	.LBB219:
 1159              	.LBB220:
  66:test/Threads_CPP_API_test.cpp ****         printString("A: i=");
  67:test/Threads_CPP_API_test.cpp ****         printInt(i);
  68:test/Threads_CPP_API_test.cpp ****         printString("\n");
  69:test/Threads_CPP_API_test.cpp ****         for (uint64 j = 0; j < 10000; j++) {
  70:test/Threads_CPP_API_test.cpp ****             for (uint64 k = 0; k < 30000; k++) {
  71:test/Threads_CPP_API_test.cpp ****             }
  72:test/Threads_CPP_API_test.cpp ****             thread_dispatch();
 1160              		.loc 2 72 13 is_stmt 1 discriminator 2
 1161              		.loc 2 72 28 is_stmt 0 discriminator 2
 1162 0094 97000000 		call	_Z15thread_dispatchv@plt
 1162      E7800000 
 1163              	.LVL102:
 1164              	.LBE220:
  69:test/Threads_CPP_API_test.cpp ****             for (uint64 k = 0; k < 30000; k++) {
 1165              		.loc 2 69 9 is_stmt 1 discriminator 2
 1166 009c 93841400 		addi	s1,s1,1
 1167              	.LVL103:
 1168              	.L56:
  69:test/Threads_CPP_API_test.cpp ****             for (uint64 k = 0; k < 30000; k++) {
GAS LISTING /tmp/cc6ZYyze.s 			page 27


 1169              		.loc 2 69 30 discriminator 1
 1170 00a0 B7270000 		li	a5,8192
 1171 00a4 9387F770 		addi	a5,a5,1807
 1172 00a8 63EE9700 		bgtu	s1,a5,.L53
 1173              	.LBB222:
 1174              	.LBB221:
  70:test/Threads_CPP_API_test.cpp ****             }
 1175              		.loc 2 70 25 is_stmt 0
 1176 00ac 13070000 		li	a4,0
 1177              	.L55:
 1178              	.LVL104:
  70:test/Threads_CPP_API_test.cpp ****             }
 1179              		.loc 2 70 34 is_stmt 1 discriminator 3
 1180 00b0 B7770000 		li	a5,28672
 1181 00b4 9387F752 		addi	a5,a5,1327
 1182 00b8 E3EEE7FC 		bgtu	a4,a5,.L54
  70:test/Threads_CPP_API_test.cpp ****             }
 1183              		.loc 2 70 13 discriminator 2
 1184 00bc 13071700 		addi	a4,a4,1
 1185              	.LVL105:
 1186 00c0 6FF01FFF 		j	.L55
 1187              	.LVL106:
 1188              	.L53:
 1189              	.LBE221:
 1190              	.LBE222:
 1191              	.LBE219:
 1192              	.LBE218:
  65:test/Threads_CPP_API_test.cpp ****         printString("A: i=");
 1193              		.loc 2 65 5 discriminator 2
 1194 00c4 13091900 		addi	s2,s2,1
 1195              	.LVL107:
 1196              	.L57:
  65:test/Threads_CPP_API_test.cpp ****         printString("A: i=");
 1197              		.loc 2 65 26 discriminator 1
 1198 00c8 93079000 		li	a5,9
 1199 00cc 63E02705 		bgtu	s2,a5,.L52
 1200              	.LBB224:
  66:test/Threads_CPP_API_test.cpp ****         printInt(i);
 1201              		.loc 2 66 9
  66:test/Threads_CPP_API_test.cpp ****         printInt(i);
 1202              		.loc 2 66 20 is_stmt 0
 1203 00d0 17050000 		lla	a0,.LC0
 1203      13050500 
 1204 00d8 97000000 		call	_Z11printStringPKc@plt
 1204      E7800000 
 1205              	.LVL108:
  67:test/Threads_CPP_API_test.cpp ****         printString("\n");
 1206              		.loc 2 67 9 is_stmt 1
  67:test/Threads_CPP_API_test.cpp ****         printString("\n");
 1207              		.loc 2 67 17 is_stmt 0
 1208 00e0 13060000 		li	a2,0
 1209 00e4 9305A000 		li	a1,10
 1210 00e8 1B050900 		sext.w	a0,s2
 1211 00ec 97000000 		call	_Z8printIntiii@plt
 1211      E7800000 
 1212              	.LVL109:
  68:test/Threads_CPP_API_test.cpp ****         for (uint64 j = 0; j < 10000; j++) {
GAS LISTING /tmp/cc6ZYyze.s 			page 28


 1213              		.loc 2 68 9 is_stmt 1
  68:test/Threads_CPP_API_test.cpp ****         for (uint64 j = 0; j < 10000; j++) {
 1214              		.loc 2 68 20 is_stmt 0
 1215 00f4 17050000 		lla	a0,.LC1
 1215      13050500 
 1216 00fc 97000000 		call	_Z11printStringPKc@plt
 1216      E7800000 
 1217              	.LVL110:
  69:test/Threads_CPP_API_test.cpp ****             for (uint64 k = 0; k < 30000; k++) {
 1218              		.loc 2 69 9 is_stmt 1
 1219              	.LBB223:
  69:test/Threads_CPP_API_test.cpp ****             for (uint64 k = 0; k < 30000; k++) {
 1220              		.loc 2 69 21 is_stmt 0
 1221 0104 93040000 		li	s1,0
 1222 0108 6FF09FF9 		j	.L56
 1223              	.LVL111:
 1224              	.L52:
 1225              	.LBE223:
 1226              	.LBE224:
 1227              	.LBE217:
  73:test/Threads_CPP_API_test.cpp ****         }
  74:test/Threads_CPP_API_test.cpp ****     }
  75:test/Threads_CPP_API_test.cpp ****     printString("A finished!\n");
 1228              		.loc 2 75 5 is_stmt 1
 1229              		.loc 2 75 16 is_stmt 0
 1230 010c 17050000 		lla	a0,.LC2
 1230      13050500 
 1231 0114 97000000 		call	_Z11printStringPKc@plt
 1231      E7800000 
 1232              	.LVL112:
  76:test/Threads_CPP_API_test.cpp ****     finishedA = true;
 1233              		.loc 2 76 5 is_stmt 1
 1234              		.loc 2 76 15 is_stmt 0
 1235 011c 93071000 		li	a5,1
 1236 0120 17070000 		sb	a5,.LANCHOR0,a4
 1236      2300F700 
  77:test/Threads_CPP_API_test.cpp **** }
 1237              		.loc 2 77 1
 1238 0128 83308101 		ld	ra,24(sp)
 1239              		.cfi_restore 1
 1240 012c 03340101 		ld	s0,16(sp)
 1241              		.cfi_restore 8
 1242              		.cfi_def_cfa 2, 32
 1243 0130 83348100 		ld	s1,8(sp)
 1244              		.cfi_restore 9
 1245 0134 03390100 		ld	s2,0(sp)
 1246              		.cfi_restore 18
 1247              	.LVL113:
 1248 0138 13010102 		addi	sp,sp,32
 1249              		.cfi_def_cfa_offset 0
 1250 013c 67800000 		jr	ra
 1251              		.cfi_endproc
 1252              	.LFE65:
 1254              		.section	.text._ZN7WorkerA3runEv,"axG",@progbits,_ZN7WorkerA3runEv,comdat
 1255              		.align	2
 1256              		.weak	_ZN7WorkerA3runEv
 1258              	_ZN7WorkerA3runEv:
GAS LISTING /tmp/cc6ZYyze.s 			page 29


 1259              	.LFB52:
  23:test/Threads_CPP_API_test.cpp ****         workerBodyA(nullptr);
 1260              		.loc 2 23 10 is_stmt 1
 1261              		.cfi_startproc
 1262              	.LVL114:
 1263 0000 130101FF 		addi	sp,sp,-16
 1264              		.cfi_def_cfa_offset 16
 1265 0004 23341100 		sd	ra,8(sp)
 1266 0008 23308100 		sd	s0,0(sp)
 1267              		.cfi_offset 1, -8
 1268              		.cfi_offset 8, -16
 1269 000c 13040101 		addi	s0,sp,16
 1270              		.cfi_def_cfa 8, 0
  24:test/Threads_CPP_API_test.cpp ****     }
 1271              		.loc 2 24 9
  24:test/Threads_CPP_API_test.cpp ****     }
 1272              		.loc 2 24 20 is_stmt 0
 1273 0010 93050000 		li	a1,0
 1274 0014 97000000 		call	_ZN7WorkerA11workerBodyAEPv
 1274      E7800000 
 1275              	.LVL115:
  25:test/Threads_CPP_API_test.cpp **** };
 1276              		.loc 2 25 5
 1277 001c 83308100 		ld	ra,8(sp)
 1278              		.cfi_restore 1
 1279 0020 03340100 		ld	s0,0(sp)
 1280              		.cfi_restore 8
 1281              		.cfi_def_cfa 2, 16
 1282 0024 13010101 		addi	sp,sp,16
 1283              		.cfi_def_cfa_offset 0
 1284 0028 67800000 		jr	ra
 1285              		.cfi_endproc
 1286              	.LFE52:
 1288              		.section	.rodata.str1.8
 1289 001d 000000   		.align	3
 1290              	.LC3:
 1291 0020 423A2069 		.string	"B: i="
 1291      3D00
 1292 0026 0000     		.align	3
 1293              	.LC4:
 1294 0028 42206669 		.string	"B finished!\n"
 1294      6E697368 
 1294      6564210A 
 1294      00
 1295              		.text
 1296              		.align	2
 1297              		.globl	_ZN7WorkerB11workerBodyBEPv
 1299              	_ZN7WorkerB11workerBodyBEPv:
 1300              	.LFB66:
  78:test/Threads_CPP_API_test.cpp **** 
  79:test/Threads_CPP_API_test.cpp **** void WorkerB::workerBodyB(void *arg) {
 1301              		.loc 2 79 38 is_stmt 1
 1302              		.cfi_startproc
 1303              	.LVL116:
 1304 0140 130101FE 		addi	sp,sp,-32
 1305              		.cfi_def_cfa_offset 32
 1306 0144 233C1100 		sd	ra,24(sp)
GAS LISTING /tmp/cc6ZYyze.s 			page 30


 1307 0148 23388100 		sd	s0,16(sp)
 1308 014c 23349100 		sd	s1,8(sp)
 1309 0150 23302101 		sd	s2,0(sp)
 1310              		.cfi_offset 1, -8
 1311              		.cfi_offset 8, -16
 1312              		.cfi_offset 9, -24
 1313              		.cfi_offset 18, -32
 1314 0154 13040102 		addi	s0,sp,32
 1315              		.cfi_def_cfa 8, 0
  80:test/Threads_CPP_API_test.cpp ****     for (uint64 i = 0; i < 16; i++) {
 1316              		.loc 2 80 5
 1317              	.LVL117:
 1318              	.LBB225:
 1319              		.loc 2 80 17 is_stmt 0
 1320 0158 13090000 		li	s2,0
 1321 015c 6F008003 		j	.L67
 1322              	.LVL118:
 1323              	.L64:
 1324              	.LBB226:
 1325              	.LBB227:
 1326              	.LBB228:
  81:test/Threads_CPP_API_test.cpp ****         printString("B: i=");
  82:test/Threads_CPP_API_test.cpp ****         printInt(i);
  83:test/Threads_CPP_API_test.cpp ****         printString("\n");
  84:test/Threads_CPP_API_test.cpp ****         for (uint64 j = 0; j < 10000; j++) {
  85:test/Threads_CPP_API_test.cpp ****             for (uint64 k = 0; k < 30000; k++) {
  86:test/Threads_CPP_API_test.cpp ****             }
  87:test/Threads_CPP_API_test.cpp ****             thread_dispatch();
 1327              		.loc 2 87 13 is_stmt 1 discriminator 2
 1328              		.loc 2 87 28 is_stmt 0 discriminator 2
 1329 0160 97000000 		call	_Z15thread_dispatchv@plt
 1329      E7800000 
 1330              	.LVL119:
 1331              	.LBE228:
  84:test/Threads_CPP_API_test.cpp ****             for (uint64 k = 0; k < 30000; k++) {
 1332              		.loc 2 84 9 is_stmt 1 discriminator 2
 1333 0168 93841400 		addi	s1,s1,1
 1334              	.LVL120:
 1335              	.L66:
  84:test/Threads_CPP_API_test.cpp ****             for (uint64 k = 0; k < 30000; k++) {
 1336              		.loc 2 84 30 discriminator 1
 1337 016c B7270000 		li	a5,8192
 1338 0170 9387F770 		addi	a5,a5,1807
 1339 0174 63EE9700 		bgtu	s1,a5,.L63
 1340              	.LBB230:
 1341              	.LBB229:
  85:test/Threads_CPP_API_test.cpp ****             }
 1342              		.loc 2 85 25 is_stmt 0
 1343 0178 13070000 		li	a4,0
 1344              	.L65:
 1345              	.LVL121:
  85:test/Threads_CPP_API_test.cpp ****             }
 1346              		.loc 2 85 34 is_stmt 1 discriminator 3
 1347 017c B7770000 		li	a5,28672
 1348 0180 9387F752 		addi	a5,a5,1327
 1349 0184 E3EEE7FC 		bgtu	a4,a5,.L64
  85:test/Threads_CPP_API_test.cpp ****             }
GAS LISTING /tmp/cc6ZYyze.s 			page 31


 1350              		.loc 2 85 13 discriminator 2
 1351 0188 13071700 		addi	a4,a4,1
 1352              	.LVL122:
 1353 018c 6FF01FFF 		j	.L65
 1354              	.LVL123:
 1355              	.L63:
 1356              	.LBE229:
 1357              	.LBE230:
 1358              	.LBE227:
 1359              	.LBE226:
  80:test/Threads_CPP_API_test.cpp ****         printString("B: i=");
 1360              		.loc 2 80 5 discriminator 2
 1361 0190 13091900 		addi	s2,s2,1
 1362              	.LVL124:
 1363              	.L67:
  80:test/Threads_CPP_API_test.cpp ****         printString("B: i=");
 1364              		.loc 2 80 26 discriminator 1
 1365 0194 9307F000 		li	a5,15
 1366 0198 63E02705 		bgtu	s2,a5,.L62
 1367              	.LBB232:
  81:test/Threads_CPP_API_test.cpp ****         printInt(i);
 1368              		.loc 2 81 9
  81:test/Threads_CPP_API_test.cpp ****         printInt(i);
 1369              		.loc 2 81 20 is_stmt 0
 1370 019c 17050000 		lla	a0,.LC3
 1370      13050500 
 1371 01a4 97000000 		call	_Z11printStringPKc@plt
 1371      E7800000 
 1372              	.LVL125:
  82:test/Threads_CPP_API_test.cpp ****         printString("\n");
 1373              		.loc 2 82 9 is_stmt 1
  82:test/Threads_CPP_API_test.cpp ****         printString("\n");
 1374              		.loc 2 82 17 is_stmt 0
 1375 01ac 13060000 		li	a2,0
 1376 01b0 9305A000 		li	a1,10
 1377 01b4 1B050900 		sext.w	a0,s2
 1378 01b8 97000000 		call	_Z8printIntiii@plt
 1378      E7800000 
 1379              	.LVL126:
  83:test/Threads_CPP_API_test.cpp ****         for (uint64 j = 0; j < 10000; j++) {
 1380              		.loc 2 83 9 is_stmt 1
  83:test/Threads_CPP_API_test.cpp ****         for (uint64 j = 0; j < 10000; j++) {
 1381              		.loc 2 83 20 is_stmt 0
 1382 01c0 17050000 		lla	a0,.LC1
 1382      13050500 
 1383 01c8 97000000 		call	_Z11printStringPKc@plt
 1383      E7800000 
 1384              	.LVL127:
  84:test/Threads_CPP_API_test.cpp ****             for (uint64 k = 0; k < 30000; k++) {
 1385              		.loc 2 84 9 is_stmt 1
 1386              	.LBB231:
  84:test/Threads_CPP_API_test.cpp ****             for (uint64 k = 0; k < 30000; k++) {
 1387              		.loc 2 84 21 is_stmt 0
 1388 01d0 93040000 		li	s1,0
 1389 01d4 6FF09FF9 		j	.L66
 1390              	.LVL128:
 1391              	.L62:
GAS LISTING /tmp/cc6ZYyze.s 			page 32


 1392              	.LBE231:
 1393              	.LBE232:
 1394              	.LBE225:
  88:test/Threads_CPP_API_test.cpp ****         }
  89:test/Threads_CPP_API_test.cpp ****     }
  90:test/Threads_CPP_API_test.cpp ****     printString("B finished!\n");
 1395              		.loc 2 90 5 is_stmt 1
 1396              		.loc 2 90 16 is_stmt 0
 1397 01d8 17050000 		lla	a0,.LC4
 1397      13050500 
 1398 01e0 97000000 		call	_Z11printStringPKc@plt
 1398      E7800000 
 1399              	.LVL129:
  91:test/Threads_CPP_API_test.cpp ****     finishedB = true;
 1400              		.loc 2 91 5 is_stmt 1
 1401              		.loc 2 91 15 is_stmt 0
 1402 01e8 93071000 		li	a5,1
 1403 01ec 17070000 		sb	a5,.LANCHOR0+1,a4
 1403      2300F700 
  92:test/Threads_CPP_API_test.cpp ****     thread_dispatch();
 1404              		.loc 2 92 5 is_stmt 1
 1405              		.loc 2 92 20 is_stmt 0
 1406 01f4 97000000 		call	_Z15thread_dispatchv@plt
 1406      E7800000 
 1407              	.LVL130:
  93:test/Threads_CPP_API_test.cpp **** }
 1408              		.loc 2 93 1
 1409 01fc 83308101 		ld	ra,24(sp)
 1410              		.cfi_restore 1
 1411 0200 03340101 		ld	s0,16(sp)
 1412              		.cfi_restore 8
 1413              		.cfi_def_cfa 2, 32
 1414 0204 83348100 		ld	s1,8(sp)
 1415              		.cfi_restore 9
 1416 0208 03390100 		ld	s2,0(sp)
 1417              		.cfi_restore 18
 1418              	.LVL131:
 1419 020c 13010102 		addi	sp,sp,32
 1420              		.cfi_def_cfa_offset 0
 1421 0210 67800000 		jr	ra
 1422              		.cfi_endproc
 1423              	.LFE66:
 1425              		.section	.text._ZN7WorkerB3runEv,"axG",@progbits,_ZN7WorkerB3runEv,comdat
 1426              		.align	2
 1427              		.weak	_ZN7WorkerB3runEv
 1429              	_ZN7WorkerB3runEv:
 1430              	.LFB56:
  35:test/Threads_CPP_API_test.cpp ****         workerBodyB(nullptr);
 1431              		.loc 2 35 10 is_stmt 1
 1432              		.cfi_startproc
 1433              	.LVL132:
 1434 0000 130101FF 		addi	sp,sp,-16
 1435              		.cfi_def_cfa_offset 16
 1436 0004 23341100 		sd	ra,8(sp)
 1437 0008 23308100 		sd	s0,0(sp)
 1438              		.cfi_offset 1, -8
 1439              		.cfi_offset 8, -16
GAS LISTING /tmp/cc6ZYyze.s 			page 33


 1440 000c 13040101 		addi	s0,sp,16
 1441              		.cfi_def_cfa 8, 0
  36:test/Threads_CPP_API_test.cpp ****     }
 1442              		.loc 2 36 9
  36:test/Threads_CPP_API_test.cpp ****     }
 1443              		.loc 2 36 20 is_stmt 0
 1444 0010 93050000 		li	a1,0
 1445 0014 97000000 		call	_ZN7WorkerB11workerBodyBEPv
 1445      E7800000 
 1446              	.LVL133:
  37:test/Threads_CPP_API_test.cpp **** };
 1447              		.loc 2 37 5
 1448 001c 83308100 		ld	ra,8(sp)
 1449              		.cfi_restore 1
 1450 0020 03340100 		ld	s0,0(sp)
 1451              		.cfi_restore 8
 1452              		.cfi_def_cfa 2, 16
 1453 0024 13010101 		addi	sp,sp,16
 1454              		.cfi_def_cfa_offset 0
 1455 0028 67800000 		jr	ra
 1456              		.cfi_endproc
 1457              	.LFE56:
 1459              		.section	.rodata.str1.8
 1460 0035 000000   		.align	3
 1461              	.LC5:
 1462 0038 433A2069 		.string	"C: i="
 1462      3D00
 1463 003e 0000     		.align	3
 1464              	.LC6:
 1465 0040 433A2064 		.string	"C: dispatch\n"
 1465      69737061 
 1465      7463680A 
 1465      00
 1466 004d 000000   		.align	3
 1467              	.LC7:
 1468 0050 433A2074 		.string	"C: t1="
 1468      313D00
 1469 0057 00       		.align	3
 1470              	.LC8:
 1471 0058 433A2066 		.string	"C: fibonaci="
 1471      69626F6E 
 1471      6163693D 
 1471      00
 1472              		.text
 1473              		.align	2
 1474              		.globl	_ZN7WorkerC11workerBodyCEPv
 1476              	_ZN7WorkerC11workerBodyCEPv:
 1477              	.LFB67:
  94:test/Threads_CPP_API_test.cpp **** 
  95:test/Threads_CPP_API_test.cpp **** void WorkerC::workerBodyC(void *arg) {
 1478              		.loc 2 95 38 is_stmt 1
 1479              		.cfi_startproc
 1480              	.LVL134:
 1481 0214 130101FE 		addi	sp,sp,-32
 1482              		.cfi_def_cfa_offset 32
 1483 0218 233C1100 		sd	ra,24(sp)
 1484 021c 23388100 		sd	s0,16(sp)
GAS LISTING /tmp/cc6ZYyze.s 			page 34


 1485 0220 23349100 		sd	s1,8(sp)
 1486 0224 23302101 		sd	s2,0(sp)
 1487              		.cfi_offset 1, -8
 1488              		.cfi_offset 8, -16
 1489              		.cfi_offset 9, -24
 1490              		.cfi_offset 18, -32
 1491 0228 13040102 		addi	s0,sp,32
 1492              		.cfi_def_cfa 8, 0
  96:test/Threads_CPP_API_test.cpp ****     uint8 i = 0;
 1493              		.loc 2 96 5
 1494              	.LVL135:
 1495              		.loc 2 96 11 is_stmt 0
 1496 022c 93040000 		li	s1,0
 1497 0230 6F000004 		j	.L73
 1498              	.LVL136:
 1499              	.L77:
  97:test/Threads_CPP_API_test.cpp ****     for (; i < 3; i++) {
  98:test/Threads_CPP_API_test.cpp ****         printString("C: i=");
 1500              		.loc 2 98 9 is_stmt 1 discriminator 1
 1501              		.loc 2 98 20 is_stmt 0 discriminator 1
 1502 0234 17050000 		lla	a0,.LC5
 1502      13050500 
 1503 023c 97000000 		call	_Z11printStringPKc@plt
 1503      E7800000 
 1504              	.LVL137:
  99:test/Threads_CPP_API_test.cpp ****         printInt(i);
 1505              		.loc 2 99 9 is_stmt 1 discriminator 1
 1506              		.loc 2 99 17 is_stmt 0 discriminator 1
 1507 0244 13060000 		li	a2,0
 1508 0248 9305A000 		li	a1,10
 1509 024c 13850400 		mv	a0,s1
 1510 0250 97000000 		call	_Z8printIntiii@plt
 1510      E7800000 
 1511              	.LVL138:
 100:test/Threads_CPP_API_test.cpp ****         printString("\n");
 1512              		.loc 2 100 9 is_stmt 1 discriminator 1
 1513              		.loc 2 100 20 is_stmt 0 discriminator 1
 1514 0258 17050000 		lla	a0,.LC1
 1514      13050500 
 1515 0260 97000000 		call	_Z11printStringPKc@plt
 1515      E7800000 
 1516              	.LVL139:
  97:test/Threads_CPP_API_test.cpp ****     for (; i < 3; i++) {
 1517              		.loc 2 97 5 is_stmt 1 discriminator 1
 1518 0268 9B841400 		addiw	s1,s1,1
 1519              	.LVL140:
 1520 026c 93F4F40F 		andi	s1,s1,0xff
 1521              	.LVL141:
 1522              	.L73:
  97:test/Threads_CPP_API_test.cpp ****     for (; i < 3; i++) {
 1523              		.loc 2 97 5 discriminator 2
  97:test/Threads_CPP_API_test.cpp ****     for (; i < 3; i++) {
 1524              		.loc 2 97 14 discriminator 2
 1525 0270 93072000 		li	a5,2
 1526 0274 E3F097FC 		bleu	s1,a5,.L77
 101:test/Threads_CPP_API_test.cpp ****     }
 102:test/Threads_CPP_API_test.cpp **** 
GAS LISTING /tmp/cc6ZYyze.s 			page 35


 103:test/Threads_CPP_API_test.cpp ****     printString("C: dispatch\n");
 1527              		.loc 2 103 5
 1528              		.loc 2 103 16 is_stmt 0
 1529 0278 17050000 		lla	a0,.LC6
 1529      13050500 
 1530 0280 97000000 		call	_Z11printStringPKc@plt
 1530      E7800000 
 1531              	.LVL142:
 104:test/Threads_CPP_API_test.cpp ****     __asm__ ("li t1, 7");
 1532              		.loc 2 104 5 is_stmt 1
 1533              		.loc 2 104 25 is_stmt 0
 1534              	#APP
 1535              	# 104 "test/Threads_CPP_API_test.cpp" 1
 105              	    thread_dispatch();
 1536              		li t1, 7
 1537              	# 0 "" 2
 1538              		.loc 2 105 5 is_stmt 1
 1539              		.loc 2 105 20 is_stmt 0
 1540              	#NO_APP
 1541 028c 97000000 		call	_Z15thread_dispatchv@plt
 1541      E7800000 
 1542              	.LVL143:
 106:test/Threads_CPP_API_test.cpp **** 
 107:test/Threads_CPP_API_test.cpp ****     uint64 t1 = 0;
 1543              		.loc 2 107 5 is_stmt 1
 108:test/Threads_CPP_API_test.cpp ****     __asm__ ("mv %[t1], t1" : [t1] "=r"(t1));
 1544              		.loc 2 108 5
 1545              		.loc 2 108 45 is_stmt 0
 1546              	#APP
 1547              	# 108 "test/Threads_CPP_API_test.cpp" 1
 109              	
 1548              		mv s2, t1
 1549              	# 0 "" 2
 1550              	.LVL144:
 110:test/Threads_CPP_API_test.cpp ****     printString("C: t1=");
 1551              		.loc 2 110 5 is_stmt 1
 1552              		.loc 2 110 16 is_stmt 0
 1553              	#NO_APP
 1554 0298 17050000 		lla	a0,.LC7
 1554      13050500 
 1555 02a0 97000000 		call	_Z11printStringPKc@plt
 1555      E7800000 
 1556              	.LVL145:
 111:test/Threads_CPP_API_test.cpp ****     printInt(t1);
 1557              		.loc 2 111 5 is_stmt 1
 1558              		.loc 2 111 13 is_stmt 0
 1559 02a8 13060000 		li	a2,0
 1560 02ac 9305A000 		li	a1,10
 1561 02b0 1B050900 		sext.w	a0,s2
 1562 02b4 97000000 		call	_Z8printIntiii@plt
 1562      E7800000 
 1563              	.LVL146:
 112:test/Threads_CPP_API_test.cpp ****     printString("\n");
 1564              		.loc 2 112 5 is_stmt 1
 1565              		.loc 2 112 16 is_stmt 0
 1566 02bc 17050000 		lla	a0,.LC1
 1566      13050500 
GAS LISTING /tmp/cc6ZYyze.s 			page 36


 1567 02c4 97000000 		call	_Z11printStringPKc@plt
 1567      E7800000 
 1568              	.LVL147:
 113:test/Threads_CPP_API_test.cpp **** 
 114:test/Threads_CPP_API_test.cpp ****     uint64 result = fibonacci(12);
 1569              		.loc 2 114 5 is_stmt 1
 1570              		.loc 2 114 30 is_stmt 0
 1571 02cc 1305C000 		li	a0,12
 1572 02d0 97000000 		call	_ZL9fibonaccim
 1572      E7800000 
 1573              	.LVL148:
 1574 02d8 13090500 		mv	s2,a0
 1575              	.LVL149:
 115:test/Threads_CPP_API_test.cpp ****     printString("C: fibonaci=");
 1576              		.loc 2 115 5 is_stmt 1
 1577              		.loc 2 115 16 is_stmt 0
 1578 02dc 17050000 		lla	a0,.LC8
 1578      13050500 
 1579              	.LVL150:
 1580 02e4 97000000 		call	_Z11printStringPKc@plt
 1580      E7800000 
 1581              	.LVL151:
 116:test/Threads_CPP_API_test.cpp ****     printInt(result);
 1582              		.loc 2 116 5 is_stmt 1
 1583              		.loc 2 116 13 is_stmt 0
 1584 02ec 13060000 		li	a2,0
 1585 02f0 9305A000 		li	a1,10
 1586 02f4 1B050900 		sext.w	a0,s2
 1587 02f8 97000000 		call	_Z8printIntiii@plt
 1587      E7800000 
 1588              	.LVL152:
 117:test/Threads_CPP_API_test.cpp ****     printString("\n");
 1589              		.loc 2 117 5 is_stmt 1
 1590              		.loc 2 117 16 is_stmt 0
 1591 0300 17050000 		lla	a0,.LC1
 1591      13050500 
 1592 0308 97000000 		call	_Z11printStringPKc@plt
 1592      E7800000 
 1593              	.LVL153:
 1594 0310 6F000004 		j	.L75
 1595              	.L78:
 118:test/Threads_CPP_API_test.cpp **** 
 119:test/Threads_CPP_API_test.cpp ****     for (; i < 6; i++) {
 120:test/Threads_CPP_API_test.cpp ****         printString("C: i=");
 1596              		.loc 2 120 9 is_stmt 1 discriminator 1
 1597              		.loc 2 120 20 is_stmt 0 discriminator 1
 1598 0314 17050000 		lla	a0,.LC5
 1598      13050500 
 1599 031c 97000000 		call	_Z11printStringPKc@plt
 1599      E7800000 
 1600              	.LVL154:
 121:test/Threads_CPP_API_test.cpp ****         printInt(i);
 1601              		.loc 2 121 9 is_stmt 1 discriminator 1
 1602              		.loc 2 121 17 is_stmt 0 discriminator 1
 1603 0324 13060000 		li	a2,0
 1604 0328 9305A000 		li	a1,10
 1605 032c 13850400 		mv	a0,s1
GAS LISTING /tmp/cc6ZYyze.s 			page 37


 1606 0330 97000000 		call	_Z8printIntiii@plt
 1606      E7800000 
 1607              	.LVL155:
 122:test/Threads_CPP_API_test.cpp ****         printString("\n");
 1608              		.loc 2 122 9 is_stmt 1 discriminator 1
 1609              		.loc 2 122 20 is_stmt 0 discriminator 1
 1610 0338 17050000 		lla	a0,.LC1
 1610      13050500 
 1611 0340 97000000 		call	_Z11printStringPKc@plt
 1611      E7800000 
 1612              	.LVL156:
 119:test/Threads_CPP_API_test.cpp ****         printString("C: i=");
 1613              		.loc 2 119 5 is_stmt 1 discriminator 1
 1614 0348 9B841400 		addiw	s1,s1,1
 1615              	.LVL157:
 1616 034c 93F4F40F 		andi	s1,s1,0xff
 1617              	.LVL158:
 1618              	.L75:
 119:test/Threads_CPP_API_test.cpp ****         printString("C: i=");
 1619              		.loc 2 119 5 discriminator 2
 119:test/Threads_CPP_API_test.cpp ****         printString("C: i=");
 1620              		.loc 2 119 14 discriminator 2
 1621 0350 93075000 		li	a5,5
 1622 0354 E3F097FC 		bleu	s1,a5,.L78
 123:test/Threads_CPP_API_test.cpp ****     }
 124:test/Threads_CPP_API_test.cpp **** 
 125:test/Threads_CPP_API_test.cpp ****     printString("A finished!\n");
 1623              		.loc 2 125 5
 1624              		.loc 2 125 16 is_stmt 0
 1625 0358 17050000 		lla	a0,.LC2
 1625      13050500 
 1626 0360 97000000 		call	_Z11printStringPKc@plt
 1626      E7800000 
 1627              	.LVL159:
 126:test/Threads_CPP_API_test.cpp ****     finishedC = true;
 1628              		.loc 2 126 5 is_stmt 1
 1629              		.loc 2 126 15 is_stmt 0
 1630 0368 93071000 		li	a5,1
 1631 036c 17070000 		sb	a5,.LANCHOR0+2,a4
 1631      2300F700 
 127:test/Threads_CPP_API_test.cpp ****     thread_dispatch();
 1632              		.loc 2 127 5 is_stmt 1
 1633              		.loc 2 127 20 is_stmt 0
 1634 0374 97000000 		call	_Z15thread_dispatchv@plt
 1634      E7800000 
 1635              	.LVL160:
 128:test/Threads_CPP_API_test.cpp **** }
 1636              		.loc 2 128 1
 1637 037c 83308101 		ld	ra,24(sp)
 1638              		.cfi_restore 1
 1639 0380 03340101 		ld	s0,16(sp)
 1640              		.cfi_restore 8
 1641              		.cfi_def_cfa 2, 32
 1642 0384 83348100 		ld	s1,8(sp)
 1643              		.cfi_restore 9
 1644              	.LVL161:
 1645 0388 03390100 		ld	s2,0(sp)
GAS LISTING /tmp/cc6ZYyze.s 			page 38


 1646              		.cfi_restore 18
 1647              	.LVL162:
 1648 038c 13010102 		addi	sp,sp,32
 1649              		.cfi_def_cfa_offset 0
 1650 0390 67800000 		jr	ra
 1651              		.cfi_endproc
 1652              	.LFE67:
 1654              		.section	.text._ZN7WorkerC3runEv,"axG",@progbits,_ZN7WorkerC3runEv,comdat
 1655              		.align	2
 1656              		.weak	_ZN7WorkerC3runEv
 1658              	_ZN7WorkerC3runEv:
 1659              	.LFB60:
  47:test/Threads_CPP_API_test.cpp ****         workerBodyC(nullptr);
 1660              		.loc 2 47 10 is_stmt 1
 1661              		.cfi_startproc
 1662              	.LVL163:
 1663 0000 130101FF 		addi	sp,sp,-16
 1664              		.cfi_def_cfa_offset 16
 1665 0004 23341100 		sd	ra,8(sp)
 1666 0008 23308100 		sd	s0,0(sp)
 1667              		.cfi_offset 1, -8
 1668              		.cfi_offset 8, -16
 1669 000c 13040101 		addi	s0,sp,16
 1670              		.cfi_def_cfa 8, 0
  48:test/Threads_CPP_API_test.cpp ****     }
 1671              		.loc 2 48 9
  48:test/Threads_CPP_API_test.cpp ****     }
 1672              		.loc 2 48 20 is_stmt 0
 1673 0010 93050000 		li	a1,0
 1674 0014 97000000 		call	_ZN7WorkerC11workerBodyCEPv
 1674      E7800000 
 1675              	.LVL164:
  49:test/Threads_CPP_API_test.cpp **** };
 1676              		.loc 2 49 5
 1677 001c 83308100 		ld	ra,8(sp)
 1678              		.cfi_restore 1
 1679 0020 03340100 		ld	s0,0(sp)
 1680              		.cfi_restore 8
 1681              		.cfi_def_cfa 2, 16
 1682 0024 13010101 		addi	sp,sp,16
 1683              		.cfi_def_cfa_offset 0
 1684 0028 67800000 		jr	ra
 1685              		.cfi_endproc
 1686              	.LFE60:
 1688              		.section	.rodata.str1.8
 1689 0065 000000   		.align	3
 1690              	.LC9:
 1691 0068 443A2069 		.string	"D: i="
 1691      3D00
 1692 006e 0000     		.align	3
 1693              	.LC10:
 1694 0070 443A2064 		.string	"D: dispatch\n"
 1694      69737061 
 1694      7463680A 
 1694      00
 1695 007d 000000   		.align	3
 1696              	.LC11:
GAS LISTING /tmp/cc6ZYyze.s 			page 39


 1697 0080 443A2066 		.string	"D: fibonaci="
 1697      69626F6E 
 1697      6163693D 
 1697      00
 1698 008d 000000   		.align	3
 1699              	.LC12:
 1700 0090 44206669 		.string	"D finished!\n"
 1700      6E697368 
 1700      6564210A 
 1700      00
 1701              		.text
 1702              		.align	2
 1703              		.globl	_ZN7WorkerD11workerBodyDEPv
 1705              	_ZN7WorkerD11workerBodyDEPv:
 1706              	.LFB68:
 129:test/Threads_CPP_API_test.cpp **** 
 130:test/Threads_CPP_API_test.cpp **** void WorkerD::workerBodyD(void *arg) {
 1707              		.loc 2 130 38 is_stmt 1
 1708              		.cfi_startproc
 1709              	.LVL165:
 1710 0394 130101FE 		addi	sp,sp,-32
 1711              		.cfi_def_cfa_offset 32
 1712 0398 233C1100 		sd	ra,24(sp)
 1713 039c 23388100 		sd	s0,16(sp)
 1714 03a0 23349100 		sd	s1,8(sp)
 1715 03a4 23302101 		sd	s2,0(sp)
 1716              		.cfi_offset 1, -8
 1717              		.cfi_offset 8, -16
 1718              		.cfi_offset 9, -24
 1719              		.cfi_offset 18, -32
 1720 03a8 13040102 		addi	s0,sp,32
 1721              		.cfi_def_cfa 8, 0
 131:test/Threads_CPP_API_test.cpp ****     uint8 i = 10;
 1722              		.loc 2 131 5
 1723              	.LVL166:
 1724              		.loc 2 131 11 is_stmt 0
 1725 03ac 9304A000 		li	s1,10
 1726 03b0 6F000004 		j	.L83
 1727              	.LVL167:
 1728              	.L87:
 132:test/Threads_CPP_API_test.cpp ****     for (; i < 13; i++) {
 133:test/Threads_CPP_API_test.cpp ****         printString("D: i=");
 1729              		.loc 2 133 9 is_stmt 1 discriminator 1
 1730              		.loc 2 133 20 is_stmt 0 discriminator 1
 1731 03b4 17050000 		lla	a0,.LC9
 1731      13050500 
 1732 03bc 97000000 		call	_Z11printStringPKc@plt
 1732      E7800000 
 1733              	.LVL168:
 134:test/Threads_CPP_API_test.cpp ****         printInt(i);
 1734              		.loc 2 134 9 is_stmt 1 discriminator 1
 1735              		.loc 2 134 17 is_stmt 0 discriminator 1
 1736 03c4 13060000 		li	a2,0
 1737 03c8 9305A000 		li	a1,10
 1738 03cc 13850400 		mv	a0,s1
 1739 03d0 97000000 		call	_Z8printIntiii@plt
 1739      E7800000 
GAS LISTING /tmp/cc6ZYyze.s 			page 40


 1740              	.LVL169:
 135:test/Threads_CPP_API_test.cpp ****         printString("\n");
 1741              		.loc 2 135 9 is_stmt 1 discriminator 1
 1742              		.loc 2 135 20 is_stmt 0 discriminator 1
 1743 03d8 17050000 		lla	a0,.LC1
 1743      13050500 
 1744 03e0 97000000 		call	_Z11printStringPKc@plt
 1744      E7800000 
 1745              	.LVL170:
 132:test/Threads_CPP_API_test.cpp ****     for (; i < 13; i++) {
 1746              		.loc 2 132 5 is_stmt 1 discriminator 1
 1747 03e8 9B841400 		addiw	s1,s1,1
 1748              	.LVL171:
 1749 03ec 93F4F40F 		andi	s1,s1,0xff
 1750              	.LVL172:
 1751              	.L83:
 132:test/Threads_CPP_API_test.cpp ****     for (; i < 13; i++) {
 1752              		.loc 2 132 5 discriminator 2
 132:test/Threads_CPP_API_test.cpp ****     for (; i < 13; i++) {
 1753              		.loc 2 132 14 discriminator 2
 1754 03f0 9307C000 		li	a5,12
 1755 03f4 E3F097FC 		bleu	s1,a5,.L87
 136:test/Threads_CPP_API_test.cpp ****     }
 137:test/Threads_CPP_API_test.cpp **** 
 138:test/Threads_CPP_API_test.cpp ****     printString("D: dispatch\n");
 1756              		.loc 2 138 5
 1757              		.loc 2 138 16 is_stmt 0
 1758 03f8 17050000 		lla	a0,.LC10
 1758      13050500 
 1759 0400 97000000 		call	_Z11printStringPKc@plt
 1759      E7800000 
 1760              	.LVL173:
 139:test/Threads_CPP_API_test.cpp ****     __asm__ ("li t1, 5");
 1761              		.loc 2 139 5 is_stmt 1
 1762              		.loc 2 139 25 is_stmt 0
 1763              	#APP
 1764              	# 139 "test/Threads_CPP_API_test.cpp" 1
 140              	    thread_dispatch();
 1765              		li t1, 5
 1766              	# 0 "" 2
 1767              		.loc 2 140 5 is_stmt 1
 1768              		.loc 2 140 20 is_stmt 0
 1769              	#NO_APP
 1770 040c 97000000 		call	_Z15thread_dispatchv@plt
 1770      E7800000 
 1771              	.LVL174:
 141:test/Threads_CPP_API_test.cpp **** 
 142:test/Threads_CPP_API_test.cpp ****     uint64 result = fibonacci(16);
 1772              		.loc 2 142 5 is_stmt 1
 1773              		.loc 2 142 30 is_stmt 0
 1774 0414 13050001 		li	a0,16
 1775 0418 97000000 		call	_ZL9fibonaccim
 1775      E7800000 
 1776              	.LVL175:
 1777 0420 13090500 		mv	s2,a0
 1778              	.LVL176:
 143:test/Threads_CPP_API_test.cpp ****     printString("D: fibonaci=");
GAS LISTING /tmp/cc6ZYyze.s 			page 41


 1779              		.loc 2 143 5 is_stmt 1
 1780              		.loc 2 143 16 is_stmt 0
 1781 0424 17050000 		lla	a0,.LC11
 1781      13050500 
 1782              	.LVL177:
 1783 042c 97000000 		call	_Z11printStringPKc@plt
 1783      E7800000 
 1784              	.LVL178:
 144:test/Threads_CPP_API_test.cpp ****     printInt(result);
 1785              		.loc 2 144 5 is_stmt 1
 1786              		.loc 2 144 13 is_stmt 0
 1787 0434 13060000 		li	a2,0
 1788 0438 9305A000 		li	a1,10
 1789 043c 1B050900 		sext.w	a0,s2
 1790 0440 97000000 		call	_Z8printIntiii@plt
 1790      E7800000 
 1791              	.LVL179:
 145:test/Threads_CPP_API_test.cpp ****     printString("\n");
 1792              		.loc 2 145 5 is_stmt 1
 1793              		.loc 2 145 16 is_stmt 0
 1794 0448 17050000 		lla	a0,.LC1
 1794      13050500 
 1795 0450 97000000 		call	_Z11printStringPKc@plt
 1795      E7800000 
 1796              	.LVL180:
 1797 0458 6F000004 		j	.L85
 1798              	.L88:
 146:test/Threads_CPP_API_test.cpp **** 
 147:test/Threads_CPP_API_test.cpp ****     for (; i < 16; i++) {
 148:test/Threads_CPP_API_test.cpp ****         printString("D: i=");
 1799              		.loc 2 148 9 is_stmt 1 discriminator 1
 1800              		.loc 2 148 20 is_stmt 0 discriminator 1
 1801 045c 17050000 		lla	a0,.LC9
 1801      13050500 
 1802 0464 97000000 		call	_Z11printStringPKc@plt
 1802      E7800000 
 1803              	.LVL181:
 149:test/Threads_CPP_API_test.cpp ****         printInt(i);
 1804              		.loc 2 149 9 is_stmt 1 discriminator 1
 1805              		.loc 2 149 17 is_stmt 0 discriminator 1
 1806 046c 13060000 		li	a2,0
 1807 0470 9305A000 		li	a1,10
 1808 0474 13850400 		mv	a0,s1
 1809 0478 97000000 		call	_Z8printIntiii@plt
 1809      E7800000 
 1810              	.LVL182:
 150:test/Threads_CPP_API_test.cpp ****         printString("\n");
 1811              		.loc 2 150 9 is_stmt 1 discriminator 1
 1812              		.loc 2 150 20 is_stmt 0 discriminator 1
 1813 0480 17050000 		lla	a0,.LC1
 1813      13050500 
 1814 0488 97000000 		call	_Z11printStringPKc@plt
 1814      E7800000 
 1815              	.LVL183:
 147:test/Threads_CPP_API_test.cpp ****         printString("D: i=");
 1816              		.loc 2 147 5 is_stmt 1 discriminator 1
 1817 0490 9B841400 		addiw	s1,s1,1
GAS LISTING /tmp/cc6ZYyze.s 			page 42


 1818              	.LVL184:
 1819 0494 93F4F40F 		andi	s1,s1,0xff
 1820              	.LVL185:
 1821              	.L85:
 147:test/Threads_CPP_API_test.cpp ****         printString("D: i=");
 1822              		.loc 2 147 5 discriminator 2
 147:test/Threads_CPP_API_test.cpp ****         printString("D: i=");
 1823              		.loc 2 147 14 discriminator 2
 1824 0498 9307F000 		li	a5,15
 1825 049c E3F097FC 		bleu	s1,a5,.L88
 151:test/Threads_CPP_API_test.cpp ****     }
 152:test/Threads_CPP_API_test.cpp **** 
 153:test/Threads_CPP_API_test.cpp ****     printString("D finished!\n");
 1826              		.loc 2 153 5
 1827              		.loc 2 153 16 is_stmt 0
 1828 04a0 17050000 		lla	a0,.LC12
 1828      13050500 
 1829 04a8 97000000 		call	_Z11printStringPKc@plt
 1829      E7800000 
 1830              	.LVL186:
 154:test/Threads_CPP_API_test.cpp ****     finishedD = true;
 1831              		.loc 2 154 5 is_stmt 1
 1832              		.loc 2 154 15 is_stmt 0
 1833 04b0 93071000 		li	a5,1
 1834 04b4 17070000 		sb	a5,.LANCHOR0+3,a4
 1834      2300F700 
 155:test/Threads_CPP_API_test.cpp ****     thread_dispatch();
 1835              		.loc 2 155 5 is_stmt 1
 1836              		.loc 2 155 20 is_stmt 0
 1837 04bc 97000000 		call	_Z15thread_dispatchv@plt
 1837      E7800000 
 1838              	.LVL187:
 156:test/Threads_CPP_API_test.cpp **** }
 1839              		.loc 2 156 1
 1840 04c4 83308101 		ld	ra,24(sp)
 1841              		.cfi_restore 1
 1842 04c8 03340101 		ld	s0,16(sp)
 1843              		.cfi_restore 8
 1844              		.cfi_def_cfa 2, 32
 1845 04cc 83348100 		ld	s1,8(sp)
 1846              		.cfi_restore 9
 1847              	.LVL188:
 1848 04d0 03390100 		ld	s2,0(sp)
 1849              		.cfi_restore 18
 1850              	.LVL189:
 1851 04d4 13010102 		addi	sp,sp,32
 1852              		.cfi_def_cfa_offset 0
 1853 04d8 67800000 		jr	ra
 1854              		.cfi_endproc
 1855              	.LFE68:
 1857              		.section	.text._ZN7WorkerD3runEv,"axG",@progbits,_ZN7WorkerD3runEv,comdat
 1858              		.align	2
 1859              		.weak	_ZN7WorkerD3runEv
 1861              	_ZN7WorkerD3runEv:
 1862              	.LFB64:
  59:test/Threads_CPP_API_test.cpp ****         workerBodyD(nullptr);
 1863              		.loc 2 59 10 is_stmt 1
GAS LISTING /tmp/cc6ZYyze.s 			page 43


 1864              		.cfi_startproc
 1865              	.LVL190:
 1866 0000 130101FF 		addi	sp,sp,-16
 1867              		.cfi_def_cfa_offset 16
 1868 0004 23341100 		sd	ra,8(sp)
 1869 0008 23308100 		sd	s0,0(sp)
 1870              		.cfi_offset 1, -8
 1871              		.cfi_offset 8, -16
 1872 000c 13040101 		addi	s0,sp,16
 1873              		.cfi_def_cfa 8, 0
  60:test/Threads_CPP_API_test.cpp ****     }
 1874              		.loc 2 60 9
  60:test/Threads_CPP_API_test.cpp ****     }
 1875              		.loc 2 60 20 is_stmt 0
 1876 0010 93050000 		li	a1,0
 1877 0014 97000000 		call	_ZN7WorkerD11workerBodyDEPv
 1877      E7800000 
 1878              	.LVL191:
  61:test/Threads_CPP_API_test.cpp **** };
 1879              		.loc 2 61 5
 1880 001c 83308100 		ld	ra,8(sp)
 1881              		.cfi_restore 1
 1882 0020 03340100 		ld	s0,0(sp)
 1883              		.cfi_restore 8
 1884              		.cfi_def_cfa 2, 16
 1885 0024 13010101 		addi	sp,sp,16
 1886              		.cfi_def_cfa_offset 0
 1887 0028 67800000 		jr	ra
 1888              		.cfi_endproc
 1889              	.LFE64:
 1891              		.section	.rodata.str1.8
 1892 009d 000000   		.align	3
 1893              	.LC13:
 1894 00a0 54687265 		.string	"ThreadA created\n"
 1894      61644120 
 1894      63726561 
 1894      7465640A 
 1894      00
 1895 00b1 00000000 		.align	3
 1895      000000
 1896              	.LC14:
 1897 00b8 54687265 		.string	"ThreadB created\n"
 1897      61644220 
 1897      63726561 
 1897      7465640A 
 1897      00
 1898 00c9 00000000 		.align	3
 1898      000000
 1899              	.LC15:
 1900 00d0 54687265 		.string	"ThreadC created\n"
 1900      61644320 
 1900      63726561 
 1900      7465640A 
 1900      00
 1901 00e1 00000000 		.align	3
 1901      000000
 1902              	.LC16:
GAS LISTING /tmp/cc6ZYyze.s 			page 44


 1903 00e8 54687265 		.string	"ThreadD created\n"
 1903      61644420 
 1903      63726561 
 1903      7465640A 
 1903      00
 1904              		.text
 1905              		.align	2
 1906              		.globl	_Z20Threads_CPP_API_testv
 1908              	_Z20Threads_CPP_API_testv:
 1909              	.LFB69:
 157:test/Threads_CPP_API_test.cpp **** 
 158:test/Threads_CPP_API_test.cpp **** 
 159:test/Threads_CPP_API_test.cpp **** void Threads_CPP_API_test() {
 1910              		.loc 2 159 29 is_stmt 1
 1911              		.cfi_startproc
 1912 04dc 130101FC 		addi	sp,sp,-64
 1913              		.cfi_def_cfa_offset 64
 1914 04e0 233C1102 		sd	ra,56(sp)
 1915 04e4 23388102 		sd	s0,48(sp)
 1916 04e8 23349102 		sd	s1,40(sp)
 1917              		.cfi_offset 1, -8
 1918              		.cfi_offset 8, -16
 1919              		.cfi_offset 9, -24
 1920 04ec 13040104 		addi	s0,sp,64
 1921              		.cfi_def_cfa 8, 0
 160:test/Threads_CPP_API_test.cpp ****     Thread *threads[4];
 1922              		.loc 2 160 5
 161:test/Threads_CPP_API_test.cpp **** 
 162:test/Threads_CPP_API_test.cpp ****     threads[0] = new WorkerA();
 1923              		.loc 2 162 5
 1924              		.loc 2 162 30 is_stmt 0
 1925 04f0 13050002 		li	a0,32
 1926 04f4 97000000 		call	_Znwm@plt
 1926      E7800000 
 1927              	.LVL192:
 1928              	.LBB233:
 1929              	.LBB234:
 1930              	.LBB235:
 1931              	.LBB236:
  48:test/../h/syscall_cpp.hpp ****         this->arg = this;
 1932              		.loc 1 48 9 is_stmt 1
  48:test/../h/syscall_cpp.hpp ****         this->arg = this;
 1933              		.loc 1 48 20 is_stmt 0
 1934 04fc 97040000 		lla	s1,_ZN6Thread14thread_wrapperEPv
 1934      93840400 
 1935 0504 23389500 		sd	s1,16(a0)
  49:test/../h/syscall_cpp.hpp ****     }
 1936              		.loc 1 49 9 is_stmt 1
  49:test/../h/syscall_cpp.hpp ****     }
 1937              		.loc 1 49 19 is_stmt 0
 1938 0508 233CA500 		sd	a0,24(a0)
 1939              	.LVL193:
 1940              	.LBE236:
 1941              	.LBE235:
  20:test/Threads_CPP_API_test.cpp ****     }
 1942              		.loc 2 20 23
 1943 050c 97070000 		lla	a5,_ZTV7WorkerA+16
GAS LISTING /tmp/cc6ZYyze.s 			page 45


 1943      93870700 
 1944 0514 2330F500 		sd	a5,0(a0)
 1945              	.LVL194:
 1946              	.LBE234:
 1947              	.LBE233:
 1948              		.loc 2 162 16
 1949 0518 2330A4FC 		sd	a0,-64(s0)
 163:test/Threads_CPP_API_test.cpp ****     printString("ThreadA created\n");
 1950              		.loc 2 163 5 is_stmt 1
 1951              		.loc 2 163 16 is_stmt 0
 1952 051c 17050000 		lla	a0,.LC13
 1952      13050500 
 1953 0524 97000000 		call	_Z11printStringPKc@plt
 1953      E7800000 
 1954              	.LVL195:
 164:test/Threads_CPP_API_test.cpp **** 
 165:test/Threads_CPP_API_test.cpp ****     threads[1] = new WorkerB();
 1955              		.loc 2 165 5 is_stmt 1
 1956              		.loc 2 165 30 is_stmt 0
 1957 052c 13050002 		li	a0,32
 1958 0530 97000000 		call	_Znwm@plt
 1958      E7800000 
 1959              	.LVL196:
 1960              	.LBB237:
 1961              	.LBB238:
 1962              	.LBB239:
 1963              	.LBB240:
  48:test/../h/syscall_cpp.hpp ****         this->arg = this;
 1964              		.loc 1 48 9 is_stmt 1
  48:test/../h/syscall_cpp.hpp ****         this->arg = this;
 1965              		.loc 1 48 20 is_stmt 0
 1966 0538 23389500 		sd	s1,16(a0)
  49:test/../h/syscall_cpp.hpp ****     }
 1967              		.loc 1 49 9 is_stmt 1
  49:test/../h/syscall_cpp.hpp ****     }
 1968              		.loc 1 49 19 is_stmt 0
 1969 053c 233CA500 		sd	a0,24(a0)
 1970              	.LVL197:
 1971              	.LBE240:
 1972              	.LBE239:
  32:test/Threads_CPP_API_test.cpp ****     }
 1973              		.loc 2 32 23
 1974 0540 97070000 		lla	a5,_ZTV7WorkerB+16
 1974      93870700 
 1975 0548 2330F500 		sd	a5,0(a0)
 1976              	.LVL198:
 1977              	.LBE238:
 1978              	.LBE237:
 1979              		.loc 2 165 16
 1980 054c 2334A4FC 		sd	a0,-56(s0)
 166:test/Threads_CPP_API_test.cpp ****     printString("ThreadB created\n");
 1981              		.loc 2 166 5 is_stmt 1
 1982              		.loc 2 166 16 is_stmt 0
 1983 0550 17050000 		lla	a0,.LC14
 1983      13050500 
 1984 0558 97000000 		call	_Z11printStringPKc@plt
 1984      E7800000 
GAS LISTING /tmp/cc6ZYyze.s 			page 46


 1985              	.LVL199:
 167:test/Threads_CPP_API_test.cpp **** 
 168:test/Threads_CPP_API_test.cpp ****     threads[2] = new WorkerC();
 1986              		.loc 2 168 5 is_stmt 1
 1987              		.loc 2 168 30 is_stmt 0
 1988 0560 13050002 		li	a0,32
 1989 0564 97000000 		call	_Znwm@plt
 1989      E7800000 
 1990              	.LVL200:
 1991              	.LBB241:
 1992              	.LBB242:
 1993              	.LBB243:
 1994              	.LBB244:
  48:test/../h/syscall_cpp.hpp ****         this->arg = this;
 1995              		.loc 1 48 9 is_stmt 1
  48:test/../h/syscall_cpp.hpp ****         this->arg = this;
 1996              		.loc 1 48 20 is_stmt 0
 1997 056c 23389500 		sd	s1,16(a0)
  49:test/../h/syscall_cpp.hpp ****     }
 1998              		.loc 1 49 9 is_stmt 1
  49:test/../h/syscall_cpp.hpp ****     }
 1999              		.loc 1 49 19 is_stmt 0
 2000 0570 233CA500 		sd	a0,24(a0)
 2001              	.LVL201:
 2002              	.LBE244:
 2003              	.LBE243:
  44:test/Threads_CPP_API_test.cpp ****     }
 2004              		.loc 2 44 23
 2005 0574 97070000 		lla	a5,_ZTV7WorkerC+16
 2005      93870700 
 2006 057c 2330F500 		sd	a5,0(a0)
 2007              	.LVL202:
 2008              	.LBE242:
 2009              	.LBE241:
 2010              		.loc 2 168 16
 2011 0580 2338A4FC 		sd	a0,-48(s0)
 169:test/Threads_CPP_API_test.cpp ****     printString("ThreadC created\n");
 2012              		.loc 2 169 5 is_stmt 1
 2013              		.loc 2 169 16 is_stmt 0
 2014 0584 17050000 		lla	a0,.LC15
 2014      13050500 
 2015 058c 97000000 		call	_Z11printStringPKc@plt
 2015      E7800000 
 2016              	.LVL203:
 170:test/Threads_CPP_API_test.cpp **** 
 171:test/Threads_CPP_API_test.cpp ****     threads[3] = new WorkerD();
 2017              		.loc 2 171 5 is_stmt 1
 2018              		.loc 2 171 30 is_stmt 0
 2019 0594 13050002 		li	a0,32
 2020 0598 97000000 		call	_Znwm@plt
 2020      E7800000 
 2021              	.LVL204:
 2022              	.LBB245:
 2023              	.LBB246:
 2024              	.LBB247:
 2025              	.LBB248:
  48:test/../h/syscall_cpp.hpp ****         this->arg = this;
GAS LISTING /tmp/cc6ZYyze.s 			page 47


 2026              		.loc 1 48 9 is_stmt 1
  48:test/../h/syscall_cpp.hpp ****         this->arg = this;
 2027              		.loc 1 48 20 is_stmt 0
 2028 05a0 23389500 		sd	s1,16(a0)
  49:test/../h/syscall_cpp.hpp ****     }
 2029              		.loc 1 49 9 is_stmt 1
  49:test/../h/syscall_cpp.hpp ****     }
 2030              		.loc 1 49 19 is_stmt 0
 2031 05a4 233CA500 		sd	a0,24(a0)
 2032              	.LVL205:
 2033              	.LBE248:
 2034              	.LBE247:
  56:test/Threads_CPP_API_test.cpp ****     }
 2035              		.loc 2 56 23
 2036 05a8 97070000 		lla	a5,_ZTV7WorkerD+16
 2036      93870700 
 2037 05b0 2330F500 		sd	a5,0(a0)
 2038              	.LVL206:
 2039              	.LBE246:
 2040              	.LBE245:
 2041              		.loc 2 171 16
 2042 05b4 233CA4FC 		sd	a0,-40(s0)
 172:test/Threads_CPP_API_test.cpp ****     printString("ThreadD created\n");
 2043              		.loc 2 172 5 is_stmt 1
 2044              		.loc 2 172 16 is_stmt 0
 2045 05b8 17050000 		lla	a0,.LC16
 2045      13050500 
 2046 05c0 97000000 		call	_Z11printStringPKc@plt
 2046      E7800000 
 2047              	.LVL207:
 2048              	.LBB249:
 173:test/Threads_CPP_API_test.cpp **** 
 174:test/Threads_CPP_API_test.cpp ****     for (int i = 0; i < 4; i++) {
 2049              		.loc 2 174 14
 2050 05c8 93040000 		li	s1,0
 2051              	.L93:
 2052              	.LVL208:
 2053              		.loc 2 174 23 is_stmt 1 discriminator 1
 2054 05cc 93073000 		li	a5,3
 2055 05d0 63CC9702 		bgt	s1,a5,.L92
 175:test/Threads_CPP_API_test.cpp ****         threads[i]->start();
 2056              		.loc 2 175 9
 2057              		.loc 2 175 18 is_stmt 0
 2058 05d4 93973400 		slli	a5,s1,3
 2059 05d8 130704FE 		addi	a4,s0,-32
 2060 05dc B307F700 		add	a5,a4,a5
 2061 05e0 03B507FE 		ld	a0,-32(a5)
 2062              	.LVL209:
 2063              	.LBB250:
 2064              	.LBB251:
  34:test/../h/syscall_cpp.hpp ****         return 0;
 2065              		.loc 1 34 9 is_stmt 1
  34:test/../h/syscall_cpp.hpp ****         return 0;
 2066              		.loc 1 34 22 is_stmt 0
 2067 05e4 03368501 		ld	a2,24(a0)
 2068 05e8 83350501 		ld	a1,16(a0)
 2069 05ec 13058500 		addi	a0,a0,8
GAS LISTING /tmp/cc6ZYyze.s 			page 48


 2070              	.LVL210:
 2071 05f0 97000000 		call	_Z13thread_createPP3PCBPFvPvES2_@plt
 2071      E7800000 
 2072              	.LVL211:
  35:test/../h/syscall_cpp.hpp ****     }
 2073              		.loc 1 35 9 is_stmt 1
 2074              	.LBE251:
 2075              	.LBE250:
 174:test/Threads_CPP_API_test.cpp ****         threads[i]->start();
 2076              		.loc 2 174 5
 2077 05f8 9B841400 		addiw	s1,s1,1
 2078              	.LVL212:
 2079 05fc 6FF01FFD 		j	.L93
 2080              	.LVL213:
 2081              	.L94:
 2082              	.LBE249:
 176:test/Threads_CPP_API_test.cpp ****     }
 177:test/Threads_CPP_API_test.cpp **** 
 178:test/Threads_CPP_API_test.cpp ****     while (!(finishedA && finishedB && finishedC && finishedD)) {
 179:test/Threads_CPP_API_test.cpp ****         Thread::dispatch();
 2083              		.loc 2 179 9
 2084              	.LBB252:
 2085              	.LBB253:
  41:test/../h/syscall_cpp.hpp ****     }
 2086              		.loc 1 41 9
  41:test/../h/syscall_cpp.hpp ****     }
 2087              		.loc 1 41 24 is_stmt 0
 2088 0600 97000000 		call	_Z15thread_dispatchv@plt
 2088      E7800000 
 2089              	.LVL214:
 2090              	.L92:
 2091              	.LBE253:
 2092              	.LBE252:
 178:test/Threads_CPP_API_test.cpp ****         Thread::dispatch();
 2093              		.loc 2 178 5 is_stmt 1
 178:test/Threads_CPP_API_test.cpp ****         Thread::dispatch();
 2094              		.loc 2 178 12
 178:test/Threads_CPP_API_test.cpp ****         Thread::dispatch();
 2095              		.loc 2 178 14 is_stmt 0
 2096 0608 97070000 		lbu	a5,.LANCHOR0
 2096      83C70700 
 178:test/Threads_CPP_API_test.cpp ****         Thread::dispatch();
 2097              		.loc 2 178 12
 2098 0610 E38807FE 		beqz	a5,.L94
 178:test/Threads_CPP_API_test.cpp ****         Thread::dispatch();
 2099              		.loc 2 178 27 discriminator 2
 2100 0614 97070000 		lbu	a5,.LANCHOR0+1
 2100      83C70700 
 178:test/Threads_CPP_API_test.cpp ****         Thread::dispatch();
 2101              		.loc 2 178 24 discriminator 2
 2102 061c E38207FE 		beqz	a5,.L94
 178:test/Threads_CPP_API_test.cpp ****         Thread::dispatch();
 2103              		.loc 2 178 40 discriminator 4
 2104 0620 97070000 		lbu	a5,.LANCHOR0+2
 2104      83C70700 
 178:test/Threads_CPP_API_test.cpp ****         Thread::dispatch();
 2105              		.loc 2 178 37 discriminator 4
GAS LISTING /tmp/cc6ZYyze.s 			page 49


 2106 0628 E38C07FC 		beqz	a5,.L94
 178:test/Threads_CPP_API_test.cpp ****         Thread::dispatch();
 2107              		.loc 2 178 53 discriminator 6
 2108 062c 97070000 		lbu	a5,.LANCHOR0+3
 2108      83C70700 
 178:test/Threads_CPP_API_test.cpp ****         Thread::dispatch();
 2109              		.loc 2 178 12 discriminator 6
 2110 0634 E38607FC 		beqz	a5,.L94
 2111 0638 930404FC 		addi	s1,s0,-64
 2112              	.LVL215:
 2113 063c 6F008000 		j	.L95
 2114              	.LVL216:
 2115              	.L97:
 2116              	.LBB254:
 180:test/Threads_CPP_API_test.cpp ****     }
 181:test/Threads_CPP_API_test.cpp **** 
 182:test/Threads_CPP_API_test.cpp ****     for (auto thread: threads) { delete thread; }
 2117              		.loc 2 182 5 is_stmt 1 discriminator 5
 2118 0640 93848400 		addi	s1,s1,8
 2119              	.LVL217:
 2120              	.L95:
 2121              		.loc 2 182 23 discriminator 6
 2122 0644 930704FE 		addi	a5,s0,-32
 2123 0648 638EF400 		beq	s1,a5,.L91
 2124              		.loc 2 182 15 is_stmt 0 discriminator 2
 2125 064c 03B50400 		ld	a0,0(s1)
 2126              	.LVL218:
 2127              		.loc 2 182 34 is_stmt 1 discriminator 2
 2128              		.loc 2 182 47 is_stmt 0 discriminator 2
 2129 0650 E30805FE 		beqz	a0,.L97
 2130              		.loc 2 182 41 discriminator 3
 2131 0654 83370500 		ld	a5,0(a0)
 2132 0658 83B78700 		ld	a5,8(a5)
 2133 065c E7800700 		jalr	a5
 2134              	.LVL219:
 2135 0660 6FF01FFE 		j	.L97
 2136              	.L91:
 2137              	.LBE254:
 183:test/Threads_CPP_API_test.cpp **** }
 2138              		.loc 2 183 1
 2139 0664 83308103 		ld	ra,56(sp)
 2140              		.cfi_restore 1
 2141 0668 03340103 		ld	s0,48(sp)
 2142              		.cfi_restore 8
 2143              		.cfi_def_cfa 2, 64
 2144 066c 83348102 		ld	s1,40(sp)
 2145              		.cfi_restore 9
 2146              	.LVL220:
 2147 0670 13010104 		addi	sp,sp,64
 2148              		.cfi_def_cfa_offset 0
 2149 0674 67800000 		jr	ra
 2150              		.cfi_endproc
 2151              	.LFE69:
 2153              		.weak	_ZTV6Thread
 2154              		.section	.data.rel.ro.local._ZTV6Thread,"awG",@progbits,_ZTV6Thread,comdat
 2155              		.align	3
 2158              	_ZTV6Thread:
GAS LISTING /tmp/cc6ZYyze.s 			page 50


 2159 0000 00000000 		.dword	0
 2159      00000000 
 2160 0008 00000000 		.dword	0
 2160      00000000 
 2161 0010 00000000 		.dword	_ZN6ThreadD1Ev
 2161      00000000 
 2162 0018 00000000 		.dword	_ZN6ThreadD0Ev
 2162      00000000 
 2163 0020 00000000 		.dword	_ZN6Thread3runEv
 2163      00000000 
 2164              		.weak	_ZTV7WorkerA
 2165              		.section	.data.rel.ro.local._ZTV7WorkerA,"awG",@progbits,_ZTV7WorkerA,comdat
 2166              		.align	3
 2169              	_ZTV7WorkerA:
 2170 0000 00000000 		.dword	0
 2170      00000000 
 2171 0008 00000000 		.dword	0
 2171      00000000 
 2172 0010 00000000 		.dword	_ZN7WorkerAD1Ev
 2172      00000000 
 2173 0018 00000000 		.dword	_ZN7WorkerAD0Ev
 2173      00000000 
 2174 0020 00000000 		.dword	_ZN7WorkerA3runEv
 2174      00000000 
 2175              		.weak	_ZTV7WorkerB
 2176              		.section	.data.rel.ro.local._ZTV7WorkerB,"awG",@progbits,_ZTV7WorkerB,comdat
 2177              		.align	3
 2180              	_ZTV7WorkerB:
 2181 0000 00000000 		.dword	0
 2181      00000000 
 2182 0008 00000000 		.dword	0
 2182      00000000 
 2183 0010 00000000 		.dword	_ZN7WorkerBD1Ev
 2183      00000000 
 2184 0018 00000000 		.dword	_ZN7WorkerBD0Ev
 2184      00000000 
 2185 0020 00000000 		.dword	_ZN7WorkerB3runEv
 2185      00000000 
 2186              		.weak	_ZTV7WorkerC
 2187              		.section	.data.rel.ro.local._ZTV7WorkerC,"awG",@progbits,_ZTV7WorkerC,comdat
 2188              		.align	3
 2191              	_ZTV7WorkerC:
 2192 0000 00000000 		.dword	0
 2192      00000000 
 2193 0008 00000000 		.dword	0
 2193      00000000 
 2194 0010 00000000 		.dword	_ZN7WorkerCD1Ev
 2194      00000000 
 2195 0018 00000000 		.dword	_ZN7WorkerCD0Ev
 2195      00000000 
 2196 0020 00000000 		.dword	_ZN7WorkerC3runEv
 2196      00000000 
 2197              		.weak	_ZTV7WorkerD
 2198              		.section	.data.rel.ro.local._ZTV7WorkerD,"awG",@progbits,_ZTV7WorkerD,comdat
 2199              		.align	3
 2202              	_ZTV7WorkerD:
 2203 0000 00000000 		.dword	0
GAS LISTING /tmp/cc6ZYyze.s 			page 51


 2203      00000000 
 2204 0008 00000000 		.dword	0
 2204      00000000 
 2205 0010 00000000 		.dword	_ZN7WorkerDD1Ev
 2205      00000000 
 2206 0018 00000000 		.dword	_ZN7WorkerDD0Ev
 2206      00000000 
 2207 0020 00000000 		.dword	_ZN7WorkerD3runEv
 2207      00000000 
 2208              		.bss
 2209              		.set	.LANCHOR0,. + 0
 2212              	_ZL9finishedA:
 2213 0000 00       		.zero	1
 2216              	_ZL9finishedB:
 2217 0001 00       		.zero	1
 2220              	_ZL9finishedC:
 2221 0002 00       		.zero	1
 2224              	_ZL9finishedD:
 2225 0003 00       		.zero	1
 2226              		.text
 2227              	.Letext0:
 2228              		.file 4 "test/../h/../lib/hw.h"
 2229              		.file 5 "test/../h/../h/syscall_c.hpp"
 2230              		.file 6 "test/printing.hpp"
 8152              		.align	3
 8155              	DW.ref.__gxx_personality_v0:
 8156 0000 00000000 		.dword	__gxx_personality_v0
 8156      00000000 
 8157              		.ident	"GCC: (Ubuntu 9.4.0-1ubuntu1~20.04) 9.4.0"
 8158              		.section	.note.GNU-stack,"",@progbits
GAS LISTING /tmp/cc6ZYyze.s 			page 52


DEFINED SYMBOLS
                            *ABS*:0000000000000000 Threads_CPP_API_test.cpp
     /tmp/cc6ZYyze.s:10     .text._ZN6Thread3runEv:0000000000000000 _ZN6Thread3runEv
     /tmp/cc6ZYyze.s:14     .text._ZN6Thread3runEv:0000000000000000 .L0 
     /tmp/cc6ZYyze.s:16     .text._ZN6Thread3runEv:0000000000000000 .L0 
     /tmp/cc6ZYyze.s:17     .text._ZN6Thread3runEv:0000000000000004 .L0 
     /tmp/cc6ZYyze.s:19     .text._ZN6Thread3runEv:0000000000000008 .L0 
     /tmp/cc6ZYyze.s:21     .text._ZN6Thread3runEv:000000000000000c .L0 
     /tmp/cc6ZYyze.s:23     .text._ZN6Thread3runEv:000000000000000c .L0 
     /tmp/cc6ZYyze.s:24     .text._ZN6Thread3runEv:0000000000000010 .L0 
     /tmp/cc6ZYyze.s:25     .text._ZN6Thread3runEv:0000000000000010 .L0 
     /tmp/cc6ZYyze.s:27     .text._ZN6Thread3runEv:0000000000000014 .L0 
     /tmp/cc6ZYyze.s:29     .text._ZN6Thread3runEv:0000000000000018 .L0 
     /tmp/cc6ZYyze.s:36     .text._ZN6Thread14thread_wrapperEPv:0000000000000000 _ZN6Thread14thread_wrapperEPv
     /tmp/cc6ZYyze.s:39     .text._ZN6Thread14thread_wrapperEPv:0000000000000000 .L0 
     /tmp/cc6ZYyze.s:41     .text._ZN6Thread14thread_wrapperEPv:0000000000000000 .L0 
     /tmp/cc6ZYyze.s:42     .text._ZN6Thread14thread_wrapperEPv:0000000000000004 .L0 
     /tmp/cc6ZYyze.s:45     .text._ZN6Thread14thread_wrapperEPv:000000000000000c .L0 
     /tmp/cc6ZYyze.s:46     .text._ZN6Thread14thread_wrapperEPv:000000000000000c .L0 
     /tmp/cc6ZYyze.s:48     .text._ZN6Thread14thread_wrapperEPv:0000000000000010 .L0 
     /tmp/cc6ZYyze.s:50     .text._ZN6Thread14thread_wrapperEPv:0000000000000010 .L0 
     /tmp/cc6ZYyze.s:51     .text._ZN6Thread14thread_wrapperEPv:0000000000000010 .L0 
     /tmp/cc6ZYyze.s:54     .text._ZN6Thread14thread_wrapperEPv:0000000000000018 .L0 
     /tmp/cc6ZYyze.s:57     .text._ZN6Thread14thread_wrapperEPv:000000000000001c .L0 
     /tmp/cc6ZYyze.s:58     .text._ZN6Thread14thread_wrapperEPv:0000000000000020 .L0 
     /tmp/cc6ZYyze.s:60     .text._ZN6Thread14thread_wrapperEPv:0000000000000024 .L0 
     /tmp/cc6ZYyze.s:61     .text._ZN6Thread14thread_wrapperEPv:0000000000000024 .L0 
     /tmp/cc6ZYyze.s:63     .text._ZN6Thread14thread_wrapperEPv:0000000000000028 .L0 
     /tmp/cc6ZYyze.s:65     .text._ZN6Thread14thread_wrapperEPv:000000000000002c .L0 
     /tmp/cc6ZYyze.s:71     .text:0000000000000000 _ZL9fibonaccim
     /tmp/cc6ZYyze.s:75     .text:0000000000000000 .L0 
     /tmp/cc6ZYyze.s:77     .text:0000000000000000 .L0 
     /tmp/cc6ZYyze.s:78     .text:0000000000000004 .L0 
     /tmp/cc6ZYyze.s:83     .text:0000000000000014 .L0 
     /tmp/cc6ZYyze.s:84     .text:0000000000000014 .L0 
     /tmp/cc6ZYyze.s:85     .text:0000000000000014 .L0 
     /tmp/cc6ZYyze.s:86     .text:0000000000000014 .L0 
     /tmp/cc6ZYyze.s:88     .text:0000000000000018 .L0 
     /tmp/cc6ZYyze.s:91     .text:000000000000001c .L0 
     /tmp/cc6ZYyze.s:94     .text:0000000000000024 .L0 
     /tmp/cc6ZYyze.s:95     .text:0000000000000024 .L0 
     /tmp/cc6ZYyze.s:98     .text:000000000000002c .L0 
     /tmp/cc6ZYyze.s:102    .text:0000000000000030 .L0 
     /tmp/cc6ZYyze.s:103    .text:0000000000000030 .L0 
     /tmp/cc6ZYyze.s:108    .text:0000000000000040 .L0 
     /tmp/cc6ZYyze.s:112    .text:000000000000004c .L0 
     /tmp/cc6ZYyze.s:115    .text:0000000000000050 .L0 
     /tmp/cc6ZYyze.s:116    .text:0000000000000054 .L0 
     /tmp/cc6ZYyze.s:117    .text:0000000000000054 .L0 
     /tmp/cc6ZYyze.s:119    .text:0000000000000058 .L0 
     /tmp/cc6ZYyze.s:120    .text:0000000000000058 .L0 
     /tmp/cc6ZYyze.s:122    .text:000000000000005c .L0 
     /tmp/cc6ZYyze.s:125    .text:0000000000000060 .L0 
     /tmp/cc6ZYyze.s:127    .text:0000000000000064 .L0 
     /tmp/cc6ZYyze.s:131    .text:0000000000000068 .L0 
     /tmp/cc6ZYyze.s:133    .text:0000000000000068 .L0 
     /tmp/cc6ZYyze.s:134    .text:0000000000000068 .L0 
GAS LISTING /tmp/cc6ZYyze.s 			page 53


     /tmp/cc6ZYyze.s:137    .text:0000000000000074 .L0 
     /tmp/cc6ZYyze.s:144    .text._ZN6ThreadD2Ev:0000000000000000 _ZN6ThreadD2Ev
     /tmp/cc6ZYyze.s:147    .text._ZN6ThreadD2Ev:0000000000000000 .L0 
     /tmp/cc6ZYyze.s:8155   .data.rel.local.DW.ref.__gxx_personality_v0:0000000000000000 DW.ref.__gxx_personality_v0
     /tmp/cc6ZYyze.s:151    .text._ZN6ThreadD2Ev:0000000000000000 .L0 
     /tmp/cc6ZYyze.s:152    .text._ZN6ThreadD2Ev:0000000000000004 .L0 
     /tmp/cc6ZYyze.s:156    .text._ZN6ThreadD2Ev:0000000000000010 .L0 
     /tmp/cc6ZYyze.s:157    .text._ZN6ThreadD2Ev:0000000000000010 .L0 
     /tmp/cc6ZYyze.s:158    .text._ZN6ThreadD2Ev:0000000000000010 .L0 
     /tmp/cc6ZYyze.s:160    .text._ZN6ThreadD2Ev:0000000000000014 .L0 
     /tmp/cc6ZYyze.s:2158   .data.rel.ro.local._ZTV6Thread:0000000000000000 _ZTV6Thread
     /tmp/cc6ZYyze.s:163    .text._ZN6ThreadD2Ev:0000000000000014 .L0 
     /tmp/cc6ZYyze.s:166    .text._ZN6ThreadD2Ev:0000000000000020 .L0 
     /tmp/cc6ZYyze.s:172    .text._ZN6ThreadD2Ev:0000000000000024 .L0 
     /tmp/cc6ZYyze.s:173    .text._ZN6ThreadD2Ev:0000000000000024 .L0 
     /tmp/cc6ZYyze.s:179    .text._ZN6ThreadD2Ev:000000000000002c .L0 
     /tmp/cc6ZYyze.s:180    .text._ZN6ThreadD2Ev:000000000000002c .L0 
     /tmp/cc6ZYyze.s:182    .text._ZN6ThreadD2Ev:0000000000000030 .L0 
     /tmp/cc6ZYyze.s:187    .text._ZN6ThreadD2Ev:0000000000000034 .L0 
     /tmp/cc6ZYyze.s:188    .text._ZN6ThreadD2Ev:0000000000000034 .L0 
     /tmp/cc6ZYyze.s:191    .text._ZN6ThreadD2Ev:0000000000000038 .L0 
     /tmp/cc6ZYyze.s:193    .text._ZN6ThreadD2Ev:000000000000003c .L0 
     /tmp/cc6ZYyze.s:199    .text._ZN6ThreadD2Ev:0000000000000044 .L0 
     /tmp/cc6ZYyze.s:205    .text._ZN6ThreadD2Ev:0000000000000050 .L0 
     /tmp/cc6ZYyze.s:206    .text._ZN6ThreadD2Ev:0000000000000054 .L0 
     /tmp/cc6ZYyze.s:208    .text._ZN6ThreadD2Ev:0000000000000058 .L0 
     /tmp/cc6ZYyze.s:209    .text._ZN6ThreadD2Ev:0000000000000058 .L0 
     /tmp/cc6ZYyze.s:211    .text._ZN6ThreadD2Ev:000000000000005c .L0 
     /tmp/cc6ZYyze.s:213    .text._ZN6ThreadD2Ev:0000000000000060 .L0 
     /tmp/cc6ZYyze.s:215    .text._ZN6ThreadD2Ev:0000000000000064 .L0 
     /tmp/cc6ZYyze.s:144    .text._ZN6ThreadD2Ev:0000000000000000 _ZN6ThreadD1Ev
     /tmp/cc6ZYyze.s:232    .text._ZN7WorkerAD2Ev:0000000000000000 _ZN7WorkerAD2Ev
     /tmp/cc6ZYyze.s:235    .text._ZN7WorkerAD2Ev:0000000000000000 .L0 
     /tmp/cc6ZYyze.s:239    .text._ZN7WorkerAD2Ev:0000000000000000 .L0 
     /tmp/cc6ZYyze.s:240    .text._ZN7WorkerAD2Ev:0000000000000004 .L0 
     /tmp/cc6ZYyze.s:244    .text._ZN7WorkerAD2Ev:0000000000000010 .L0 
     /tmp/cc6ZYyze.s:245    .text._ZN7WorkerAD2Ev:0000000000000010 .L0 
     /tmp/cc6ZYyze.s:246    .text._ZN7WorkerAD2Ev:0000000000000010 .L0 
     /tmp/cc6ZYyze.s:248    .text._ZN7WorkerAD2Ev:0000000000000014 .L0 
     /tmp/cc6ZYyze.s:254    .text._ZN7WorkerAD2Ev:0000000000000014 .L0 
     /tmp/cc6ZYyze.s:257    .text._ZN7WorkerAD2Ev:0000000000000020 .L0 
     /tmp/cc6ZYyze.s:262    .text._ZN7WorkerAD2Ev:0000000000000024 .L0 
     /tmp/cc6ZYyze.s:263    .text._ZN7WorkerAD2Ev:0000000000000024 .L0 
     /tmp/cc6ZYyze.s:269    .text._ZN7WorkerAD2Ev:000000000000002c .L0 
     /tmp/cc6ZYyze.s:270    .text._ZN7WorkerAD2Ev:000000000000002c .L0 
     /tmp/cc6ZYyze.s:272    .text._ZN7WorkerAD2Ev:0000000000000030 .L0 
     /tmp/cc6ZYyze.s:277    .text._ZN7WorkerAD2Ev:0000000000000034 .L0 
     /tmp/cc6ZYyze.s:278    .text._ZN7WorkerAD2Ev:0000000000000034 .L0 
     /tmp/cc6ZYyze.s:281    .text._ZN7WorkerAD2Ev:0000000000000038 .L0 
     /tmp/cc6ZYyze.s:283    .text._ZN7WorkerAD2Ev:000000000000003c .L0 
     /tmp/cc6ZYyze.s:289    .text._ZN7WorkerAD2Ev:0000000000000044 .L0 
     /tmp/cc6ZYyze.s:297    .text._ZN7WorkerAD2Ev:0000000000000050 .L0 
     /tmp/cc6ZYyze.s:298    .text._ZN7WorkerAD2Ev:0000000000000054 .L0 
     /tmp/cc6ZYyze.s:300    .text._ZN7WorkerAD2Ev:0000000000000058 .L0 
     /tmp/cc6ZYyze.s:301    .text._ZN7WorkerAD2Ev:0000000000000058 .L0 
     /tmp/cc6ZYyze.s:303    .text._ZN7WorkerAD2Ev:000000000000005c .L0 
     /tmp/cc6ZYyze.s:305    .text._ZN7WorkerAD2Ev:0000000000000060 .L0 
GAS LISTING /tmp/cc6ZYyze.s 			page 54


     /tmp/cc6ZYyze.s:307    .text._ZN7WorkerAD2Ev:0000000000000064 .L0 
     /tmp/cc6ZYyze.s:232    .text._ZN7WorkerAD2Ev:0000000000000000 _ZN7WorkerAD1Ev
     /tmp/cc6ZYyze.s:323    .text._ZN7WorkerDD2Ev:0000000000000000 _ZN7WorkerDD2Ev
     /tmp/cc6ZYyze.s:326    .text._ZN7WorkerDD2Ev:0000000000000000 .L0 
     /tmp/cc6ZYyze.s:330    .text._ZN7WorkerDD2Ev:0000000000000000 .L0 
     /tmp/cc6ZYyze.s:331    .text._ZN7WorkerDD2Ev:0000000000000004 .L0 
     /tmp/cc6ZYyze.s:335    .text._ZN7WorkerDD2Ev:0000000000000010 .L0 
     /tmp/cc6ZYyze.s:336    .text._ZN7WorkerDD2Ev:0000000000000010 .L0 
     /tmp/cc6ZYyze.s:337    .text._ZN7WorkerDD2Ev:0000000000000010 .L0 
     /tmp/cc6ZYyze.s:339    .text._ZN7WorkerDD2Ev:0000000000000014 .L0 
     /tmp/cc6ZYyze.s:345    .text._ZN7WorkerDD2Ev:0000000000000014 .L0 
     /tmp/cc6ZYyze.s:348    .text._ZN7WorkerDD2Ev:0000000000000020 .L0 
     /tmp/cc6ZYyze.s:353    .text._ZN7WorkerDD2Ev:0000000000000024 .L0 
     /tmp/cc6ZYyze.s:354    .text._ZN7WorkerDD2Ev:0000000000000024 .L0 
     /tmp/cc6ZYyze.s:360    .text._ZN7WorkerDD2Ev:000000000000002c .L0 
     /tmp/cc6ZYyze.s:361    .text._ZN7WorkerDD2Ev:000000000000002c .L0 
     /tmp/cc6ZYyze.s:363    .text._ZN7WorkerDD2Ev:0000000000000030 .L0 
     /tmp/cc6ZYyze.s:368    .text._ZN7WorkerDD2Ev:0000000000000034 .L0 
     /tmp/cc6ZYyze.s:369    .text._ZN7WorkerDD2Ev:0000000000000034 .L0 
     /tmp/cc6ZYyze.s:372    .text._ZN7WorkerDD2Ev:0000000000000038 .L0 
     /tmp/cc6ZYyze.s:374    .text._ZN7WorkerDD2Ev:000000000000003c .L0 
     /tmp/cc6ZYyze.s:380    .text._ZN7WorkerDD2Ev:0000000000000044 .L0 
     /tmp/cc6ZYyze.s:388    .text._ZN7WorkerDD2Ev:0000000000000050 .L0 
     /tmp/cc6ZYyze.s:389    .text._ZN7WorkerDD2Ev:0000000000000054 .L0 
     /tmp/cc6ZYyze.s:391    .text._ZN7WorkerDD2Ev:0000000000000058 .L0 
     /tmp/cc6ZYyze.s:392    .text._ZN7WorkerDD2Ev:0000000000000058 .L0 
     /tmp/cc6ZYyze.s:394    .text._ZN7WorkerDD2Ev:000000000000005c .L0 
     /tmp/cc6ZYyze.s:396    .text._ZN7WorkerDD2Ev:0000000000000060 .L0 
     /tmp/cc6ZYyze.s:398    .text._ZN7WorkerDD2Ev:0000000000000064 .L0 
     /tmp/cc6ZYyze.s:323    .text._ZN7WorkerDD2Ev:0000000000000000 _ZN7WorkerDD1Ev
     /tmp/cc6ZYyze.s:414    .text._ZN7WorkerCD2Ev:0000000000000000 _ZN7WorkerCD2Ev
     /tmp/cc6ZYyze.s:417    .text._ZN7WorkerCD2Ev:0000000000000000 .L0 
     /tmp/cc6ZYyze.s:421    .text._ZN7WorkerCD2Ev:0000000000000000 .L0 
     /tmp/cc6ZYyze.s:422    .text._ZN7WorkerCD2Ev:0000000000000004 .L0 
     /tmp/cc6ZYyze.s:426    .text._ZN7WorkerCD2Ev:0000000000000010 .L0 
     /tmp/cc6ZYyze.s:427    .text._ZN7WorkerCD2Ev:0000000000000010 .L0 
     /tmp/cc6ZYyze.s:428    .text._ZN7WorkerCD2Ev:0000000000000010 .L0 
     /tmp/cc6ZYyze.s:430    .text._ZN7WorkerCD2Ev:0000000000000014 .L0 
     /tmp/cc6ZYyze.s:436    .text._ZN7WorkerCD2Ev:0000000000000014 .L0 
     /tmp/cc6ZYyze.s:439    .text._ZN7WorkerCD2Ev:0000000000000020 .L0 
     /tmp/cc6ZYyze.s:444    .text._ZN7WorkerCD2Ev:0000000000000024 .L0 
     /tmp/cc6ZYyze.s:445    .text._ZN7WorkerCD2Ev:0000000000000024 .L0 
     /tmp/cc6ZYyze.s:451    .text._ZN7WorkerCD2Ev:000000000000002c .L0 
     /tmp/cc6ZYyze.s:452    .text._ZN7WorkerCD2Ev:000000000000002c .L0 
     /tmp/cc6ZYyze.s:454    .text._ZN7WorkerCD2Ev:0000000000000030 .L0 
     /tmp/cc6ZYyze.s:459    .text._ZN7WorkerCD2Ev:0000000000000034 .L0 
     /tmp/cc6ZYyze.s:460    .text._ZN7WorkerCD2Ev:0000000000000034 .L0 
     /tmp/cc6ZYyze.s:463    .text._ZN7WorkerCD2Ev:0000000000000038 .L0 
     /tmp/cc6ZYyze.s:465    .text._ZN7WorkerCD2Ev:000000000000003c .L0 
     /tmp/cc6ZYyze.s:471    .text._ZN7WorkerCD2Ev:0000000000000044 .L0 
     /tmp/cc6ZYyze.s:479    .text._ZN7WorkerCD2Ev:0000000000000050 .L0 
     /tmp/cc6ZYyze.s:480    .text._ZN7WorkerCD2Ev:0000000000000054 .L0 
     /tmp/cc6ZYyze.s:482    .text._ZN7WorkerCD2Ev:0000000000000058 .L0 
     /tmp/cc6ZYyze.s:483    .text._ZN7WorkerCD2Ev:0000000000000058 .L0 
     /tmp/cc6ZYyze.s:485    .text._ZN7WorkerCD2Ev:000000000000005c .L0 
     /tmp/cc6ZYyze.s:487    .text._ZN7WorkerCD2Ev:0000000000000060 .L0 
     /tmp/cc6ZYyze.s:489    .text._ZN7WorkerCD2Ev:0000000000000064 .L0 
GAS LISTING /tmp/cc6ZYyze.s 			page 55


     /tmp/cc6ZYyze.s:414    .text._ZN7WorkerCD2Ev:0000000000000000 _ZN7WorkerCD1Ev
     /tmp/cc6ZYyze.s:505    .text._ZN7WorkerBD2Ev:0000000000000000 _ZN7WorkerBD2Ev
     /tmp/cc6ZYyze.s:508    .text._ZN7WorkerBD2Ev:0000000000000000 .L0 
     /tmp/cc6ZYyze.s:512    .text._ZN7WorkerBD2Ev:0000000000000000 .L0 
     /tmp/cc6ZYyze.s:513    .text._ZN7WorkerBD2Ev:0000000000000004 .L0 
     /tmp/cc6ZYyze.s:517    .text._ZN7WorkerBD2Ev:0000000000000010 .L0 
     /tmp/cc6ZYyze.s:518    .text._ZN7WorkerBD2Ev:0000000000000010 .L0 
     /tmp/cc6ZYyze.s:519    .text._ZN7WorkerBD2Ev:0000000000000010 .L0 
     /tmp/cc6ZYyze.s:521    .text._ZN7WorkerBD2Ev:0000000000000014 .L0 
     /tmp/cc6ZYyze.s:527    .text._ZN7WorkerBD2Ev:0000000000000014 .L0 
     /tmp/cc6ZYyze.s:530    .text._ZN7WorkerBD2Ev:0000000000000020 .L0 
     /tmp/cc6ZYyze.s:535    .text._ZN7WorkerBD2Ev:0000000000000024 .L0 
     /tmp/cc6ZYyze.s:536    .text._ZN7WorkerBD2Ev:0000000000000024 .L0 
     /tmp/cc6ZYyze.s:542    .text._ZN7WorkerBD2Ev:000000000000002c .L0 
     /tmp/cc6ZYyze.s:543    .text._ZN7WorkerBD2Ev:000000000000002c .L0 
     /tmp/cc6ZYyze.s:545    .text._ZN7WorkerBD2Ev:0000000000000030 .L0 
     /tmp/cc6ZYyze.s:550    .text._ZN7WorkerBD2Ev:0000000000000034 .L0 
     /tmp/cc6ZYyze.s:551    .text._ZN7WorkerBD2Ev:0000000000000034 .L0 
     /tmp/cc6ZYyze.s:554    .text._ZN7WorkerBD2Ev:0000000000000038 .L0 
     /tmp/cc6ZYyze.s:556    .text._ZN7WorkerBD2Ev:000000000000003c .L0 
     /tmp/cc6ZYyze.s:562    .text._ZN7WorkerBD2Ev:0000000000000044 .L0 
     /tmp/cc6ZYyze.s:570    .text._ZN7WorkerBD2Ev:0000000000000050 .L0 
     /tmp/cc6ZYyze.s:571    .text._ZN7WorkerBD2Ev:0000000000000054 .L0 
     /tmp/cc6ZYyze.s:573    .text._ZN7WorkerBD2Ev:0000000000000058 .L0 
     /tmp/cc6ZYyze.s:574    .text._ZN7WorkerBD2Ev:0000000000000058 .L0 
     /tmp/cc6ZYyze.s:576    .text._ZN7WorkerBD2Ev:000000000000005c .L0 
     /tmp/cc6ZYyze.s:578    .text._ZN7WorkerBD2Ev:0000000000000060 .L0 
     /tmp/cc6ZYyze.s:580    .text._ZN7WorkerBD2Ev:0000000000000064 .L0 
     /tmp/cc6ZYyze.s:505    .text._ZN7WorkerBD2Ev:0000000000000000 _ZN7WorkerBD1Ev
     /tmp/cc6ZYyze.s:596    .text._ZN6ThreadD0Ev:0000000000000000 _ZN6ThreadD0Ev
     /tmp/cc6ZYyze.s:599    .text._ZN6ThreadD0Ev:0000000000000000 .L0 
     /tmp/cc6ZYyze.s:603    .text._ZN6ThreadD0Ev:0000000000000000 .L0 
     /tmp/cc6ZYyze.s:604    .text._ZN6ThreadD0Ev:0000000000000004 .L0 
     /tmp/cc6ZYyze.s:609    .text._ZN6ThreadD0Ev:0000000000000014 .L0 
     /tmp/cc6ZYyze.s:610    .text._ZN6ThreadD0Ev:0000000000000014 .L0 
     /tmp/cc6ZYyze.s:611    .text._ZN6ThreadD0Ev:0000000000000014 .L0 
     /tmp/cc6ZYyze.s:612    .text._ZN6ThreadD0Ev:0000000000000014 .L0 
     /tmp/cc6ZYyze.s:614    .text._ZN6ThreadD0Ev:0000000000000018 .L0 
     /tmp/cc6ZYyze.s:620    .text._ZN6ThreadD0Ev:000000000000001c .L0 
     /tmp/cc6ZYyze.s:623    .text._ZN6ThreadD0Ev:0000000000000028 .L0 
     /tmp/cc6ZYyze.s:628    .text._ZN6ThreadD0Ev:000000000000002c .L0 
     /tmp/cc6ZYyze.s:629    .text._ZN6ThreadD0Ev:000000000000002c .L0 
     /tmp/cc6ZYyze.s:635    .text._ZN6ThreadD0Ev:0000000000000034 .L0 
     /tmp/cc6ZYyze.s:636    .text._ZN6ThreadD0Ev:0000000000000034 .L0 
     /tmp/cc6ZYyze.s:638    .text._ZN6ThreadD0Ev:0000000000000038 .L0 
     /tmp/cc6ZYyze.s:643    .text._ZN6ThreadD0Ev:000000000000003c .L0 
     /tmp/cc6ZYyze.s:644    .text._ZN6ThreadD0Ev:000000000000003c .L0 
     /tmp/cc6ZYyze.s:647    .text._ZN6ThreadD0Ev:0000000000000040 .L0 
     /tmp/cc6ZYyze.s:649    .text._ZN6ThreadD0Ev:0000000000000044 .L0 
     /tmp/cc6ZYyze.s:655    .text._ZN6ThreadD0Ev:000000000000004c .L0 
     /tmp/cc6ZYyze.s:662    .text._ZN6ThreadD0Ev:0000000000000058 .L0 
     /tmp/cc6ZYyze.s:668    .text._ZN6ThreadD0Ev:0000000000000068 .L0 
     /tmp/cc6ZYyze.s:670    .text._ZN6ThreadD0Ev:000000000000006c .L0 
     /tmp/cc6ZYyze.s:671    .text._ZN6ThreadD0Ev:000000000000006c .L0 
     /tmp/cc6ZYyze.s:673    .text._ZN6ThreadD0Ev:0000000000000070 .L0 
     /tmp/cc6ZYyze.s:676    .text._ZN6ThreadD0Ev:0000000000000074 .L0 
     /tmp/cc6ZYyze.s:678    .text._ZN6ThreadD0Ev:0000000000000078 .L0 
GAS LISTING /tmp/cc6ZYyze.s 			page 56


     /tmp/cc6ZYyze.s:680    .text._ZN6ThreadD0Ev:000000000000007c .L0 
     /tmp/cc6ZYyze.s:698    .text._ZN7WorkerBD0Ev:0000000000000000 _ZN7WorkerBD0Ev
     /tmp/cc6ZYyze.s:701    .text._ZN7WorkerBD0Ev:0000000000000000 .L0 
     /tmp/cc6ZYyze.s:705    .text._ZN7WorkerBD0Ev:0000000000000000 .L0 
     /tmp/cc6ZYyze.s:706    .text._ZN7WorkerBD0Ev:0000000000000004 .L0 
     /tmp/cc6ZYyze.s:711    .text._ZN7WorkerBD0Ev:0000000000000014 .L0 
     /tmp/cc6ZYyze.s:712    .text._ZN7WorkerBD0Ev:0000000000000014 .L0 
     /tmp/cc6ZYyze.s:713    .text._ZN7WorkerBD0Ev:0000000000000014 .L0 
     /tmp/cc6ZYyze.s:714    .text._ZN7WorkerBD0Ev:0000000000000014 .L0 
     /tmp/cc6ZYyze.s:716    .text._ZN7WorkerBD0Ev:0000000000000018 .L0 
     /tmp/cc6ZYyze.s:724    .text._ZN7WorkerBD0Ev:000000000000001c .L0 
     /tmp/cc6ZYyze.s:727    .text._ZN7WorkerBD0Ev:0000000000000028 .L0 
     /tmp/cc6ZYyze.s:732    .text._ZN7WorkerBD0Ev:000000000000002c .L0 
     /tmp/cc6ZYyze.s:733    .text._ZN7WorkerBD0Ev:000000000000002c .L0 
     /tmp/cc6ZYyze.s:739    .text._ZN7WorkerBD0Ev:0000000000000034 .L0 
     /tmp/cc6ZYyze.s:740    .text._ZN7WorkerBD0Ev:0000000000000034 .L0 
     /tmp/cc6ZYyze.s:742    .text._ZN7WorkerBD0Ev:0000000000000038 .L0 
     /tmp/cc6ZYyze.s:747    .text._ZN7WorkerBD0Ev:000000000000003c .L0 
     /tmp/cc6ZYyze.s:748    .text._ZN7WorkerBD0Ev:000000000000003c .L0 
     /tmp/cc6ZYyze.s:751    .text._ZN7WorkerBD0Ev:0000000000000040 .L0 
     /tmp/cc6ZYyze.s:753    .text._ZN7WorkerBD0Ev:0000000000000044 .L0 
     /tmp/cc6ZYyze.s:759    .text._ZN7WorkerBD0Ev:000000000000004c .L0 
     /tmp/cc6ZYyze.s:768    .text._ZN7WorkerBD0Ev:0000000000000058 .L0 
     /tmp/cc6ZYyze.s:774    .text._ZN7WorkerBD0Ev:0000000000000068 .L0 
     /tmp/cc6ZYyze.s:776    .text._ZN7WorkerBD0Ev:000000000000006c .L0 
     /tmp/cc6ZYyze.s:777    .text._ZN7WorkerBD0Ev:000000000000006c .L0 
     /tmp/cc6ZYyze.s:779    .text._ZN7WorkerBD0Ev:0000000000000070 .L0 
     /tmp/cc6ZYyze.s:782    .text._ZN7WorkerBD0Ev:0000000000000074 .L0 
     /tmp/cc6ZYyze.s:784    .text._ZN7WorkerBD0Ev:0000000000000078 .L0 
     /tmp/cc6ZYyze.s:786    .text._ZN7WorkerBD0Ev:000000000000007c .L0 
     /tmp/cc6ZYyze.s:804    .text._ZN7WorkerAD0Ev:0000000000000000 _ZN7WorkerAD0Ev
     /tmp/cc6ZYyze.s:807    .text._ZN7WorkerAD0Ev:0000000000000000 .L0 
     /tmp/cc6ZYyze.s:811    .text._ZN7WorkerAD0Ev:0000000000000000 .L0 
     /tmp/cc6ZYyze.s:812    .text._ZN7WorkerAD0Ev:0000000000000004 .L0 
     /tmp/cc6ZYyze.s:817    .text._ZN7WorkerAD0Ev:0000000000000014 .L0 
     /tmp/cc6ZYyze.s:818    .text._ZN7WorkerAD0Ev:0000000000000014 .L0 
     /tmp/cc6ZYyze.s:819    .text._ZN7WorkerAD0Ev:0000000000000014 .L0 
     /tmp/cc6ZYyze.s:820    .text._ZN7WorkerAD0Ev:0000000000000014 .L0 
     /tmp/cc6ZYyze.s:822    .text._ZN7WorkerAD0Ev:0000000000000018 .L0 
     /tmp/cc6ZYyze.s:830    .text._ZN7WorkerAD0Ev:000000000000001c .L0 
     /tmp/cc6ZYyze.s:833    .text._ZN7WorkerAD0Ev:0000000000000028 .L0 
     /tmp/cc6ZYyze.s:838    .text._ZN7WorkerAD0Ev:000000000000002c .L0 
     /tmp/cc6ZYyze.s:839    .text._ZN7WorkerAD0Ev:000000000000002c .L0 
     /tmp/cc6ZYyze.s:845    .text._ZN7WorkerAD0Ev:0000000000000034 .L0 
     /tmp/cc6ZYyze.s:846    .text._ZN7WorkerAD0Ev:0000000000000034 .L0 
     /tmp/cc6ZYyze.s:848    .text._ZN7WorkerAD0Ev:0000000000000038 .L0 
     /tmp/cc6ZYyze.s:853    .text._ZN7WorkerAD0Ev:000000000000003c .L0 
     /tmp/cc6ZYyze.s:854    .text._ZN7WorkerAD0Ev:000000000000003c .L0 
     /tmp/cc6ZYyze.s:857    .text._ZN7WorkerAD0Ev:0000000000000040 .L0 
     /tmp/cc6ZYyze.s:859    .text._ZN7WorkerAD0Ev:0000000000000044 .L0 
     /tmp/cc6ZYyze.s:865    .text._ZN7WorkerAD0Ev:000000000000004c .L0 
     /tmp/cc6ZYyze.s:874    .text._ZN7WorkerAD0Ev:0000000000000058 .L0 
     /tmp/cc6ZYyze.s:880    .text._ZN7WorkerAD0Ev:0000000000000068 .L0 
     /tmp/cc6ZYyze.s:882    .text._ZN7WorkerAD0Ev:000000000000006c .L0 
     /tmp/cc6ZYyze.s:883    .text._ZN7WorkerAD0Ev:000000000000006c .L0 
     /tmp/cc6ZYyze.s:885    .text._ZN7WorkerAD0Ev:0000000000000070 .L0 
     /tmp/cc6ZYyze.s:888    .text._ZN7WorkerAD0Ev:0000000000000074 .L0 
GAS LISTING /tmp/cc6ZYyze.s 			page 57


     /tmp/cc6ZYyze.s:890    .text._ZN7WorkerAD0Ev:0000000000000078 .L0 
     /tmp/cc6ZYyze.s:892    .text._ZN7WorkerAD0Ev:000000000000007c .L0 
     /tmp/cc6ZYyze.s:910    .text._ZN7WorkerDD0Ev:0000000000000000 _ZN7WorkerDD0Ev
     /tmp/cc6ZYyze.s:913    .text._ZN7WorkerDD0Ev:0000000000000000 .L0 
     /tmp/cc6ZYyze.s:917    .text._ZN7WorkerDD0Ev:0000000000000000 .L0 
     /tmp/cc6ZYyze.s:918    .text._ZN7WorkerDD0Ev:0000000000000004 .L0 
     /tmp/cc6ZYyze.s:923    .text._ZN7WorkerDD0Ev:0000000000000014 .L0 
     /tmp/cc6ZYyze.s:924    .text._ZN7WorkerDD0Ev:0000000000000014 .L0 
     /tmp/cc6ZYyze.s:925    .text._ZN7WorkerDD0Ev:0000000000000014 .L0 
     /tmp/cc6ZYyze.s:926    .text._ZN7WorkerDD0Ev:0000000000000014 .L0 
     /tmp/cc6ZYyze.s:928    .text._ZN7WorkerDD0Ev:0000000000000018 .L0 
     /tmp/cc6ZYyze.s:936    .text._ZN7WorkerDD0Ev:000000000000001c .L0 
     /tmp/cc6ZYyze.s:939    .text._ZN7WorkerDD0Ev:0000000000000028 .L0 
     /tmp/cc6ZYyze.s:944    .text._ZN7WorkerDD0Ev:000000000000002c .L0 
     /tmp/cc6ZYyze.s:945    .text._ZN7WorkerDD0Ev:000000000000002c .L0 
     /tmp/cc6ZYyze.s:951    .text._ZN7WorkerDD0Ev:0000000000000034 .L0 
     /tmp/cc6ZYyze.s:952    .text._ZN7WorkerDD0Ev:0000000000000034 .L0 
     /tmp/cc6ZYyze.s:954    .text._ZN7WorkerDD0Ev:0000000000000038 .L0 
     /tmp/cc6ZYyze.s:959    .text._ZN7WorkerDD0Ev:000000000000003c .L0 
     /tmp/cc6ZYyze.s:960    .text._ZN7WorkerDD0Ev:000000000000003c .L0 
     /tmp/cc6ZYyze.s:963    .text._ZN7WorkerDD0Ev:0000000000000040 .L0 
     /tmp/cc6ZYyze.s:965    .text._ZN7WorkerDD0Ev:0000000000000044 .L0 
     /tmp/cc6ZYyze.s:971    .text._ZN7WorkerDD0Ev:000000000000004c .L0 
     /tmp/cc6ZYyze.s:980    .text._ZN7WorkerDD0Ev:0000000000000058 .L0 
     /tmp/cc6ZYyze.s:986    .text._ZN7WorkerDD0Ev:0000000000000068 .L0 
     /tmp/cc6ZYyze.s:988    .text._ZN7WorkerDD0Ev:000000000000006c .L0 
     /tmp/cc6ZYyze.s:989    .text._ZN7WorkerDD0Ev:000000000000006c .L0 
     /tmp/cc6ZYyze.s:991    .text._ZN7WorkerDD0Ev:0000000000000070 .L0 
     /tmp/cc6ZYyze.s:994    .text._ZN7WorkerDD0Ev:0000000000000074 .L0 
     /tmp/cc6ZYyze.s:996    .text._ZN7WorkerDD0Ev:0000000000000078 .L0 
     /tmp/cc6ZYyze.s:998    .text._ZN7WorkerDD0Ev:000000000000007c .L0 
     /tmp/cc6ZYyze.s:1016   .text._ZN7WorkerCD0Ev:0000000000000000 _ZN7WorkerCD0Ev
     /tmp/cc6ZYyze.s:1019   .text._ZN7WorkerCD0Ev:0000000000000000 .L0 
     /tmp/cc6ZYyze.s:1023   .text._ZN7WorkerCD0Ev:0000000000000000 .L0 
     /tmp/cc6ZYyze.s:1024   .text._ZN7WorkerCD0Ev:0000000000000004 .L0 
     /tmp/cc6ZYyze.s:1029   .text._ZN7WorkerCD0Ev:0000000000000014 .L0 
     /tmp/cc6ZYyze.s:1030   .text._ZN7WorkerCD0Ev:0000000000000014 .L0 
     /tmp/cc6ZYyze.s:1031   .text._ZN7WorkerCD0Ev:0000000000000014 .L0 
     /tmp/cc6ZYyze.s:1032   .text._ZN7WorkerCD0Ev:0000000000000014 .L0 
     /tmp/cc6ZYyze.s:1034   .text._ZN7WorkerCD0Ev:0000000000000018 .L0 
     /tmp/cc6ZYyze.s:1042   .text._ZN7WorkerCD0Ev:000000000000001c .L0 
     /tmp/cc6ZYyze.s:1045   .text._ZN7WorkerCD0Ev:0000000000000028 .L0 
     /tmp/cc6ZYyze.s:1050   .text._ZN7WorkerCD0Ev:000000000000002c .L0 
     /tmp/cc6ZYyze.s:1051   .text._ZN7WorkerCD0Ev:000000000000002c .L0 
     /tmp/cc6ZYyze.s:1057   .text._ZN7WorkerCD0Ev:0000000000000034 .L0 
     /tmp/cc6ZYyze.s:1058   .text._ZN7WorkerCD0Ev:0000000000000034 .L0 
     /tmp/cc6ZYyze.s:1060   .text._ZN7WorkerCD0Ev:0000000000000038 .L0 
     /tmp/cc6ZYyze.s:1065   .text._ZN7WorkerCD0Ev:000000000000003c .L0 
     /tmp/cc6ZYyze.s:1066   .text._ZN7WorkerCD0Ev:000000000000003c .L0 
     /tmp/cc6ZYyze.s:1069   .text._ZN7WorkerCD0Ev:0000000000000040 .L0 
     /tmp/cc6ZYyze.s:1071   .text._ZN7WorkerCD0Ev:0000000000000044 .L0 
     /tmp/cc6ZYyze.s:1077   .text._ZN7WorkerCD0Ev:000000000000004c .L0 
     /tmp/cc6ZYyze.s:1086   .text._ZN7WorkerCD0Ev:0000000000000058 .L0 
     /tmp/cc6ZYyze.s:1092   .text._ZN7WorkerCD0Ev:0000000000000068 .L0 
     /tmp/cc6ZYyze.s:1094   .text._ZN7WorkerCD0Ev:000000000000006c .L0 
     /tmp/cc6ZYyze.s:1095   .text._ZN7WorkerCD0Ev:000000000000006c .L0 
     /tmp/cc6ZYyze.s:1097   .text._ZN7WorkerCD0Ev:0000000000000070 .L0 
GAS LISTING /tmp/cc6ZYyze.s 			page 58


     /tmp/cc6ZYyze.s:1100   .text._ZN7WorkerCD0Ev:0000000000000074 .L0 
     /tmp/cc6ZYyze.s:1102   .text._ZN7WorkerCD0Ev:0000000000000078 .L0 
     /tmp/cc6ZYyze.s:1104   .text._ZN7WorkerCD0Ev:000000000000007c .L0 
     /tmp/cc6ZYyze.s:1132   .text:0000000000000074 _ZN7WorkerA11workerBodyAEPv
     /tmp/cc6ZYyze.s:1135   .text:0000000000000074 .L0 
     /tmp/cc6ZYyze.s:1137   .text:0000000000000074 .L0 
     /tmp/cc6ZYyze.s:1138   .text:0000000000000078 .L0 
     /tmp/cc6ZYyze.s:1143   .text:0000000000000088 .L0 
     /tmp/cc6ZYyze.s:1144   .text:0000000000000088 .L0 
     /tmp/cc6ZYyze.s:1145   .text:0000000000000088 .L0 
     /tmp/cc6ZYyze.s:1146   .text:0000000000000088 .L0 
     /tmp/cc6ZYyze.s:1148   .text:000000000000008c .L0 
     /tmp/cc6ZYyze.s:1152   .text:000000000000008c .L0 
     /tmp/cc6ZYyze.s:1153   .text:000000000000008c .L0 
     /tmp/cc6ZYyze.s:1161   .text:0000000000000094 .L0 
     /tmp/cc6ZYyze.s:1162   .text:0000000000000094 .L0 
     /tmp/cc6ZYyze.s:1166   .text:000000000000009c .L0 
     /tmp/cc6ZYyze.s:1170   .text:00000000000000a0 .L0 
     /tmp/cc6ZYyze.s:1176   .text:00000000000000ac .L0 
     /tmp/cc6ZYyze.s:1180   .text:00000000000000b0 .L0 
     /tmp/cc6ZYyze.s:1184   .text:00000000000000bc .L0 
     /tmp/cc6ZYyze.s:1194   .text:00000000000000c4 .L0 
     /tmp/cc6ZYyze.s:1198   .text:00000000000000c8 .L0 
     /tmp/cc6ZYyze.s:1202   .text:00000000000000d0 .L0 
     /tmp/cc6ZYyze.s:1203   .text:00000000000000d0 .L0 
     /tmp/cc6ZYyze.s:1207   .text:00000000000000e0 .L0 
     /tmp/cc6ZYyze.s:1208   .text:00000000000000e0 .L0 
     /tmp/cc6ZYyze.s:1214   .text:00000000000000f4 .L0 
     /tmp/cc6ZYyze.s:1215   .text:00000000000000f4 .L0 
     /tmp/cc6ZYyze.s:1220   .text:0000000000000104 .L0 
     /tmp/cc6ZYyze.s:1221   .text:0000000000000104 .L0 
     /tmp/cc6ZYyze.s:1229   .text:000000000000010c .L0 
     /tmp/cc6ZYyze.s:1230   .text:000000000000010c .L0 
     /tmp/cc6ZYyze.s:1234   .text:000000000000011c .L0 
     /tmp/cc6ZYyze.s:1235   .text:000000000000011c .L0 
     /tmp/cc6ZYyze.s:1238   .text:0000000000000128 .L0 
     /tmp/cc6ZYyze.s:1239   .text:000000000000012c .L0 
     /tmp/cc6ZYyze.s:1241   .text:0000000000000130 .L0 
     /tmp/cc6ZYyze.s:1242   .text:0000000000000130 .L0 
     /tmp/cc6ZYyze.s:1244   .text:0000000000000134 .L0 
     /tmp/cc6ZYyze.s:1246   .text:0000000000000138 .L0 
     /tmp/cc6ZYyze.s:1249   .text:000000000000013c .L0 
     /tmp/cc6ZYyze.s:1251   .text:0000000000000140 .L0 
     /tmp/cc6ZYyze.s:1258   .text._ZN7WorkerA3runEv:0000000000000000 _ZN7WorkerA3runEv
     /tmp/cc6ZYyze.s:1261   .text._ZN7WorkerA3runEv:0000000000000000 .L0 
     /tmp/cc6ZYyze.s:1263   .text._ZN7WorkerA3runEv:0000000000000000 .L0 
     /tmp/cc6ZYyze.s:1264   .text._ZN7WorkerA3runEv:0000000000000004 .L0 
     /tmp/cc6ZYyze.s:1267   .text._ZN7WorkerA3runEv:000000000000000c .L0 
     /tmp/cc6ZYyze.s:1268   .text._ZN7WorkerA3runEv:000000000000000c .L0 
     /tmp/cc6ZYyze.s:1270   .text._ZN7WorkerA3runEv:0000000000000010 .L0 
     /tmp/cc6ZYyze.s:1272   .text._ZN7WorkerA3runEv:0000000000000010 .L0 
     /tmp/cc6ZYyze.s:1273   .text._ZN7WorkerA3runEv:0000000000000010 .L0 
     /tmp/cc6ZYyze.s:1277   .text._ZN7WorkerA3runEv:000000000000001c .L0 
     /tmp/cc6ZYyze.s:1278   .text._ZN7WorkerA3runEv:0000000000000020 .L0 
     /tmp/cc6ZYyze.s:1280   .text._ZN7WorkerA3runEv:0000000000000024 .L0 
     /tmp/cc6ZYyze.s:1281   .text._ZN7WorkerA3runEv:0000000000000024 .L0 
     /tmp/cc6ZYyze.s:1283   .text._ZN7WorkerA3runEv:0000000000000028 .L0 
GAS LISTING /tmp/cc6ZYyze.s 			page 59


     /tmp/cc6ZYyze.s:1285   .text._ZN7WorkerA3runEv:000000000000002c .L0 
     /tmp/cc6ZYyze.s:1299   .text:0000000000000140 _ZN7WorkerB11workerBodyBEPv
     /tmp/cc6ZYyze.s:1302   .text:0000000000000140 .L0 
     /tmp/cc6ZYyze.s:1304   .text:0000000000000140 .L0 
     /tmp/cc6ZYyze.s:1305   .text:0000000000000144 .L0 
     /tmp/cc6ZYyze.s:1310   .text:0000000000000154 .L0 
     /tmp/cc6ZYyze.s:1311   .text:0000000000000154 .L0 
     /tmp/cc6ZYyze.s:1312   .text:0000000000000154 .L0 
     /tmp/cc6ZYyze.s:1313   .text:0000000000000154 .L0 
     /tmp/cc6ZYyze.s:1315   .text:0000000000000158 .L0 
     /tmp/cc6ZYyze.s:1319   .text:0000000000000158 .L0 
     /tmp/cc6ZYyze.s:1320   .text:0000000000000158 .L0 
     /tmp/cc6ZYyze.s:1328   .text:0000000000000160 .L0 
     /tmp/cc6ZYyze.s:1329   .text:0000000000000160 .L0 
     /tmp/cc6ZYyze.s:1333   .text:0000000000000168 .L0 
     /tmp/cc6ZYyze.s:1337   .text:000000000000016c .L0 
     /tmp/cc6ZYyze.s:1343   .text:0000000000000178 .L0 
     /tmp/cc6ZYyze.s:1347   .text:000000000000017c .L0 
     /tmp/cc6ZYyze.s:1351   .text:0000000000000188 .L0 
     /tmp/cc6ZYyze.s:1361   .text:0000000000000190 .L0 
     /tmp/cc6ZYyze.s:1365   .text:0000000000000194 .L0 
     /tmp/cc6ZYyze.s:1369   .text:000000000000019c .L0 
     /tmp/cc6ZYyze.s:1370   .text:000000000000019c .L0 
     /tmp/cc6ZYyze.s:1374   .text:00000000000001ac .L0 
     /tmp/cc6ZYyze.s:1375   .text:00000000000001ac .L0 
     /tmp/cc6ZYyze.s:1381   .text:00000000000001c0 .L0 
     /tmp/cc6ZYyze.s:1382   .text:00000000000001c0 .L0 
     /tmp/cc6ZYyze.s:1387   .text:00000000000001d0 .L0 
     /tmp/cc6ZYyze.s:1388   .text:00000000000001d0 .L0 
     /tmp/cc6ZYyze.s:1396   .text:00000000000001d8 .L0 
     /tmp/cc6ZYyze.s:1397   .text:00000000000001d8 .L0 
     /tmp/cc6ZYyze.s:1401   .text:00000000000001e8 .L0 
     /tmp/cc6ZYyze.s:1402   .text:00000000000001e8 .L0 
     /tmp/cc6ZYyze.s:1405   .text:00000000000001f4 .L0 
     /tmp/cc6ZYyze.s:1406   .text:00000000000001f4 .L0 
     /tmp/cc6ZYyze.s:1409   .text:00000000000001fc .L0 
     /tmp/cc6ZYyze.s:1410   .text:0000000000000200 .L0 
     /tmp/cc6ZYyze.s:1412   .text:0000000000000204 .L0 
     /tmp/cc6ZYyze.s:1413   .text:0000000000000204 .L0 
     /tmp/cc6ZYyze.s:1415   .text:0000000000000208 .L0 
     /tmp/cc6ZYyze.s:1417   .text:000000000000020c .L0 
     /tmp/cc6ZYyze.s:1420   .text:0000000000000210 .L0 
     /tmp/cc6ZYyze.s:1422   .text:0000000000000214 .L0 
     /tmp/cc6ZYyze.s:1429   .text._ZN7WorkerB3runEv:0000000000000000 _ZN7WorkerB3runEv
     /tmp/cc6ZYyze.s:1432   .text._ZN7WorkerB3runEv:0000000000000000 .L0 
     /tmp/cc6ZYyze.s:1434   .text._ZN7WorkerB3runEv:0000000000000000 .L0 
     /tmp/cc6ZYyze.s:1435   .text._ZN7WorkerB3runEv:0000000000000004 .L0 
     /tmp/cc6ZYyze.s:1438   .text._ZN7WorkerB3runEv:000000000000000c .L0 
     /tmp/cc6ZYyze.s:1439   .text._ZN7WorkerB3runEv:000000000000000c .L0 
     /tmp/cc6ZYyze.s:1441   .text._ZN7WorkerB3runEv:0000000000000010 .L0 
     /tmp/cc6ZYyze.s:1443   .text._ZN7WorkerB3runEv:0000000000000010 .L0 
     /tmp/cc6ZYyze.s:1444   .text._ZN7WorkerB3runEv:0000000000000010 .L0 
     /tmp/cc6ZYyze.s:1448   .text._ZN7WorkerB3runEv:000000000000001c .L0 
     /tmp/cc6ZYyze.s:1449   .text._ZN7WorkerB3runEv:0000000000000020 .L0 
     /tmp/cc6ZYyze.s:1451   .text._ZN7WorkerB3runEv:0000000000000024 .L0 
     /tmp/cc6ZYyze.s:1452   .text._ZN7WorkerB3runEv:0000000000000024 .L0 
     /tmp/cc6ZYyze.s:1454   .text._ZN7WorkerB3runEv:0000000000000028 .L0 
GAS LISTING /tmp/cc6ZYyze.s 			page 60


     /tmp/cc6ZYyze.s:1456   .text._ZN7WorkerB3runEv:000000000000002c .L0 
     /tmp/cc6ZYyze.s:1476   .text:0000000000000214 _ZN7WorkerC11workerBodyCEPv
     /tmp/cc6ZYyze.s:1479   .text:0000000000000214 .L0 
     /tmp/cc6ZYyze.s:1481   .text:0000000000000214 .L0 
     /tmp/cc6ZYyze.s:1482   .text:0000000000000218 .L0 
     /tmp/cc6ZYyze.s:1487   .text:0000000000000228 .L0 
     /tmp/cc6ZYyze.s:1488   .text:0000000000000228 .L0 
     /tmp/cc6ZYyze.s:1489   .text:0000000000000228 .L0 
     /tmp/cc6ZYyze.s:1490   .text:0000000000000228 .L0 
     /tmp/cc6ZYyze.s:1492   .text:000000000000022c .L0 
     /tmp/cc6ZYyze.s:1495   .text:000000000000022c .L0 
     /tmp/cc6ZYyze.s:1496   .text:000000000000022c .L0 
     /tmp/cc6ZYyze.s:1501   .text:0000000000000234 .L0 
     /tmp/cc6ZYyze.s:1502   .text:0000000000000234 .L0 
     /tmp/cc6ZYyze.s:1506   .text:0000000000000244 .L0 
     /tmp/cc6ZYyze.s:1507   .text:0000000000000244 .L0 
     /tmp/cc6ZYyze.s:1513   .text:0000000000000258 .L0 
     /tmp/cc6ZYyze.s:1514   .text:0000000000000258 .L0 
     /tmp/cc6ZYyze.s:1518   .text:0000000000000268 .L0 
     /tmp/cc6ZYyze.s:1524   .text:0000000000000270 .L0 
     /tmp/cc6ZYyze.s:1525   .text:0000000000000270 .L0 
     /tmp/cc6ZYyze.s:1528   .text:0000000000000278 .L0 
     /tmp/cc6ZYyze.s:1529   .text:0000000000000278 .L0 
     /tmp/cc6ZYyze.s:1533   .text:0000000000000288 .L0 
test/Threads_CPP_API_test.cpp:104    .text:0000000000000288 .L0 
     /tmp/cc6ZYyze.s:1539   .text:000000000000028c .L0 
     /tmp/cc6ZYyze.s:1541   .text:000000000000028c .L0 
     /tmp/cc6ZYyze.s:1544   .text:0000000000000294 .L0 
     /tmp/cc6ZYyze.s:1545   .text:0000000000000294 .L0 
test/Threads_CPP_API_test.cpp:108    .text:0000000000000294 .L0 
     /tmp/cc6ZYyze.s:1552   .text:0000000000000298 .L0 
     /tmp/cc6ZYyze.s:1554   .text:0000000000000298 .L0 
     /tmp/cc6ZYyze.s:1558   .text:00000000000002a8 .L0 
     /tmp/cc6ZYyze.s:1559   .text:00000000000002a8 .L0 
     /tmp/cc6ZYyze.s:1565   .text:00000000000002bc .L0 
     /tmp/cc6ZYyze.s:1566   .text:00000000000002bc .L0 
     /tmp/cc6ZYyze.s:1570   .text:00000000000002cc .L0 
     /tmp/cc6ZYyze.s:1571   .text:00000000000002cc .L0 
     /tmp/cc6ZYyze.s:1577   .text:00000000000002dc .L0 
     /tmp/cc6ZYyze.s:1578   .text:00000000000002dc .L0 
     /tmp/cc6ZYyze.s:1583   .text:00000000000002ec .L0 
     /tmp/cc6ZYyze.s:1584   .text:00000000000002ec .L0 
     /tmp/cc6ZYyze.s:1590   .text:0000000000000300 .L0 
     /tmp/cc6ZYyze.s:1591   .text:0000000000000300 .L0 
     /tmp/cc6ZYyze.s:1597   .text:0000000000000314 .L0 
     /tmp/cc6ZYyze.s:1598   .text:0000000000000314 .L0 
     /tmp/cc6ZYyze.s:1602   .text:0000000000000324 .L0 
     /tmp/cc6ZYyze.s:1603   .text:0000000000000324 .L0 
     /tmp/cc6ZYyze.s:1609   .text:0000000000000338 .L0 
     /tmp/cc6ZYyze.s:1610   .text:0000000000000338 .L0 
     /tmp/cc6ZYyze.s:1614   .text:0000000000000348 .L0 
     /tmp/cc6ZYyze.s:1620   .text:0000000000000350 .L0 
     /tmp/cc6ZYyze.s:1621   .text:0000000000000350 .L0 
     /tmp/cc6ZYyze.s:1624   .text:0000000000000358 .L0 
     /tmp/cc6ZYyze.s:1625   .text:0000000000000358 .L0 
     /tmp/cc6ZYyze.s:1629   .text:0000000000000368 .L0 
     /tmp/cc6ZYyze.s:1630   .text:0000000000000368 .L0 
GAS LISTING /tmp/cc6ZYyze.s 			page 61


     /tmp/cc6ZYyze.s:1633   .text:0000000000000374 .L0 
     /tmp/cc6ZYyze.s:1634   .text:0000000000000374 .L0 
     /tmp/cc6ZYyze.s:1637   .text:000000000000037c .L0 
     /tmp/cc6ZYyze.s:1638   .text:0000000000000380 .L0 
     /tmp/cc6ZYyze.s:1640   .text:0000000000000384 .L0 
     /tmp/cc6ZYyze.s:1641   .text:0000000000000384 .L0 
     /tmp/cc6ZYyze.s:1643   .text:0000000000000388 .L0 
     /tmp/cc6ZYyze.s:1646   .text:000000000000038c .L0 
     /tmp/cc6ZYyze.s:1649   .text:0000000000000390 .L0 
     /tmp/cc6ZYyze.s:1651   .text:0000000000000394 .L0 
     /tmp/cc6ZYyze.s:1658   .text._ZN7WorkerC3runEv:0000000000000000 _ZN7WorkerC3runEv
     /tmp/cc6ZYyze.s:1661   .text._ZN7WorkerC3runEv:0000000000000000 .L0 
     /tmp/cc6ZYyze.s:1663   .text._ZN7WorkerC3runEv:0000000000000000 .L0 
     /tmp/cc6ZYyze.s:1664   .text._ZN7WorkerC3runEv:0000000000000004 .L0 
     /tmp/cc6ZYyze.s:1667   .text._ZN7WorkerC3runEv:000000000000000c .L0 
     /tmp/cc6ZYyze.s:1668   .text._ZN7WorkerC3runEv:000000000000000c .L0 
     /tmp/cc6ZYyze.s:1670   .text._ZN7WorkerC3runEv:0000000000000010 .L0 
     /tmp/cc6ZYyze.s:1672   .text._ZN7WorkerC3runEv:0000000000000010 .L0 
     /tmp/cc6ZYyze.s:1673   .text._ZN7WorkerC3runEv:0000000000000010 .L0 
     /tmp/cc6ZYyze.s:1677   .text._ZN7WorkerC3runEv:000000000000001c .L0 
     /tmp/cc6ZYyze.s:1678   .text._ZN7WorkerC3runEv:0000000000000020 .L0 
     /tmp/cc6ZYyze.s:1680   .text._ZN7WorkerC3runEv:0000000000000024 .L0 
     /tmp/cc6ZYyze.s:1681   .text._ZN7WorkerC3runEv:0000000000000024 .L0 
     /tmp/cc6ZYyze.s:1683   .text._ZN7WorkerC3runEv:0000000000000028 .L0 
     /tmp/cc6ZYyze.s:1685   .text._ZN7WorkerC3runEv:000000000000002c .L0 
     /tmp/cc6ZYyze.s:1705   .text:0000000000000394 _ZN7WorkerD11workerBodyDEPv
     /tmp/cc6ZYyze.s:1708   .text:0000000000000394 .L0 
     /tmp/cc6ZYyze.s:1710   .text:0000000000000394 .L0 
     /tmp/cc6ZYyze.s:1711   .text:0000000000000398 .L0 
     /tmp/cc6ZYyze.s:1716   .text:00000000000003a8 .L0 
     /tmp/cc6ZYyze.s:1717   .text:00000000000003a8 .L0 
     /tmp/cc6ZYyze.s:1718   .text:00000000000003a8 .L0 
     /tmp/cc6ZYyze.s:1719   .text:00000000000003a8 .L0 
     /tmp/cc6ZYyze.s:1721   .text:00000000000003ac .L0 
     /tmp/cc6ZYyze.s:1724   .text:00000000000003ac .L0 
     /tmp/cc6ZYyze.s:1725   .text:00000000000003ac .L0 
     /tmp/cc6ZYyze.s:1730   .text:00000000000003b4 .L0 
     /tmp/cc6ZYyze.s:1731   .text:00000000000003b4 .L0 
     /tmp/cc6ZYyze.s:1735   .text:00000000000003c4 .L0 
     /tmp/cc6ZYyze.s:1736   .text:00000000000003c4 .L0 
     /tmp/cc6ZYyze.s:1742   .text:00000000000003d8 .L0 
     /tmp/cc6ZYyze.s:1743   .text:00000000000003d8 .L0 
     /tmp/cc6ZYyze.s:1747   .text:00000000000003e8 .L0 
     /tmp/cc6ZYyze.s:1753   .text:00000000000003f0 .L0 
     /tmp/cc6ZYyze.s:1754   .text:00000000000003f0 .L0 
     /tmp/cc6ZYyze.s:1757   .text:00000000000003f8 .L0 
     /tmp/cc6ZYyze.s:1758   .text:00000000000003f8 .L0 
     /tmp/cc6ZYyze.s:1762   .text:0000000000000408 .L0 
test/Threads_CPP_API_test.cpp:139    .text:0000000000000408 .L0 
     /tmp/cc6ZYyze.s:1768   .text:000000000000040c .L0 
     /tmp/cc6ZYyze.s:1770   .text:000000000000040c .L0 
     /tmp/cc6ZYyze.s:1773   .text:0000000000000414 .L0 
     /tmp/cc6ZYyze.s:1774   .text:0000000000000414 .L0 
     /tmp/cc6ZYyze.s:1780   .text:0000000000000424 .L0 
     /tmp/cc6ZYyze.s:1781   .text:0000000000000424 .L0 
     /tmp/cc6ZYyze.s:1786   .text:0000000000000434 .L0 
     /tmp/cc6ZYyze.s:1787   .text:0000000000000434 .L0 
GAS LISTING /tmp/cc6ZYyze.s 			page 62


     /tmp/cc6ZYyze.s:1793   .text:0000000000000448 .L0 
     /tmp/cc6ZYyze.s:1794   .text:0000000000000448 .L0 
     /tmp/cc6ZYyze.s:1800   .text:000000000000045c .L0 
     /tmp/cc6ZYyze.s:1801   .text:000000000000045c .L0 
     /tmp/cc6ZYyze.s:1805   .text:000000000000046c .L0 
     /tmp/cc6ZYyze.s:1806   .text:000000000000046c .L0 
     /tmp/cc6ZYyze.s:1812   .text:0000000000000480 .L0 
     /tmp/cc6ZYyze.s:1813   .text:0000000000000480 .L0 
     /tmp/cc6ZYyze.s:1817   .text:0000000000000490 .L0 
     /tmp/cc6ZYyze.s:1823   .text:0000000000000498 .L0 
     /tmp/cc6ZYyze.s:1824   .text:0000000000000498 .L0 
     /tmp/cc6ZYyze.s:1827   .text:00000000000004a0 .L0 
     /tmp/cc6ZYyze.s:1828   .text:00000000000004a0 .L0 
     /tmp/cc6ZYyze.s:1832   .text:00000000000004b0 .L0 
     /tmp/cc6ZYyze.s:1833   .text:00000000000004b0 .L0 
     /tmp/cc6ZYyze.s:1836   .text:00000000000004bc .L0 
     /tmp/cc6ZYyze.s:1837   .text:00000000000004bc .L0 
     /tmp/cc6ZYyze.s:1840   .text:00000000000004c4 .L0 
     /tmp/cc6ZYyze.s:1841   .text:00000000000004c8 .L0 
     /tmp/cc6ZYyze.s:1843   .text:00000000000004cc .L0 
     /tmp/cc6ZYyze.s:1844   .text:00000000000004cc .L0 
     /tmp/cc6ZYyze.s:1846   .text:00000000000004d0 .L0 
     /tmp/cc6ZYyze.s:1849   .text:00000000000004d4 .L0 
     /tmp/cc6ZYyze.s:1852   .text:00000000000004d8 .L0 
     /tmp/cc6ZYyze.s:1854   .text:00000000000004dc .L0 
     /tmp/cc6ZYyze.s:1861   .text._ZN7WorkerD3runEv:0000000000000000 _ZN7WorkerD3runEv
     /tmp/cc6ZYyze.s:1864   .text._ZN7WorkerD3runEv:0000000000000000 .L0 
     /tmp/cc6ZYyze.s:1866   .text._ZN7WorkerD3runEv:0000000000000000 .L0 
     /tmp/cc6ZYyze.s:1867   .text._ZN7WorkerD3runEv:0000000000000004 .L0 
     /tmp/cc6ZYyze.s:1870   .text._ZN7WorkerD3runEv:000000000000000c .L0 
     /tmp/cc6ZYyze.s:1871   .text._ZN7WorkerD3runEv:000000000000000c .L0 
     /tmp/cc6ZYyze.s:1873   .text._ZN7WorkerD3runEv:0000000000000010 .L0 
     /tmp/cc6ZYyze.s:1875   .text._ZN7WorkerD3runEv:0000000000000010 .L0 
     /tmp/cc6ZYyze.s:1876   .text._ZN7WorkerD3runEv:0000000000000010 .L0 
     /tmp/cc6ZYyze.s:1880   .text._ZN7WorkerD3runEv:000000000000001c .L0 
     /tmp/cc6ZYyze.s:1881   .text._ZN7WorkerD3runEv:0000000000000020 .L0 
     /tmp/cc6ZYyze.s:1883   .text._ZN7WorkerD3runEv:0000000000000024 .L0 
     /tmp/cc6ZYyze.s:1884   .text._ZN7WorkerD3runEv:0000000000000024 .L0 
     /tmp/cc6ZYyze.s:1886   .text._ZN7WorkerD3runEv:0000000000000028 .L0 
     /tmp/cc6ZYyze.s:1888   .text._ZN7WorkerD3runEv:000000000000002c .L0 
     /tmp/cc6ZYyze.s:1908   .text:00000000000004dc _Z20Threads_CPP_API_testv
     /tmp/cc6ZYyze.s:1911   .text:00000000000004dc .L0 
     /tmp/cc6ZYyze.s:1912   .text:00000000000004dc .L0 
     /tmp/cc6ZYyze.s:1913   .text:00000000000004e0 .L0 
     /tmp/cc6ZYyze.s:1917   .text:00000000000004ec .L0 
     /tmp/cc6ZYyze.s:1918   .text:00000000000004ec .L0 
     /tmp/cc6ZYyze.s:1919   .text:00000000000004ec .L0 
     /tmp/cc6ZYyze.s:1921   .text:00000000000004f0 .L0 
     /tmp/cc6ZYyze.s:1923   .text:00000000000004f0 .L0 
     /tmp/cc6ZYyze.s:1924   .text:00000000000004f0 .L0 
     /tmp/cc6ZYyze.s:1925   .text:00000000000004f0 .L0 
     /tmp/cc6ZYyze.s:1933   .text:00000000000004fc .L0 
     /tmp/cc6ZYyze.s:1934   .text:00000000000004fc .L0 
     /tmp/cc6ZYyze.s:1937   .text:0000000000000508 .L0 
     /tmp/cc6ZYyze.s:1938   .text:0000000000000508 .L0 
     /tmp/cc6ZYyze.s:2169   .data.rel.ro.local._ZTV7WorkerA:0000000000000000 _ZTV7WorkerA
     /tmp/cc6ZYyze.s:1943   .text:000000000000050c .L0 
GAS LISTING /tmp/cc6ZYyze.s 			page 63


     /tmp/cc6ZYyze.s:1949   .text:0000000000000518 .L0 
     /tmp/cc6ZYyze.s:1951   .text:000000000000051c .L0 
     /tmp/cc6ZYyze.s:1952   .text:000000000000051c .L0 
     /tmp/cc6ZYyze.s:1956   .text:000000000000052c .L0 
     /tmp/cc6ZYyze.s:1957   .text:000000000000052c .L0 
     /tmp/cc6ZYyze.s:1965   .text:0000000000000538 .L0 
     /tmp/cc6ZYyze.s:1966   .text:0000000000000538 .L0 
     /tmp/cc6ZYyze.s:1968   .text:000000000000053c .L0 
     /tmp/cc6ZYyze.s:1969   .text:000000000000053c .L0 
     /tmp/cc6ZYyze.s:2180   .data.rel.ro.local._ZTV7WorkerB:0000000000000000 _ZTV7WorkerB
     /tmp/cc6ZYyze.s:1974   .text:0000000000000540 .L0 
     /tmp/cc6ZYyze.s:1980   .text:000000000000054c .L0 
     /tmp/cc6ZYyze.s:1982   .text:0000000000000550 .L0 
     /tmp/cc6ZYyze.s:1983   .text:0000000000000550 .L0 
     /tmp/cc6ZYyze.s:1987   .text:0000000000000560 .L0 
     /tmp/cc6ZYyze.s:1988   .text:0000000000000560 .L0 
     /tmp/cc6ZYyze.s:1996   .text:000000000000056c .L0 
     /tmp/cc6ZYyze.s:1997   .text:000000000000056c .L0 
     /tmp/cc6ZYyze.s:1999   .text:0000000000000570 .L0 
     /tmp/cc6ZYyze.s:2000   .text:0000000000000570 .L0 
     /tmp/cc6ZYyze.s:2191   .data.rel.ro.local._ZTV7WorkerC:0000000000000000 _ZTV7WorkerC
     /tmp/cc6ZYyze.s:2005   .text:0000000000000574 .L0 
     /tmp/cc6ZYyze.s:2011   .text:0000000000000580 .L0 
     /tmp/cc6ZYyze.s:2013   .text:0000000000000584 .L0 
     /tmp/cc6ZYyze.s:2014   .text:0000000000000584 .L0 
     /tmp/cc6ZYyze.s:2018   .text:0000000000000594 .L0 
     /tmp/cc6ZYyze.s:2019   .text:0000000000000594 .L0 
     /tmp/cc6ZYyze.s:2027   .text:00000000000005a0 .L0 
     /tmp/cc6ZYyze.s:2028   .text:00000000000005a0 .L0 
     /tmp/cc6ZYyze.s:2030   .text:00000000000005a4 .L0 
     /tmp/cc6ZYyze.s:2031   .text:00000000000005a4 .L0 
     /tmp/cc6ZYyze.s:2202   .data.rel.ro.local._ZTV7WorkerD:0000000000000000 _ZTV7WorkerD
     /tmp/cc6ZYyze.s:2036   .text:00000000000005a8 .L0 
     /tmp/cc6ZYyze.s:2042   .text:00000000000005b4 .L0 
     /tmp/cc6ZYyze.s:2044   .text:00000000000005b8 .L0 
     /tmp/cc6ZYyze.s:2045   .text:00000000000005b8 .L0 
     /tmp/cc6ZYyze.s:2050   .text:00000000000005c8 .L0 
     /tmp/cc6ZYyze.s:2054   .text:00000000000005cc .L0 
     /tmp/cc6ZYyze.s:2057   .text:00000000000005d4 .L0 
     /tmp/cc6ZYyze.s:2058   .text:00000000000005d4 .L0 
     /tmp/cc6ZYyze.s:2066   .text:00000000000005e4 .L0 
     /tmp/cc6ZYyze.s:2067   .text:00000000000005e4 .L0 
     /tmp/cc6ZYyze.s:2076   .text:00000000000005f8 .L0 
     /tmp/cc6ZYyze.s:2077   .text:00000000000005f8 .L0 
     /tmp/cc6ZYyze.s:2086   .text:0000000000000600 .L0 
     /tmp/cc6ZYyze.s:2087   .text:0000000000000600 .L0 
     /tmp/cc6ZYyze.s:2088   .text:0000000000000600 .L0 
     /tmp/cc6ZYyze.s:2094   .text:0000000000000608 .L0 
     /tmp/cc6ZYyze.s:2095   .text:0000000000000608 .L0 
     /tmp/cc6ZYyze.s:2096   .text:0000000000000608 .L0 
     /tmp/cc6ZYyze.s:2098   .text:0000000000000610 .L0 
     /tmp/cc6ZYyze.s:2100   .text:0000000000000614 .L0 
     /tmp/cc6ZYyze.s:2102   .text:000000000000061c .L0 
     /tmp/cc6ZYyze.s:2104   .text:0000000000000620 .L0 
     /tmp/cc6ZYyze.s:2106   .text:0000000000000628 .L0 
     /tmp/cc6ZYyze.s:2108   .text:000000000000062c .L0 
     /tmp/cc6ZYyze.s:2110   .text:0000000000000634 .L0 
GAS LISTING /tmp/cc6ZYyze.s 			page 64


     /tmp/cc6ZYyze.s:2118   .text:0000000000000640 .L0 
     /tmp/cc6ZYyze.s:2122   .text:0000000000000644 .L0 
     /tmp/cc6ZYyze.s:2125   .text:000000000000064c .L0 
     /tmp/cc6ZYyze.s:2128   .text:0000000000000650 .L0 
     /tmp/cc6ZYyze.s:2129   .text:0000000000000650 .L0 
     /tmp/cc6ZYyze.s:2131   .text:0000000000000654 .L0 
     /tmp/cc6ZYyze.s:2139   .text:0000000000000664 .L0 
     /tmp/cc6ZYyze.s:2140   .text:0000000000000668 .L0 
     /tmp/cc6ZYyze.s:2142   .text:000000000000066c .L0 
     /tmp/cc6ZYyze.s:2143   .text:000000000000066c .L0 
     /tmp/cc6ZYyze.s:2145   .text:0000000000000670 .L0 
     /tmp/cc6ZYyze.s:2148   .text:0000000000000674 .L0 
     /tmp/cc6ZYyze.s:2150   .text:0000000000000678 .L0 
     /tmp/cc6ZYyze.s:2209   .bss:0000000000000000 .LANCHOR0
     /tmp/cc6ZYyze.s:2212   .bss:0000000000000000 _ZL9finishedA
     /tmp/cc6ZYyze.s:2216   .bss:0000000000000001 _ZL9finishedB
     /tmp/cc6ZYyze.s:2220   .bss:0000000000000002 _ZL9finishedC
     /tmp/cc6ZYyze.s:2224   .bss:0000000000000003 _ZL9finishedD
     /tmp/cc6ZYyze.s:32     .text._ZN6Thread3runEv:0000000000000018 .L0 
     /tmp/cc6ZYyze.s:68     .text._ZN6Thread14thread_wrapperEPv:000000000000002c .L0 
     /tmp/cc6ZYyze.s:2231   .text:0000000000000678 .L0 
     /tmp/cc6ZYyze.s:228    .text._ZN6ThreadD2Ev:0000000000000064 .L0 
     /tmp/cc6ZYyze.s:319    .text._ZN7WorkerAD2Ev:0000000000000064 .L0 
     /tmp/cc6ZYyze.s:410    .text._ZN7WorkerDD2Ev:0000000000000064 .L0 
     /tmp/cc6ZYyze.s:501    .text._ZN7WorkerCD2Ev:0000000000000064 .L0 
     /tmp/cc6ZYyze.s:592    .text._ZN7WorkerBD2Ev:0000000000000064 .L0 
     /tmp/cc6ZYyze.s:694    .text._ZN6ThreadD0Ev:000000000000007c .L0 
     /tmp/cc6ZYyze.s:800    .text._ZN7WorkerBD0Ev:000000000000007c .L0 
     /tmp/cc6ZYyze.s:906    .text._ZN7WorkerAD0Ev:000000000000007c .L0 
     /tmp/cc6ZYyze.s:1012   .text._ZN7WorkerDD0Ev:000000000000007c .L0 
     /tmp/cc6ZYyze.s:1118   .text._ZN7WorkerCD0Ev:000000000000007c .L0 
     /tmp/cc6ZYyze.s:1288   .text._ZN7WorkerA3runEv:000000000000002c .L0 
     /tmp/cc6ZYyze.s:1459   .text._ZN7WorkerB3runEv:000000000000002c .L0 
     /tmp/cc6ZYyze.s:1688   .text._ZN7WorkerC3runEv:000000000000002c .L0 
     /tmp/cc6ZYyze.s:1891   .text._ZN7WorkerD3runEv:000000000000002c .L0 
     /tmp/cc6ZYyze.s:1120   .rodata.str1.8:0000000000000000 .LC0
     /tmp/cc6ZYyze.s:1203   .text:00000000000000d0 .L0 
     /tmp/cc6ZYyze.s:1123   .rodata.str1.8:0000000000000008 .LC1
     /tmp/cc6ZYyze.s:1215   .text:00000000000000f4 .L0 
     /tmp/cc6ZYyze.s:1126   .rodata.str1.8:0000000000000010 .LC2
     /tmp/cc6ZYyze.s:1230   .text:000000000000010c .L0 
     /tmp/cc6ZYyze.s:1236   .text:0000000000000120 .L0 
     /tmp/cc6ZYyze.s:1290   .rodata.str1.8:0000000000000020 .LC3
     /tmp/cc6ZYyze.s:1370   .text:000000000000019c .L0 
     /tmp/cc6ZYyze.s:1382   .text:00000000000001c0 .L0 
     /tmp/cc6ZYyze.s:1293   .rodata.str1.8:0000000000000028 .LC4
     /tmp/cc6ZYyze.s:1397   .text:00000000000001d8 .L0 
     /tmp/cc6ZYyze.s:1403   .text:00000000000001ec .L0 
     /tmp/cc6ZYyze.s:1461   .rodata.str1.8:0000000000000038 .LC5
     /tmp/cc6ZYyze.s:1502   .text:0000000000000234 .L0 
     /tmp/cc6ZYyze.s:1514   .text:0000000000000258 .L0 
     /tmp/cc6ZYyze.s:1464   .rodata.str1.8:0000000000000040 .LC6
     /tmp/cc6ZYyze.s:1529   .text:0000000000000278 .L0 
     /tmp/cc6ZYyze.s:1467   .rodata.str1.8:0000000000000050 .LC7
     /tmp/cc6ZYyze.s:1554   .text:0000000000000298 .L0 
     /tmp/cc6ZYyze.s:1566   .text:00000000000002bc .L0 
     /tmp/cc6ZYyze.s:1470   .rodata.str1.8:0000000000000058 .LC8
GAS LISTING /tmp/cc6ZYyze.s 			page 65


     /tmp/cc6ZYyze.s:1578   .text:00000000000002dc .L0 
     /tmp/cc6ZYyze.s:1591   .text:0000000000000300 .L0 
     /tmp/cc6ZYyze.s:1598   .text:0000000000000314 .L0 
     /tmp/cc6ZYyze.s:1610   .text:0000000000000338 .L0 
     /tmp/cc6ZYyze.s:1625   .text:0000000000000358 .L0 
     /tmp/cc6ZYyze.s:1631   .text:000000000000036c .L0 
     /tmp/cc6ZYyze.s:1690   .rodata.str1.8:0000000000000068 .LC9
     /tmp/cc6ZYyze.s:1731   .text:00000000000003b4 .L0 
     /tmp/cc6ZYyze.s:1743   .text:00000000000003d8 .L0 
     /tmp/cc6ZYyze.s:1693   .rodata.str1.8:0000000000000070 .LC10
     /tmp/cc6ZYyze.s:1758   .text:00000000000003f8 .L0 
     /tmp/cc6ZYyze.s:1696   .rodata.str1.8:0000000000000080 .LC11
     /tmp/cc6ZYyze.s:1781   .text:0000000000000424 .L0 
     /tmp/cc6ZYyze.s:1794   .text:0000000000000448 .L0 
     /tmp/cc6ZYyze.s:1801   .text:000000000000045c .L0 
     /tmp/cc6ZYyze.s:1813   .text:0000000000000480 .L0 
     /tmp/cc6ZYyze.s:1699   .rodata.str1.8:0000000000000090 .LC12
     /tmp/cc6ZYyze.s:1828   .text:00000000000004a0 .L0 
     /tmp/cc6ZYyze.s:1834   .text:00000000000004b4 .L0 
     /tmp/cc6ZYyze.s:1934   .text:00000000000004fc .L0 
     /tmp/cc6ZYyze.s:1943   .text:000000000000050c .L0 
     /tmp/cc6ZYyze.s:1893   .rodata.str1.8:00000000000000a0 .LC13
     /tmp/cc6ZYyze.s:1952   .text:000000000000051c .L0 
     /tmp/cc6ZYyze.s:1974   .text:0000000000000540 .L0 
     /tmp/cc6ZYyze.s:1896   .rodata.str1.8:00000000000000b8 .LC14
     /tmp/cc6ZYyze.s:1983   .text:0000000000000550 .L0 
     /tmp/cc6ZYyze.s:2005   .text:0000000000000574 .L0 
     /tmp/cc6ZYyze.s:1899   .rodata.str1.8:00000000000000d0 .LC15
     /tmp/cc6ZYyze.s:2014   .text:0000000000000584 .L0 
     /tmp/cc6ZYyze.s:2036   .text:00000000000005a8 .L0 
     /tmp/cc6ZYyze.s:1902   .rodata.str1.8:00000000000000e8 .LC16
     /tmp/cc6ZYyze.s:2045   .text:00000000000005b8 .L0 
     /tmp/cc6ZYyze.s:2096   .text:0000000000000608 .L0 
     /tmp/cc6ZYyze.s:2100   .text:0000000000000614 .L0 
     /tmp/cc6ZYyze.s:2104   .text:0000000000000620 .L0 
     /tmp/cc6ZYyze.s:2108   .text:000000000000062c .L0 
     /tmp/cc6ZYyze.s:113    .text:0000000000000050 .L5
     /tmp/cc6ZYyze.s:130    .text:0000000000000068 .L10
     /tmp/cc6ZYyze.s:100    .text:0000000000000030 .L7
     /tmp/cc6ZYyze.s:1196   .text:00000000000000c8 .L57
     /tmp/cc6ZYyze.s:1188   .text:00000000000000c4 .L53
     /tmp/cc6ZYyze.s:1156   .text:0000000000000094 .L54
     /tmp/cc6ZYyze.s:1177   .text:00000000000000b0 .L55
     /tmp/cc6ZYyze.s:1224   .text:000000000000010c .L52
     /tmp/cc6ZYyze.s:1168   .text:00000000000000a0 .L56
     /tmp/cc6ZYyze.s:1363   .text:0000000000000194 .L67
     /tmp/cc6ZYyze.s:1355   .text:0000000000000190 .L63
     /tmp/cc6ZYyze.s:1323   .text:0000000000000160 .L64
     /tmp/cc6ZYyze.s:1344   .text:000000000000017c .L65
     /tmp/cc6ZYyze.s:1391   .text:00000000000001d8 .L62
     /tmp/cc6ZYyze.s:1335   .text:000000000000016c .L66
     /tmp/cc6ZYyze.s:1522   .text:0000000000000270 .L73
     /tmp/cc6ZYyze.s:1499   .text:0000000000000234 .L77
     /tmp/cc6ZYyze.s:1618   .text:0000000000000350 .L75
     /tmp/cc6ZYyze.s:1595   .text:0000000000000314 .L78
     /tmp/cc6ZYyze.s:1751   .text:00000000000003f0 .L83
     /tmp/cc6ZYyze.s:1728   .text:00000000000003b4 .L87
GAS LISTING /tmp/cc6ZYyze.s 			page 66


     /tmp/cc6ZYyze.s:1821   .text:0000000000000498 .L85
     /tmp/cc6ZYyze.s:1798   .text:000000000000045c .L88
     /tmp/cc6ZYyze.s:2090   .text:0000000000000608 .L92
     /tmp/cc6ZYyze.s:2051   .text:00000000000005cc .L93
     /tmp/cc6ZYyze.s:2081   .text:0000000000000600 .L94
     /tmp/cc6ZYyze.s:2120   .text:0000000000000644 .L95
     /tmp/cc6ZYyze.s:2136   .text:0000000000000664 .L91
     /tmp/cc6ZYyze.s:2115   .text:0000000000000640 .L97
     /tmp/cc6ZYyze.s:163    .text._ZN6ThreadD2Ev:0000000000000014 .L0 
     /tmp/cc6ZYyze.s:202    .text._ZN6ThreadD2Ev:0000000000000050 .L11
     /tmp/cc6ZYyze.s:195    .text._ZN6ThreadD2Ev:0000000000000044 .L13
     /tmp/cc6ZYyze.s:254    .text._ZN7WorkerAD2Ev:0000000000000014 .L0 
     /tmp/cc6ZYyze.s:292    .text._ZN7WorkerAD2Ev:0000000000000050 .L15
     /tmp/cc6ZYyze.s:285    .text._ZN7WorkerAD2Ev:0000000000000044 .L17
     /tmp/cc6ZYyze.s:345    .text._ZN7WorkerDD2Ev:0000000000000014 .L0 
     /tmp/cc6ZYyze.s:383    .text._ZN7WorkerDD2Ev:0000000000000050 .L19
     /tmp/cc6ZYyze.s:376    .text._ZN7WorkerDD2Ev:0000000000000044 .L21
     /tmp/cc6ZYyze.s:436    .text._ZN7WorkerCD2Ev:0000000000000014 .L0 
     /tmp/cc6ZYyze.s:474    .text._ZN7WorkerCD2Ev:0000000000000050 .L23
     /tmp/cc6ZYyze.s:467    .text._ZN7WorkerCD2Ev:0000000000000044 .L25
     /tmp/cc6ZYyze.s:527    .text._ZN7WorkerBD2Ev:0000000000000014 .L0 
     /tmp/cc6ZYyze.s:565    .text._ZN7WorkerBD2Ev:0000000000000050 .L27
     /tmp/cc6ZYyze.s:558    .text._ZN7WorkerBD2Ev:0000000000000044 .L29
     /tmp/cc6ZYyze.s:620    .text._ZN6ThreadD0Ev:000000000000001c .L0 
     /tmp/cc6ZYyze.s:658    .text._ZN6ThreadD0Ev:0000000000000058 .L32
     /tmp/cc6ZYyze.s:651    .text._ZN6ThreadD0Ev:000000000000004c .L33
     /tmp/cc6ZYyze.s:663    .text._ZN6ThreadD0Ev:000000000000005c .LEHB0
     /tmp/cc6ZYyze.s:597    .text._ZN6ThreadD0Ev:0000000000000000 .LFB31
     /tmp/cc6ZYyze.s:666    .text._ZN6ThreadD0Ev:0000000000000064 .LEHE0
     /tmp/cc6ZYyze.s:724    .text._ZN7WorkerBD0Ev:000000000000001c .L0 
     /tmp/cc6ZYyze.s:762    .text._ZN7WorkerBD0Ev:0000000000000058 .L36
     /tmp/cc6ZYyze.s:755    .text._ZN7WorkerBD0Ev:000000000000004c .L37
     /tmp/cc6ZYyze.s:769    .text._ZN7WorkerBD0Ev:000000000000005c .LEHB1
     /tmp/cc6ZYyze.s:699    .text._ZN7WorkerBD0Ev:0000000000000000 .LFB81
     /tmp/cc6ZYyze.s:772    .text._ZN7WorkerBD0Ev:0000000000000064 .LEHE1
     /tmp/cc6ZYyze.s:830    .text._ZN7WorkerAD0Ev:000000000000001c .L0 
     /tmp/cc6ZYyze.s:868    .text._ZN7WorkerAD0Ev:0000000000000058 .L40
     /tmp/cc6ZYyze.s:861    .text._ZN7WorkerAD0Ev:000000000000004c .L41
     /tmp/cc6ZYyze.s:875    .text._ZN7WorkerAD0Ev:000000000000005c .LEHB2
     /tmp/cc6ZYyze.s:805    .text._ZN7WorkerAD0Ev:0000000000000000 .LFB85
     /tmp/cc6ZYyze.s:878    .text._ZN7WorkerAD0Ev:0000000000000064 .LEHE2
     /tmp/cc6ZYyze.s:936    .text._ZN7WorkerDD0Ev:000000000000001c .L0 
     /tmp/cc6ZYyze.s:974    .text._ZN7WorkerDD0Ev:0000000000000058 .L44
     /tmp/cc6ZYyze.s:967    .text._ZN7WorkerDD0Ev:000000000000004c .L45
     /tmp/cc6ZYyze.s:981    .text._ZN7WorkerDD0Ev:000000000000005c .LEHB3
     /tmp/cc6ZYyze.s:911    .text._ZN7WorkerDD0Ev:0000000000000000 .LFB73
     /tmp/cc6ZYyze.s:984    .text._ZN7WorkerDD0Ev:0000000000000064 .LEHE3
     /tmp/cc6ZYyze.s:1042   .text._ZN7WorkerCD0Ev:000000000000001c .L0 
     /tmp/cc6ZYyze.s:1080   .text._ZN7WorkerCD0Ev:0000000000000058 .L48
     /tmp/cc6ZYyze.s:1073   .text._ZN7WorkerCD0Ev:000000000000004c .L49
     /tmp/cc6ZYyze.s:1087   .text._ZN7WorkerCD0Ev:000000000000005c .LEHB4
     /tmp/cc6ZYyze.s:1017   .text._ZN7WorkerCD0Ev:0000000000000000 .LFB77
     /tmp/cc6ZYyze.s:1090   .text._ZN7WorkerCD0Ev:0000000000000064 .LEHE4
     /tmp/cc6ZYyze.s:5536   .debug_abbrev:0000000000000000 .Ldebug_abbrev0
     /tmp/cc6ZYyze.s:8079   .debug_str:0000000000000812 .LASF163
     /tmp/cc6ZYyze.s:7897   .debug_str:00000000000002fb .LASF164
     /tmp/cc6ZYyze.s:8097   .debug_str:0000000000000961 .LASF165
GAS LISTING /tmp/cc6ZYyze.s 			page 67


     /tmp/cc6ZYyze.s:7739   .debug_ranges:0000000000000000 .Ldebug_ranges0
     /tmp/cc6ZYyze.s:7789   .debug_line:0000000000000000 .Ldebug_line0
     /tmp/cc6ZYyze.s:7907   .debug_str:0000000000000356 .LASF0
     /tmp/cc6ZYyze.s:7925   .debug_str:00000000000003f6 .LASF1
     /tmp/cc6ZYyze.s:8017   .debug_str:000000000000067d .LASF2
     /tmp/cc6ZYyze.s:7879   .debug_str:0000000000000296 .LASF3
     /tmp/cc6ZYyze.s:8027   .debug_str:00000000000006b8 .LASF4
     /tmp/cc6ZYyze.s:7913   .debug_str:0000000000000384 .LASF5
     /tmp/cc6ZYyze.s:7807   .debug_str:000000000000006d .LASF6
     /tmp/cc6ZYyze.s:7995   .debug_str:00000000000005fc .LASF7
     /tmp/cc6ZYyze.s:7981   .debug_str:00000000000005a0 .LASF8
     /tmp/cc6ZYyze.s:7919   .debug_str:00000000000003cc .LASF9
     /tmp/cc6ZYyze.s:7891   .debug_str:00000000000002d8 .LASF10
     /tmp/cc6ZYyze.s:7895   .debug_str:00000000000002ed .LASF11
     /tmp/cc6ZYyze.s:7837   .debug_str:000000000000016a .LASF12
     /tmp/cc6ZYyze.s:7887   .debug_str:00000000000002c4 .LASF13
     /tmp/cc6ZYyze.s:7847   .debug_str:00000000000001b0 .LASF14
     /tmp/cc6ZYyze.s:7835   .debug_str:000000000000015a .LASF15
     /tmp/cc6ZYyze.s:8059   .debug_str:000000000000078e .LASF16
     /tmp/cc6ZYyze.s:7871   .debug_str:0000000000000255 .LASF17
     /tmp/cc6ZYyze.s:8051   .debug_str:000000000000074b .LASF18
     /tmp/cc6ZYyze.s:7945   .debug_str:0000000000000482 .LASF19
     /tmp/cc6ZYyze.s:8093   .debug_str:0000000000000943 .LASF166
     /tmp/cc6ZYyze.s:7999   .debug_str:0000000000000615 .LASF20
     /tmp/cc6ZYyze.s:7833   .debug_str:0000000000000154 .LASF21
     /tmp/cc6ZYyze.s:8043   .debug_str:0000000000000714 .LASF22
     /tmp/cc6ZYyze.s:7839   .debug_str:0000000000000179 .LASF23
     /tmp/cc6ZYyze.s:7793   .debug_str:0000000000000012 .LASF24
     /tmp/cc6ZYyze.s:7827   .debug_str:0000000000000129 .LASF25
     /tmp/cc6ZYyze.s:7893   .debug_str:00000000000002e8 .LASF26
     /tmp/cc6ZYyze.s:8061   .debug_str:000000000000079a .LASF61
     /tmp/cc6ZYyze.s:7795   .debug_str:000000000000001a .LASF66
     /tmp/cc6ZYyze.s:8087   .debug_str:0000000000000909 .LASF63
     /tmp/cc6ZYyze.s:7923   .debug_str:00000000000003f1 .LASF27
     /tmp/cc6ZYyze.s:8131   .debug_str:0000000000000a69 .LASF29
     /tmp/cc6ZYyze.s:7845   .debug_str:00000000000001a7 .LASF31
     /tmp/cc6ZYyze.s:8071   .debug_str:00000000000007cb .LASF33
     /tmp/cc6ZYyze.s:7857   .debug_str:00000000000001fa .LASF28
     /tmp/cc6ZYyze.s:7831   .debug_str:0000000000000140 .LASF30
     /tmp/cc6ZYyze.s:7909   .debug_str:0000000000000363 .LASF32
     /tmp/cc6ZYyze.s:8073   .debug_str:00000000000007df .LASF34
     /tmp/cc6ZYyze.s:8109   .debug_str:00000000000009c7 .LASF35
     /tmp/cc6ZYyze.s:7875   .debug_str:0000000000000274 .LASF36
     /tmp/cc6ZYyze.s:8015   .debug_str:0000000000000673 .LASF37
     /tmp/cc6ZYyze.s:8067   .debug_str:00000000000007b1 .LASF38
     /tmp/cc6ZYyze.s:7943   .debug_str:0000000000000478 .LASF39
     /tmp/cc6ZYyze.s:7901   .debug_str:0000000000000320 .LASF40
     /tmp/cc6ZYyze.s:8105   .debug_str:00000000000009b0 .LASF41
     /tmp/cc6ZYyze.s:7965   .debug_str:0000000000000503 .LASF42
     /tmp/cc6ZYyze.s:7973   .debug_str:0000000000000550 .LASF167
     /tmp/cc6ZYyze.s:7927   .debug_str:0000000000000409 .LASF43
     /tmp/cc6ZYyze.s:7929   .debug_str:000000000000040f .LASF45
     /tmp/cc6ZYyze.s:7863   .debug_str:0000000000000230 .LASF44
     /tmp/cc6ZYyze.s:7811   .debug_str:0000000000000084 .LASF46
     /tmp/cc6ZYyze.s:8039   .debug_str:00000000000006fb .LASF47
     /tmp/cc6ZYyze.s:8047   .debug_str:0000000000000724 .LASF48
     /tmp/cc6ZYyze.s:8021   .debug_str:000000000000069a .LASF49
GAS LISTING /tmp/cc6ZYyze.s 			page 68


     /tmp/cc6ZYyze.s:7979   .debug_str:000000000000057d .LASF50
     /tmp/cc6ZYyze.s:8075   .debug_str:00000000000007fa .LASF51
     /tmp/cc6ZYyze.s:8135   .debug_str:0000000000000a7d .LASF52
     /tmp/cc6ZYyze.s:7949   .debug_str:000000000000048d .LASF168
     /tmp/cc6ZYyze.s:8103   .debug_str:0000000000000999 .LASF169
     /tmp/cc6ZYyze.s:7797   .debug_str:000000000000002f .LASF53
     /tmp/cc6ZYyze.s:8099   .debug_str:000000000000097e .LASF54
     /tmp/cc6ZYyze.s:7947   .debug_str:0000000000000487 .LASF55
     /tmp/cc6ZYyze.s:8091   .debug_str:000000000000093b .LASF56
     /tmp/cc6ZYyze.s:7869   .debug_str:000000000000024f .LASF57
     /tmp/cc6ZYyze.s:7865   .debug_str:0000000000000239 .LASF58
     /tmp/cc6ZYyze.s:8115   .debug_str:0000000000000a0f .LASF59
     /tmp/cc6ZYyze.s:7939   .debug_str:000000000000045e .LASF60
     /tmp/cc6ZYyze.s:7829   .debug_str:0000000000000132 .LASF170
     /tmp/cc6ZYyze.s:7819   .debug_str:00000000000000b7 .LASF171
     /tmp/cc6ZYyze.s:7851   .debug_str:00000000000001d0 .LASF62
     /tmp/cc6ZYyze.s:7821   .debug_str:00000000000000d0 .LASF64
     /tmp/cc6ZYyze.s:7817   .debug_str:00000000000000b1 .LASF65
     /tmp/cc6ZYyze.s:7985   .debug_str:00000000000005bc .LASF67
     /tmp/cc6ZYyze.s:8023   .debug_str:00000000000006a3 .LASF172
     /tmp/cc6ZYyze.s:8141   .debug_str:0000000000000a96 .LASF68
     /tmp/cc6ZYyze.s:8065   .debug_str:00000000000007ac .LASF69
     /tmp/cc6ZYyze.s:8025   .debug_str:00000000000006ae .LASF70
     /tmp/cc6ZYyze.s:7957   .debug_str:00000000000004ca .LASF71
     /tmp/cc6ZYyze.s:8029   .debug_str:00000000000006bf .LASF72
     /tmp/cc6ZYyze.s:8031   .debug_str:00000000000006c9 .LASF73
     /tmp/cc6ZYyze.s:8133   .debug_str:0000000000000a75 .LASF74
     /tmp/cc6ZYyze.s:7977   .debug_str:000000000000056b .LASF75
     /tmp/cc6ZYyze.s:7881   .debug_str:000000000000029c .LASF76
     /tmp/cc6ZYyze.s:7993   .debug_str:00000000000005f0 .LASF77
     /tmp/cc6ZYyze.s:8113   .debug_str:00000000000009f3 .LASF78
     /tmp/cc6ZYyze.s:7859   .debug_str:0000000000000204 .LASF79
     /tmp/cc6ZYyze.s:7921   .debug_str:00000000000003df .LASF91
     /tmp/cc6ZYyze.s:8013   .debug_str:000000000000066a .LASF80
     /tmp/cc6ZYyze.s:8123   .debug_str:0000000000000a43 .LASF104
     /tmp/cc6ZYyze.s:7899   .debug_str:0000000000000319 .LASF81
     /tmp/cc6ZYyze.s:7843   .debug_str:0000000000000195 .LASF82
     /tmp/cc6ZYyze.s:8007   .debug_str:000000000000064b .LASF173
     /tmp/cc6ZYyze.s:8147   .debug_str:0000000000000abe .LASF83
     /tmp/cc6ZYyze.s:8045   .debug_str:000000000000071c .LASF174
     /tmp/cc6ZYyze.s:7883   .debug_str:00000000000002af .LASF175
     /tmp/cc6ZYyze.s:8125   .debug_str:0000000000000a53 .LASF84
     /tmp/cc6ZYyze.s:7803   .debug_str:0000000000000050 .LASF85
     /tmp/cc6ZYyze.s:8069   .debug_str:00000000000007c6 .LASF86
     /tmp/cc6ZYyze.s:7997   .debug_str:0000000000000603 .LASF87
     /tmp/cc6ZYyze.s:7975   .debug_str:0000000000000555 .LASF88
     /tmp/cc6ZYyze.s:8083   .debug_str:00000000000008e6 .LASF89
     /tmp/cc6ZYyze.s:8145   .debug_str:0000000000000aaf .LASF90
     /tmp/cc6ZYyze.s:8117   .debug_str:0000000000000a16 .LASF92
     /tmp/cc6ZYyze.s:7873   .debug_str:000000000000026b .LASF93
     /tmp/cc6ZYyze.s:7867   .debug_str:0000000000000240 .LASF94
     /tmp/cc6ZYyze.s:8089   .debug_str:000000000000091d .LASF95
     /tmp/cc6ZYyze.s:7813   .debug_str:0000000000000097 .LASF96
     /tmp/cc6ZYyze.s:7815   .debug_str:000000000000009f .LASF97
     /tmp/cc6ZYyze.s:7967   .debug_str:0000000000000526 .LASF98
     /tmp/cc6ZYyze.s:7991   .debug_str:00000000000005e4 .LASF99
     /tmp/cc6ZYyze.s:7915   .debug_str:0000000000000396 .LASF100
GAS LISTING /tmp/cc6ZYyze.s 			page 69


     /tmp/cc6ZYyze.s:7941   .debug_str:0000000000000468 .LASF101
     /tmp/cc6ZYyze.s:8101   .debug_str:0000000000000987 .LASF102
     /tmp/cc6ZYyze.s:8011   .debug_str:0000000000000661 .LASF103
     /tmp/cc6ZYyze.s:7903   .debug_str:0000000000000336 .LASF105
     /tmp/cc6ZYyze.s:8129   .debug_str:0000000000000a61 .LASF106
     /tmp/cc6ZYyze.s:7955   .debug_str:00000000000004b8 .LASF107
     /tmp/cc6ZYyze.s:7959   .debug_str:00000000000004d4 .LASF108
     /tmp/cc6ZYyze.s:7989   .debug_str:00000000000005d8 .LASF109
     /tmp/cc6ZYyze.s:8111   .debug_str:00000000000009d7 .LASF110
     /tmp/cc6ZYyze.s:8085   .debug_str:00000000000008f9 .LASF111
     /tmp/cc6ZYyze.s:7911   .debug_str:0000000000000372 .LASF112
     /tmp/cc6ZYyze.s:8009   .debug_str:0000000000000658 .LASF113
     /tmp/cc6ZYyze.s:8041   .debug_str:0000000000000704 .LASF114
     /tmp/cc6ZYyze.s:8127   .debug_str:0000000000000a59 .LASF115
     /tmp/cc6ZYyze.s:7791   .debug_str:0000000000000000 .LASF116
     /tmp/cc6ZYyze.s:7841   .debug_str:0000000000000182 .LASF117
     /tmp/cc6ZYyze.s:7987   .debug_str:00000000000005cc .LASF118
     /tmp/cc6ZYyze.s:7861   .debug_str:0000000000000214 .LASF119
     /tmp/cc6ZYyze.s:7855   .debug_str:00000000000001ea .LASF120
     /tmp/cc6ZYyze.s:8095   .debug_str:000000000000094f .LASF121
     /tmp/cc6ZYyze.s:8107   .debug_str:00000000000009be .LASF122
     /tmp/cc6ZYyze.s:8143   .debug_str:0000000000000a9f .LASF123
     /tmp/cc6ZYyze.s:7905   .debug_str:0000000000000346 .LASF176
     /tmp/cc6ZYyze.s:7889   .debug_str:00000000000002d3 .LASF124
     /tmp/cc6ZYyze.s:7805   .debug_str:0000000000000063 .LASF125
     /tmp/cc6ZYyze.s:8077   .debug_str:0000000000000802 .LASF126
     /tmp/cc6ZYyze.s:893    .text._ZN7WorkerAD0Ev:000000000000007c .LFE85
     /tmp/cc6ZYyze.s:6766   .debug_loc:0000000000000000 .LLST37
     /tmp/cc6ZYyze.s:825    .text._ZN7WorkerAD0Ev:000000000000001c .LBB175
     /tmp/cc6ZYyze.s:872    .text._ZN7WorkerAD0Ev:0000000000000058 .LBE175
     /tmp/cc6ZYyze.s:6784   .debug_loc:000000000000004c .LLST38
     /tmp/cc6ZYyze.s:827    .text._ZN7WorkerAD0Ev:000000000000001c .LBB177
     /tmp/cc6ZYyze.s:870    .text._ZN7WorkerAD0Ev:0000000000000058 .LBE177
     /tmp/cc6ZYyze.s:835    .text._ZN7WorkerAD0Ev:000000000000002c .LBB179
     /tmp/cc6ZYyze.s:843    .text._ZN7WorkerAD0Ev:0000000000000034 .LBE179
     /tmp/cc6ZYyze.s:6795   .debug_loc:0000000000000082 .LLST40
     /tmp/cc6ZYyze.s:6803   .debug_loc:00000000000000a6 .LLST41
     /tmp/cc6ZYyze.s:850    .text._ZN7WorkerAD0Ev:000000000000003c .LBB181
     /tmp/cc6ZYyze.s:863    .text._ZN7WorkerAD0Ev:000000000000004c .LBE181
     /tmp/cc6ZYyze.s:6810   .debug_loc:00000000000000c9 .LLST42
     /tmp/cc6ZYyze.s:860    .text._ZN7WorkerAD0Ev:000000000000004c .LVL75
     /tmp/cc6ZYyze.s:867    .text._ZN7WorkerAD0Ev:0000000000000058 .LVL76
     /tmp/cc6ZYyze.s:877    .text._ZN7WorkerAD0Ev:0000000000000064 .LVL77
     /tmp/cc6ZYyze.s:7937   .debug_str:000000000000044e .LASF127
     /tmp/cc6ZYyze.s:233    .text._ZN7WorkerAD2Ev:0000000000000000 .LFB83
     /tmp/cc6ZYyze.s:308    .text._ZN7WorkerAD2Ev:0000000000000064 .LFE83
     /tmp/cc6ZYyze.s:6817   .debug_loc:00000000000000ec .LLST6
     /tmp/cc6ZYyze.s:251    .text._ZN7WorkerAD2Ev:0000000000000014 .LBB85
     /tmp/cc6ZYyze.s:294    .text._ZN7WorkerAD2Ev:0000000000000050 .LBE85
     /tmp/cc6ZYyze.s:6831   .debug_loc:0000000000000125 .LLST7
     /tmp/cc6ZYyze.s:259    .text._ZN7WorkerAD2Ev:0000000000000024 .LBB87
     /tmp/cc6ZYyze.s:267    .text._ZN7WorkerAD2Ev:000000000000002c .LBE87
     /tmp/cc6ZYyze.s:6845   .debug_loc:000000000000015e .LLST8
     /tmp/cc6ZYyze.s:6853   .debug_loc:0000000000000182 .LLST9
     /tmp/cc6ZYyze.s:274    .text._ZN7WorkerAD2Ev:0000000000000034 .LBB89
     /tmp/cc6ZYyze.s:287    .text._ZN7WorkerAD2Ev:0000000000000044 .LBE89
     /tmp/cc6ZYyze.s:6860   .debug_loc:00000000000001a5 .LLST10
GAS LISTING /tmp/cc6ZYyze.s 			page 70


     /tmp/cc6ZYyze.s:284    .text._ZN7WorkerAD2Ev:0000000000000044 .LVL23
     /tmp/cc6ZYyze.s:291    .text._ZN7WorkerAD2Ev:0000000000000050 .LVL24
     /tmp/cc6ZYyze.s:7931   .debug_str:000000000000041f .LASF128
     /tmp/cc6ZYyze.s:787    .text._ZN7WorkerBD0Ev:000000000000007c .LFE81
     /tmp/cc6ZYyze.s:6867   .debug_loc:00000000000001c8 .LLST31
     /tmp/cc6ZYyze.s:719    .text._ZN7WorkerBD0Ev:000000000000001c .LBB158
     /tmp/cc6ZYyze.s:766    .text._ZN7WorkerBD0Ev:0000000000000058 .LBE158
     /tmp/cc6ZYyze.s:6885   .debug_loc:0000000000000214 .LLST32
     /tmp/cc6ZYyze.s:721    .text._ZN7WorkerBD0Ev:000000000000001c .LBB160
     /tmp/cc6ZYyze.s:764    .text._ZN7WorkerBD0Ev:0000000000000058 .LBE160
     /tmp/cc6ZYyze.s:729    .text._ZN7WorkerBD0Ev:000000000000002c .LBB162
     /tmp/cc6ZYyze.s:737    .text._ZN7WorkerBD0Ev:0000000000000034 .LBE162
     /tmp/cc6ZYyze.s:6896   .debug_loc:000000000000024a .LLST34
     /tmp/cc6ZYyze.s:6904   .debug_loc:000000000000026e .LLST35
     /tmp/cc6ZYyze.s:744    .text._ZN7WorkerBD0Ev:000000000000003c .LBB164
     /tmp/cc6ZYyze.s:757    .text._ZN7WorkerBD0Ev:000000000000004c .LBE164
     /tmp/cc6ZYyze.s:6911   .debug_loc:0000000000000291 .LLST36
     /tmp/cc6ZYyze.s:754    .text._ZN7WorkerBD0Ev:000000000000004c .LVL65
     /tmp/cc6ZYyze.s:761    .text._ZN7WorkerBD0Ev:0000000000000058 .LVL66
     /tmp/cc6ZYyze.s:771    .text._ZN7WorkerBD0Ev:0000000000000064 .LVL67
     /tmp/cc6ZYyze.s:7825   .debug_str:0000000000000119 .LASF129
     /tmp/cc6ZYyze.s:506    .text._ZN7WorkerBD2Ev:0000000000000000 .LFB79
     /tmp/cc6ZYyze.s:581    .text._ZN7WorkerBD2Ev:0000000000000064 .LFE79
     /tmp/cc6ZYyze.s:6918   .debug_loc:00000000000002b4 .LLST21
     /tmp/cc6ZYyze.s:524    .text._ZN7WorkerBD2Ev:0000000000000014 .LBB130
     /tmp/cc6ZYyze.s:567    .text._ZN7WorkerBD2Ev:0000000000000050 .LBE130
     /tmp/cc6ZYyze.s:6932   .debug_loc:00000000000002ed .LLST22
     /tmp/cc6ZYyze.s:532    .text._ZN7WorkerBD2Ev:0000000000000024 .LBB132
     /tmp/cc6ZYyze.s:540    .text._ZN7WorkerBD2Ev:000000000000002c .LBE132
     /tmp/cc6ZYyze.s:6946   .debug_loc:0000000000000326 .LLST23
     /tmp/cc6ZYyze.s:6954   .debug_loc:000000000000034a .LLST24
     /tmp/cc6ZYyze.s:547    .text._ZN7WorkerBD2Ev:0000000000000034 .LBB134
     /tmp/cc6ZYyze.s:560    .text._ZN7WorkerBD2Ev:0000000000000044 .LBE134
     /tmp/cc6ZYyze.s:6961   .debug_loc:000000000000036d .LLST25
     /tmp/cc6ZYyze.s:557    .text._ZN7WorkerBD2Ev:0000000000000044 .LVL47
     /tmp/cc6ZYyze.s:564    .text._ZN7WorkerBD2Ev:0000000000000050 .LVL48
     /tmp/cc6ZYyze.s:7809   .debug_str:0000000000000074 .LASF130
     /tmp/cc6ZYyze.s:1105   .text._ZN7WorkerCD0Ev:000000000000007c .LFE77
     /tmp/cc6ZYyze.s:6968   .debug_loc:0000000000000390 .LLST49
     /tmp/cc6ZYyze.s:1037   .text._ZN7WorkerCD0Ev:000000000000001c .LBB209
     /tmp/cc6ZYyze.s:1084   .text._ZN7WorkerCD0Ev:0000000000000058 .LBE209
     /tmp/cc6ZYyze.s:6986   .debug_loc:00000000000003dc .LLST50
     /tmp/cc6ZYyze.s:1039   .text._ZN7WorkerCD0Ev:000000000000001c .LBB211
     /tmp/cc6ZYyze.s:1082   .text._ZN7WorkerCD0Ev:0000000000000058 .LBE211
     /tmp/cc6ZYyze.s:1047   .text._ZN7WorkerCD0Ev:000000000000002c .LBB213
     /tmp/cc6ZYyze.s:1055   .text._ZN7WorkerCD0Ev:0000000000000034 .LBE213
     /tmp/cc6ZYyze.s:6997   .debug_loc:0000000000000412 .LLST52
     /tmp/cc6ZYyze.s:7005   .debug_loc:0000000000000436 .LLST53
     /tmp/cc6ZYyze.s:1062   .text._ZN7WorkerCD0Ev:000000000000003c .LBB215
     /tmp/cc6ZYyze.s:1075   .text._ZN7WorkerCD0Ev:000000000000004c .LBE215
     /tmp/cc6ZYyze.s:7012   .debug_loc:0000000000000459 .LLST54
     /tmp/cc6ZYyze.s:1072   .text._ZN7WorkerCD0Ev:000000000000004c .LVL95
     /tmp/cc6ZYyze.s:1079   .text._ZN7WorkerCD0Ev:0000000000000058 .LVL96
     /tmp/cc6ZYyze.s:1089   .text._ZN7WorkerCD0Ev:0000000000000064 .LVL97
     /tmp/cc6ZYyze.s:8037   .debug_str:00000000000006eb .LASF131
     /tmp/cc6ZYyze.s:415    .text._ZN7WorkerCD2Ev:0000000000000000 .LFB75
     /tmp/cc6ZYyze.s:490    .text._ZN7WorkerCD2Ev:0000000000000064 .LFE75
GAS LISTING /tmp/cc6ZYyze.s 			page 71


     /tmp/cc6ZYyze.s:7019   .debug_loc:000000000000047c .LLST16
     /tmp/cc6ZYyze.s:433    .text._ZN7WorkerCD2Ev:0000000000000014 .LBB115
     /tmp/cc6ZYyze.s:476    .text._ZN7WorkerCD2Ev:0000000000000050 .LBE115
     /tmp/cc6ZYyze.s:7033   .debug_loc:00000000000004b5 .LLST17
     /tmp/cc6ZYyze.s:441    .text._ZN7WorkerCD2Ev:0000000000000024 .LBB117
     /tmp/cc6ZYyze.s:449    .text._ZN7WorkerCD2Ev:000000000000002c .LBE117
     /tmp/cc6ZYyze.s:7047   .debug_loc:00000000000004ee .LLST18
     /tmp/cc6ZYyze.s:7055   .debug_loc:0000000000000512 .LLST19
     /tmp/cc6ZYyze.s:456    .text._ZN7WorkerCD2Ev:0000000000000034 .LBB119
     /tmp/cc6ZYyze.s:469    .text._ZN7WorkerCD2Ev:0000000000000044 .LBE119
     /tmp/cc6ZYyze.s:7062   .debug_loc:0000000000000535 .LLST20
     /tmp/cc6ZYyze.s:466    .text._ZN7WorkerCD2Ev:0000000000000044 .LVL39
     /tmp/cc6ZYyze.s:473    .text._ZN7WorkerCD2Ev:0000000000000050 .LVL40
     /tmp/cc6ZYyze.s:8033   .debug_str:00000000000006d3 .LASF132
     /tmp/cc6ZYyze.s:999    .text._ZN7WorkerDD0Ev:000000000000007c .LFE73
     /tmp/cc6ZYyze.s:7069   .debug_loc:0000000000000558 .LLST43
     /tmp/cc6ZYyze.s:931    .text._ZN7WorkerDD0Ev:000000000000001c .LBB192
     /tmp/cc6ZYyze.s:978    .text._ZN7WorkerDD0Ev:0000000000000058 .LBE192
     /tmp/cc6ZYyze.s:7087   .debug_loc:00000000000005a4 .LLST44
     /tmp/cc6ZYyze.s:933    .text._ZN7WorkerDD0Ev:000000000000001c .LBB194
     /tmp/cc6ZYyze.s:976    .text._ZN7WorkerDD0Ev:0000000000000058 .LBE194
     /tmp/cc6ZYyze.s:941    .text._ZN7WorkerDD0Ev:000000000000002c .LBB196
     /tmp/cc6ZYyze.s:949    .text._ZN7WorkerDD0Ev:0000000000000034 .LBE196
     /tmp/cc6ZYyze.s:7098   .debug_loc:00000000000005da .LLST46
     /tmp/cc6ZYyze.s:7106   .debug_loc:00000000000005fe .LLST47
     /tmp/cc6ZYyze.s:956    .text._ZN7WorkerDD0Ev:000000000000003c .LBB198
     /tmp/cc6ZYyze.s:969    .text._ZN7WorkerDD0Ev:000000000000004c .LBE198
     /tmp/cc6ZYyze.s:7113   .debug_loc:0000000000000621 .LLST48
     /tmp/cc6ZYyze.s:966    .text._ZN7WorkerDD0Ev:000000000000004c .LVL85
     /tmp/cc6ZYyze.s:973    .text._ZN7WorkerDD0Ev:0000000000000058 .LVL86
     /tmp/cc6ZYyze.s:983    .text._ZN7WorkerDD0Ev:0000000000000064 .LVL87
     /tmp/cc6ZYyze.s:8119   .debug_str:0000000000000a27 .LASF133
     /tmp/cc6ZYyze.s:324    .text._ZN7WorkerDD2Ev:0000000000000000 .LFB71
     /tmp/cc6ZYyze.s:399    .text._ZN7WorkerDD2Ev:0000000000000064 .LFE71
     /tmp/cc6ZYyze.s:7120   .debug_loc:0000000000000644 .LLST11
     /tmp/cc6ZYyze.s:342    .text._ZN7WorkerDD2Ev:0000000000000014 .LBB100
     /tmp/cc6ZYyze.s:385    .text._ZN7WorkerDD2Ev:0000000000000050 .LBE100
     /tmp/cc6ZYyze.s:7134   .debug_loc:000000000000067d .LLST12
     /tmp/cc6ZYyze.s:350    .text._ZN7WorkerDD2Ev:0000000000000024 .LBB102
     /tmp/cc6ZYyze.s:358    .text._ZN7WorkerDD2Ev:000000000000002c .LBE102
     /tmp/cc6ZYyze.s:7148   .debug_loc:00000000000006b6 .LLST13
     /tmp/cc6ZYyze.s:7156   .debug_loc:00000000000006da .LLST14
     /tmp/cc6ZYyze.s:365    .text._ZN7WorkerDD2Ev:0000000000000034 .LBB104
     /tmp/cc6ZYyze.s:378    .text._ZN7WorkerDD2Ev:0000000000000044 .LBE104
     /tmp/cc6ZYyze.s:7163   .debug_loc:00000000000006fd .LLST15
     /tmp/cc6ZYyze.s:375    .text._ZN7WorkerDD2Ev:0000000000000044 .LVL31
     /tmp/cc6ZYyze.s:382    .text._ZN7WorkerDD2Ev:0000000000000050 .LVL32
     /tmp/cc6ZYyze.s:7961   .debug_str:00000000000004e7 .LASF134
     /tmp/cc6ZYyze.s:7917   .debug_str:00000000000003b2 .LASF135
     /tmp/cc6ZYyze.s:1909   .text:00000000000004dc .LFB69
     /tmp/cc6ZYyze.s:2151   .text:0000000000000678 .LFE69
     /tmp/cc6ZYyze.s:8035   .debug_str:00000000000006e3 .LASF136
     /tmp/cc6ZYyze.s:2048   .text:00000000000005c8 .LBB249
     /tmp/cc6ZYyze.s:2082   .text:0000000000000600 .LBE249
     /tmp/cc6ZYyze.s:7170   .debug_loc:0000000000000720 .LLST86
     /tmp/cc6ZYyze.s:2063   .text:00000000000005e4 .LBB250
     /tmp/cc6ZYyze.s:2075   .text:00000000000005f8 .LBE250
GAS LISTING /tmp/cc6ZYyze.s 			page 72


     /tmp/cc6ZYyze.s:7181   .debug_loc:0000000000000756 .LLST87
     /tmp/cc6ZYyze.s:2072   .text:00000000000005f8 .LVL211
     /tmp/cc6ZYyze.s:2116   .text:0000000000000640 .LBB254
     /tmp/cc6ZYyze.s:2137   .text:0000000000000664 .LBE254
     /tmp/cc6ZYyze.s:7877   .debug_str:000000000000028f .LASF137
     /tmp/cc6ZYyze.s:7193   .debug_loc:000000000000078d .LLST88
     /tmp/cc6ZYyze.s:8053   .debug_str:0000000000000761 .LASF138
     /tmp/cc6ZYyze.s:7801   .debug_str:0000000000000044 .LASF177
     /tmp/cc6ZYyze.s:7200   .debug_loc:00000000000007b0 .LLST89
     /tmp/cc6ZYyze.s:8063   .debug_str:00000000000007a2 .LASF139
     /tmp/cc6ZYyze.s:1928   .text:00000000000004fc .LBB233
     /tmp/cc6ZYyze.s:1947   .text:0000000000000518 .LBE233
     /tmp/cc6ZYyze.s:7207   .debug_loc:00000000000007d3 .LLST78
     /tmp/cc6ZYyze.s:1930   .text:00000000000004fc .LBB235
     /tmp/cc6ZYyze.s:1941   .text:000000000000050c .LBE235
     /tmp/cc6ZYyze.s:7214   .debug_loc:00000000000007f6 .LLST79
     /tmp/cc6ZYyze.s:1960   .text:0000000000000538 .LBB237
     /tmp/cc6ZYyze.s:1978   .text:000000000000054c .LBE237
     /tmp/cc6ZYyze.s:7221   .debug_loc:0000000000000819 .LLST80
     /tmp/cc6ZYyze.s:1962   .text:0000000000000538 .LBB239
     /tmp/cc6ZYyze.s:1972   .text:0000000000000540 .LBE239
     /tmp/cc6ZYyze.s:7228   .debug_loc:000000000000083c .LLST81
     /tmp/cc6ZYyze.s:1991   .text:000000000000056c .LBB241
     /tmp/cc6ZYyze.s:2009   .text:0000000000000580 .LBE241
     /tmp/cc6ZYyze.s:7235   .debug_loc:000000000000085f .LLST82
     /tmp/cc6ZYyze.s:1993   .text:000000000000056c .LBB243
     /tmp/cc6ZYyze.s:2003   .text:0000000000000574 .LBE243
     /tmp/cc6ZYyze.s:7242   .debug_loc:0000000000000882 .LLST83
     /tmp/cc6ZYyze.s:2022   .text:00000000000005a0 .LBB245
     /tmp/cc6ZYyze.s:2040   .text:00000000000005b4 .LBE245
     /tmp/cc6ZYyze.s:7249   .debug_loc:00000000000008a5 .LLST84
     /tmp/cc6ZYyze.s:2024   .text:00000000000005a0 .LBB247
     /tmp/cc6ZYyze.s:2034   .text:00000000000005a8 .LBE247
     /tmp/cc6ZYyze.s:7256   .debug_loc:00000000000008c8 .LLST85
     /tmp/cc6ZYyze.s:2084   .text:0000000000000600 .LBB252
     /tmp/cc6ZYyze.s:2092   .text:0000000000000608 .LBE252
     /tmp/cc6ZYyze.s:2089   .text:0000000000000608 .LVL214
     /tmp/cc6ZYyze.s:1927   .text:00000000000004fc .LVL192
     /tmp/cc6ZYyze.s:1954   .text:000000000000052c .LVL195
     /tmp/cc6ZYyze.s:1959   .text:0000000000000538 .LVL196
     /tmp/cc6ZYyze.s:1985   .text:0000000000000560 .LVL199
     /tmp/cc6ZYyze.s:1990   .text:000000000000056c .LVL200
     /tmp/cc6ZYyze.s:2016   .text:0000000000000594 .LVL203
     /tmp/cc6ZYyze.s:2021   .text:00000000000005a0 .LVL204
     /tmp/cc6ZYyze.s:2047   .text:00000000000005c8 .LVL207
     /tmp/cc6ZYyze.s:1706   .text:0000000000000394 .LFB68
     /tmp/cc6ZYyze.s:1855   .text:00000000000004dc .LFE68
     /tmp/cc6ZYyze.s:7263   .debug_loc:00000000000008eb .LLST73
     /tmp/cc6ZYyze.s:7277   .debug_loc:0000000000000924 .LLST74
     /tmp/cc6ZYyze.s:7291   .debug_loc:000000000000095d .LLST75
     /tmp/cc6ZYyze.s:8139   .debug_str:0000000000000a8f .LASF140
     /tmp/cc6ZYyze.s:7311   .debug_loc:00000000000009ba .LLST76
     /tmp/cc6ZYyze.s:1733   .text:00000000000003c4 .LVL168
     /tmp/cc6ZYyze.s:1740   .text:00000000000003d8 .LVL169
     /tmp/cc6ZYyze.s:1745   .text:00000000000003e8 .LVL170
     /tmp/cc6ZYyze.s:1760   .text:0000000000000408 .LVL173
     /tmp/cc6ZYyze.s:1771   .text:0000000000000414 .LVL174
GAS LISTING /tmp/cc6ZYyze.s 			page 73


     /tmp/cc6ZYyze.s:1776   .text:0000000000000420 .LVL175
     /tmp/cc6ZYyze.s:1784   .text:0000000000000434 .LVL178
     /tmp/cc6ZYyze.s:1791   .text:0000000000000448 .LVL179
     /tmp/cc6ZYyze.s:1796   .text:0000000000000458 .LVL180
     /tmp/cc6ZYyze.s:1803   .text:000000000000046c .LVL181
     /tmp/cc6ZYyze.s:1810   .text:0000000000000480 .LVL182
     /tmp/cc6ZYyze.s:1815   .text:0000000000000490 .LVL183
     /tmp/cc6ZYyze.s:1830   .text:00000000000004b0 .LVL186
     /tmp/cc6ZYyze.s:1838   .text:00000000000004c4 .LVL187
     /tmp/cc6ZYyze.s:1477   .text:0000000000000214 .LFB67
     /tmp/cc6ZYyze.s:1652   .text:0000000000000394 .LFE67
     /tmp/cc6ZYyze.s:7322   .debug_loc:00000000000009f0 .LLST67
     /tmp/cc6ZYyze.s:7336   .debug_loc:0000000000000a29 .LLST68
     /tmp/cc6ZYyze.s:7350   .debug_loc:0000000000000a62 .LLST69
     /tmp/cc6ZYyze.s:7370   .debug_loc:0000000000000abf .LLST70
     /tmp/cc6ZYyze.s:7378   .debug_loc:0000000000000ae3 .LLST71
     /tmp/cc6ZYyze.s:1504   .text:0000000000000244 .LVL137
     /tmp/cc6ZYyze.s:1511   .text:0000000000000258 .LVL138
     /tmp/cc6ZYyze.s:1516   .text:0000000000000268 .LVL139
     /tmp/cc6ZYyze.s:1531   .text:0000000000000288 .LVL142
     /tmp/cc6ZYyze.s:1542   .text:0000000000000294 .LVL143
     /tmp/cc6ZYyze.s:1556   .text:00000000000002a8 .LVL145
     /tmp/cc6ZYyze.s:1563   .text:00000000000002bc .LVL146
     /tmp/cc6ZYyze.s:1568   .text:00000000000002cc .LVL147
     /tmp/cc6ZYyze.s:1573   .text:00000000000002d8 .LVL148
     /tmp/cc6ZYyze.s:1581   .text:00000000000002ec .LVL151
     /tmp/cc6ZYyze.s:1588   .text:0000000000000300 .LVL152
     /tmp/cc6ZYyze.s:1593   .text:0000000000000310 .LVL153
     /tmp/cc6ZYyze.s:1600   .text:0000000000000324 .LVL154
     /tmp/cc6ZYyze.s:1607   .text:0000000000000338 .LVL155
     /tmp/cc6ZYyze.s:1612   .text:0000000000000348 .LVL156
     /tmp/cc6ZYyze.s:1627   .text:0000000000000368 .LVL159
     /tmp/cc6ZYyze.s:1635   .text:000000000000037c .LVL160
     /tmp/cc6ZYyze.s:1300   .text:0000000000000140 .LFB66
     /tmp/cc6ZYyze.s:1423   .text:0000000000000214 .LFE66
     /tmp/cc6ZYyze.s:7389   .debug_loc:0000000000000b19 .LLST61
     /tmp/cc6ZYyze.s:7403   .debug_loc:0000000000000b52 .LLST62
     /tmp/cc6ZYyze.s:1318   .text:0000000000000158 .LBB225
     /tmp/cc6ZYyze.s:1394   .text:00000000000001d8 .LBE225
     /tmp/cc6ZYyze.s:7417   .debug_loc:0000000000000b8b .LLST63
     /tmp/cc6ZYyze.s:7429   .debug_loc:0000000000000bc2 .LLST64
     /tmp/cc6ZYyze.s:1341   .text:0000000000000178 .LBB229
     /tmp/cc6ZYyze.s:1356   .text:0000000000000190 .LBE229
     /tmp/cc6ZYyze.s:7441   .debug_loc:0000000000000bf9 .LLST65
     /tmp/cc6ZYyze.s:1330   .text:0000000000000168 .LVL119
     /tmp/cc6ZYyze.s:1372   .text:00000000000001ac .LVL125
     /tmp/cc6ZYyze.s:1379   .text:00000000000001c0 .LVL126
     /tmp/cc6ZYyze.s:1384   .text:00000000000001d0 .LVL127
     /tmp/cc6ZYyze.s:1399   .text:00000000000001e8 .LVL129
     /tmp/cc6ZYyze.s:1407   .text:00000000000001fc .LVL130
     /tmp/cc6ZYyze.s:1133   .text:0000000000000074 .LFB65
     /tmp/cc6ZYyze.s:1252   .text:0000000000000140 .LFE65
     /tmp/cc6ZYyze.s:7452   .debug_loc:0000000000000c2f .LLST55
     /tmp/cc6ZYyze.s:7466   .debug_loc:0000000000000c68 .LLST56
     /tmp/cc6ZYyze.s:1151   .text:000000000000008c .LBB217
     /tmp/cc6ZYyze.s:1227   .text:000000000000010c .LBE217
     /tmp/cc6ZYyze.s:7480   .debug_loc:0000000000000ca1 .LLST57
GAS LISTING /tmp/cc6ZYyze.s 			page 74


     /tmp/cc6ZYyze.s:7492   .debug_loc:0000000000000cd8 .LLST58
     /tmp/cc6ZYyze.s:1174   .text:00000000000000ac .LBB221
     /tmp/cc6ZYyze.s:1189   .text:00000000000000c4 .LBE221
     /tmp/cc6ZYyze.s:7504   .debug_loc:0000000000000d0f .LLST59
     /tmp/cc6ZYyze.s:1163   .text:000000000000009c .LVL102
     /tmp/cc6ZYyze.s:1205   .text:00000000000000e0 .LVL108
     /tmp/cc6ZYyze.s:1212   .text:00000000000000f4 .LVL109
     /tmp/cc6ZYyze.s:1217   .text:0000000000000104 .LVL110
     /tmp/cc6ZYyze.s:1232   .text:000000000000011c .LVL112
     /tmp/cc6ZYyze.s:1862   .text._ZN7WorkerD3runEv:0000000000000000 .LFB64
     /tmp/cc6ZYyze.s:1889   .text._ZN7WorkerD3runEv:000000000000002c .LFE64
     /tmp/cc6ZYyze.s:7515   .debug_loc:0000000000000d45 .LLST77
     /tmp/cc6ZYyze.s:1878   .text._ZN7WorkerD3runEv:000000000000001c .LVL191
     /tmp/cc6ZYyze.s:7935   .debug_str:000000000000043e .LASF141
     /tmp/cc6ZYyze.s:1659   .text._ZN7WorkerC3runEv:0000000000000000 .LFB60
     /tmp/cc6ZYyze.s:1686   .text._ZN7WorkerC3runEv:000000000000002c .LFE60
     /tmp/cc6ZYyze.s:7529   .debug_loc:0000000000000d7e .LLST72
     /tmp/cc6ZYyze.s:1675   .text._ZN7WorkerC3runEv:000000000000001c .LVL164
     /tmp/cc6ZYyze.s:8081   .debug_str:00000000000008d6 .LASF142
     /tmp/cc6ZYyze.s:1430   .text._ZN7WorkerB3runEv:0000000000000000 .LFB56
     /tmp/cc6ZYyze.s:1457   .text._ZN7WorkerB3runEv:000000000000002c .LFE56
     /tmp/cc6ZYyze.s:7543   .debug_loc:0000000000000db7 .LLST66
     /tmp/cc6ZYyze.s:1446   .text._ZN7WorkerB3runEv:000000000000001c .LVL133
     /tmp/cc6ZYyze.s:7849   .debug_str:00000000000001c0 .LASF143
     /tmp/cc6ZYyze.s:1259   .text._ZN7WorkerA3runEv:0000000000000000 .LFB52
     /tmp/cc6ZYyze.s:1286   .text._ZN7WorkerA3runEv:000000000000002c .LFE52
     /tmp/cc6ZYyze.s:7557   .debug_loc:0000000000000df0 .LLST60
     /tmp/cc6ZYyze.s:1275   .text._ZN7WorkerA3runEv:000000000000001c .LVL115
     /tmp/cc6ZYyze.s:7969   .debug_str:0000000000000539 .LASF144
     /tmp/cc6ZYyze.s:7951   .debug_str:0000000000000499 .LASF178
     /tmp/cc6ZYyze.s:72     .text:0000000000000000 .LFB48
     /tmp/cc6ZYyze.s:138    .text:0000000000000074 .LFE48
     /tmp/cc6ZYyze.s:7571   .debug_loc:0000000000000e29 .LLST1
     /tmp/cc6ZYyze.s:105    .text:000000000000003c .LVL5
     /tmp/cc6ZYyze.s:110    .text:000000000000004c .LVL6
     /tmp/cc6ZYyze.s:135    .text:0000000000000070 .LVL9
     /tmp/cc6ZYyze.s:37     .text._ZN6Thread14thread_wrapperEPv:0000000000000000 .LFB38
     /tmp/cc6ZYyze.s:66     .text._ZN6Thread14thread_wrapperEPv:000000000000002c .LFE38
     /tmp/cc6ZYyze.s:7593   .debug_loc:0000000000000e88 .LLST0
     /tmp/cc6ZYyze.s:55     .text._ZN6Thread14thread_wrapperEPv:000000000000001c .LVL2
     /tmp/cc6ZYyze.s:11     .text._ZN6Thread3runEv:0000000000000000 .LFB37
     /tmp/cc6ZYyze.s:30     .text._ZN6Thread3runEv:0000000000000018 .LFE37
     /tmp/cc6ZYyze.s:8019   .debug_str:000000000000068b .LASF145
     /tmp/cc6ZYyze.s:7933   .debug_str:000000000000042f .LASF146
     /tmp/cc6ZYyze.s:681    .text._ZN6ThreadD0Ev:000000000000007c .LFE31
     /tmp/cc6ZYyze.s:7607   .debug_loc:0000000000000ec1 .LLST26
     /tmp/cc6ZYyze.s:617    .text._ZN6ThreadD0Ev:000000000000001c .LBB143
     /tmp/cc6ZYyze.s:660    .text._ZN6ThreadD0Ev:0000000000000058 .LBE143
     /tmp/cc6ZYyze.s:7625   .debug_loc:0000000000000f0d .LLST27
     /tmp/cc6ZYyze.s:625    .text._ZN6ThreadD0Ev:000000000000002c .LBB145
     /tmp/cc6ZYyze.s:633    .text._ZN6ThreadD0Ev:0000000000000034 .LBE145
     /tmp/cc6ZYyze.s:7636   .debug_loc:0000000000000f43 .LLST28
     /tmp/cc6ZYyze.s:7644   .debug_loc:0000000000000f67 .LLST29
     /tmp/cc6ZYyze.s:640    .text._ZN6ThreadD0Ev:000000000000003c .LBB147
     /tmp/cc6ZYyze.s:653    .text._ZN6ThreadD0Ev:000000000000004c .LBE147
     /tmp/cc6ZYyze.s:7651   .debug_loc:0000000000000f8a .LLST30
     /tmp/cc6ZYyze.s:650    .text._ZN6ThreadD0Ev:000000000000004c .LVL55
GAS LISTING /tmp/cc6ZYyze.s 			page 75


     /tmp/cc6ZYyze.s:657    .text._ZN6ThreadD0Ev:0000000000000058 .LVL56
     /tmp/cc6ZYyze.s:665    .text._ZN6ThreadD0Ev:0000000000000064 .LVL57
     /tmp/cc6ZYyze.s:8001   .debug_str:000000000000061d .LASF147
     /tmp/cc6ZYyze.s:145    .text._ZN6ThreadD2Ev:0000000000000000 .LFB29
     /tmp/cc6ZYyze.s:216    .text._ZN6ThreadD2Ev:0000000000000064 .LFE29
     /tmp/cc6ZYyze.s:7658   .debug_loc:0000000000000fad .LLST2
     /tmp/cc6ZYyze.s:168    .text._ZN6ThreadD2Ev:0000000000000024 .LBB72
     /tmp/cc6ZYyze.s:177    .text._ZN6ThreadD2Ev:000000000000002c .LBE72
     /tmp/cc6ZYyze.s:7672   .debug_loc:0000000000000fe6 .LLST3
     /tmp/cc6ZYyze.s:7680   .debug_loc:000000000000100a .LLST4
     /tmp/cc6ZYyze.s:184    .text._ZN6ThreadD2Ev:0000000000000034 .LBB74
     /tmp/cc6ZYyze.s:197    .text._ZN6ThreadD2Ev:0000000000000044 .LBE74
     /tmp/cc6ZYyze.s:7687   .debug_loc:000000000000102d .LLST5
     /tmp/cc6ZYyze.s:194    .text._ZN6ThreadD2Ev:0000000000000044 .LVL15
     /tmp/cc6ZYyze.s:201    .text._ZN6ThreadD2Ev:0000000000000050 .LVL16
     /tmp/cc6ZYyze.s:7853   .debug_str:00000000000001de .LASF148
     /tmp/cc6ZYyze.s:7963   .debug_str:00000000000004fc .LASF149
     /tmp/cc6ZYyze.s:8049   .debug_str:0000000000000738 .LASF151
     /tmp/cc6ZYyze.s:7971   .debug_str:0000000000000549 .LASF150
     /tmp/cc6ZYyze.s:7799   .debug_str:0000000000000034 .LASF152
     /tmp/cc6ZYyze.s:7823   .debug_str:00000000000000f8 .LASF153
     /tmp/cc6ZYyze.s:8057   .debug_str:0000000000000780 .LASF154
     /tmp/cc6ZYyze.s:7953   .debug_str:00000000000004a3 .LASF155
     /tmp/cc6ZYyze.s:8005   .debug_str:000000000000063b .LASF156
     /tmp/cc6ZYyze.s:7885   .debug_str:00000000000002be .LASF157
     /tmp/cc6ZYyze.s:8137   .debug_str:0000000000000a82 .LASF158
     /tmp/cc6ZYyze.s:8055   .debug_str:000000000000076d .LASF159
     /tmp/cc6ZYyze.s:8121   .debug_str:0000000000000a37 .LASF160
     /tmp/cc6ZYyze.s:8003   .debug_str:000000000000062c .LASF161
     /tmp/cc6ZYyze.s:7983   .debug_str:00000000000005b3 .LASF162
     /tmp/cc6ZYyze.s:810    .text._ZN7WorkerAD0Ev:0000000000000000 .LVL69
     /tmp/cc6ZYyze.s:855    .text._ZN7WorkerAD0Ev:0000000000000040 .LVL74
     /tmp/cc6ZYyze.s:886    .text._ZN7WorkerAD0Ev:0000000000000070 .LVL78
     /tmp/cc6ZYyze.s:824    .text._ZN7WorkerAD0Ev:000000000000001c .LVL70
     /tmp/cc6ZYyze.s:834    .text._ZN7WorkerAD0Ev:000000000000002c .LVL71
     /tmp/cc6ZYyze.s:841    .text._ZN7WorkerAD0Ev:0000000000000034 .LVL72
     /tmp/cc6ZYyze.s:849    .text._ZN7WorkerAD0Ev:000000000000003c .LVL73
     /tmp/cc6ZYyze.s:238    .text._ZN7WorkerAD2Ev:0000000000000000 .LVL17
     /tmp/cc6ZYyze.s:279    .text._ZN7WorkerAD2Ev:0000000000000038 .LVL22
     /tmp/cc6ZYyze.s:249    .text._ZN7WorkerAD2Ev:0000000000000014 .LVL18
     /tmp/cc6ZYyze.s:258    .text._ZN7WorkerAD2Ev:0000000000000024 .LVL19
     /tmp/cc6ZYyze.s:265    .text._ZN7WorkerAD2Ev:000000000000002c .LVL20
     /tmp/cc6ZYyze.s:273    .text._ZN7WorkerAD2Ev:0000000000000034 .LVL21
     /tmp/cc6ZYyze.s:704    .text._ZN7WorkerBD0Ev:0000000000000000 .LVL59
     /tmp/cc6ZYyze.s:749    .text._ZN7WorkerBD0Ev:0000000000000040 .LVL64
     /tmp/cc6ZYyze.s:780    .text._ZN7WorkerBD0Ev:0000000000000070 .LVL68
     /tmp/cc6ZYyze.s:718    .text._ZN7WorkerBD0Ev:000000000000001c .LVL60
     /tmp/cc6ZYyze.s:728    .text._ZN7WorkerBD0Ev:000000000000002c .LVL61
     /tmp/cc6ZYyze.s:735    .text._ZN7WorkerBD0Ev:0000000000000034 .LVL62
     /tmp/cc6ZYyze.s:743    .text._ZN7WorkerBD0Ev:000000000000003c .LVL63
     /tmp/cc6ZYyze.s:511    .text._ZN7WorkerBD2Ev:0000000000000000 .LVL41
     /tmp/cc6ZYyze.s:552    .text._ZN7WorkerBD2Ev:0000000000000038 .LVL46
     /tmp/cc6ZYyze.s:522    .text._ZN7WorkerBD2Ev:0000000000000014 .LVL42
     /tmp/cc6ZYyze.s:531    .text._ZN7WorkerBD2Ev:0000000000000024 .LVL43
     /tmp/cc6ZYyze.s:538    .text._ZN7WorkerBD2Ev:000000000000002c .LVL44
     /tmp/cc6ZYyze.s:546    .text._ZN7WorkerBD2Ev:0000000000000034 .LVL45
     /tmp/cc6ZYyze.s:1022   .text._ZN7WorkerCD0Ev:0000000000000000 .LVL89
GAS LISTING /tmp/cc6ZYyze.s 			page 76


     /tmp/cc6ZYyze.s:1067   .text._ZN7WorkerCD0Ev:0000000000000040 .LVL94
     /tmp/cc6ZYyze.s:1098   .text._ZN7WorkerCD0Ev:0000000000000070 .LVL98
     /tmp/cc6ZYyze.s:1036   .text._ZN7WorkerCD0Ev:000000000000001c .LVL90
     /tmp/cc6ZYyze.s:1046   .text._ZN7WorkerCD0Ev:000000000000002c .LVL91
     /tmp/cc6ZYyze.s:1053   .text._ZN7WorkerCD0Ev:0000000000000034 .LVL92
     /tmp/cc6ZYyze.s:1061   .text._ZN7WorkerCD0Ev:000000000000003c .LVL93
     /tmp/cc6ZYyze.s:420    .text._ZN7WorkerCD2Ev:0000000000000000 .LVL33
     /tmp/cc6ZYyze.s:461    .text._ZN7WorkerCD2Ev:0000000000000038 .LVL38
     /tmp/cc6ZYyze.s:431    .text._ZN7WorkerCD2Ev:0000000000000014 .LVL34
     /tmp/cc6ZYyze.s:440    .text._ZN7WorkerCD2Ev:0000000000000024 .LVL35
     /tmp/cc6ZYyze.s:447    .text._ZN7WorkerCD2Ev:000000000000002c .LVL36
     /tmp/cc6ZYyze.s:455    .text._ZN7WorkerCD2Ev:0000000000000034 .LVL37
     /tmp/cc6ZYyze.s:916    .text._ZN7WorkerDD0Ev:0000000000000000 .LVL79
     /tmp/cc6ZYyze.s:961    .text._ZN7WorkerDD0Ev:0000000000000040 .LVL84
     /tmp/cc6ZYyze.s:992    .text._ZN7WorkerDD0Ev:0000000000000070 .LVL88
     /tmp/cc6ZYyze.s:930    .text._ZN7WorkerDD0Ev:000000000000001c .LVL80
     /tmp/cc6ZYyze.s:940    .text._ZN7WorkerDD0Ev:000000000000002c .LVL81
     /tmp/cc6ZYyze.s:947    .text._ZN7WorkerDD0Ev:0000000000000034 .LVL82
     /tmp/cc6ZYyze.s:955    .text._ZN7WorkerDD0Ev:000000000000003c .LVL83
     /tmp/cc6ZYyze.s:329    .text._ZN7WorkerDD2Ev:0000000000000000 .LVL25
     /tmp/cc6ZYyze.s:370    .text._ZN7WorkerDD2Ev:0000000000000038 .LVL30
     /tmp/cc6ZYyze.s:340    .text._ZN7WorkerDD2Ev:0000000000000014 .LVL26
     /tmp/cc6ZYyze.s:349    .text._ZN7WorkerDD2Ev:0000000000000024 .LVL27
     /tmp/cc6ZYyze.s:356    .text._ZN7WorkerDD2Ev:000000000000002c .LVL28
     /tmp/cc6ZYyze.s:364    .text._ZN7WorkerDD2Ev:0000000000000034 .LVL29
     /tmp/cc6ZYyze.s:2052   .text:00000000000005cc .LVL208
     /tmp/cc6ZYyze.s:2078   .text:00000000000005fc .LVL212
     /tmp/cc6ZYyze.s:2080   .text:0000000000000600 .LVL213
     /tmp/cc6ZYyze.s:2112   .text:000000000000063c .LVL215
     /tmp/cc6ZYyze.s:2062   .text:00000000000005e4 .LVL209
     /tmp/cc6ZYyze.s:2070   .text:00000000000005f0 .LVL210
     /tmp/cc6ZYyze.s:2126   .text:0000000000000650 .LVL218
     /tmp/cc6ZYyze.s:2134   .text:0000000000000660 .LVL219
     /tmp/cc6ZYyze.s:2114   .text:0000000000000640 .LVL216
     /tmp/cc6ZYyze.s:2146   .text:0000000000000670 .LVL220
     /tmp/cc6ZYyze.s:1945   .text:0000000000000518 .LVL194
     /tmp/cc6ZYyze.s:1939   .text:000000000000050c .LVL193
     /tmp/cc6ZYyze.s:1976   .text:000000000000054c .LVL198
     /tmp/cc6ZYyze.s:1970   .text:0000000000000540 .LVL197
     /tmp/cc6ZYyze.s:2007   .text:0000000000000580 .LVL202
     /tmp/cc6ZYyze.s:2001   .text:0000000000000574 .LVL201
     /tmp/cc6ZYyze.s:2038   .text:00000000000005b4 .LVL206
     /tmp/cc6ZYyze.s:2032   .text:00000000000005a8 .LVL205
     /tmp/cc6ZYyze.s:1709   .text:0000000000000394 .LVL165
     /tmp/cc6ZYyze.s:1727   .text:00000000000003b4 .LVL167
     /tmp/cc6ZYyze.s:1723   .text:00000000000003ac .LVL166
     /tmp/cc6ZYyze.s:1748   .text:00000000000003ec .LVL171
     /tmp/cc6ZYyze.s:1750   .text:00000000000003f0 .LVL172
     /tmp/cc6ZYyze.s:1818   .text:0000000000000494 .LVL184
     /tmp/cc6ZYyze.s:1820   .text:0000000000000498 .LVL185
     /tmp/cc6ZYyze.s:1847   .text:00000000000004d0 .LVL188
     /tmp/cc6ZYyze.s:1778   .text:0000000000000424 .LVL176
     /tmp/cc6ZYyze.s:1782   .text:000000000000042c .LVL177
     /tmp/cc6ZYyze.s:1850   .text:00000000000004d4 .LVL189
     /tmp/cc6ZYyze.s:1480   .text:0000000000000214 .LVL134
     /tmp/cc6ZYyze.s:1498   .text:0000000000000234 .LVL136
     /tmp/cc6ZYyze.s:1494   .text:000000000000022c .LVL135
GAS LISTING /tmp/cc6ZYyze.s 			page 77


     /tmp/cc6ZYyze.s:1519   .text:000000000000026c .LVL140
     /tmp/cc6ZYyze.s:1521   .text:0000000000000270 .LVL141
     /tmp/cc6ZYyze.s:1615   .text:000000000000034c .LVL157
     /tmp/cc6ZYyze.s:1617   .text:0000000000000350 .LVL158
     /tmp/cc6ZYyze.s:1644   .text:0000000000000388 .LVL161
     /tmp/cc6ZYyze.s:1550   .text:0000000000000298 .LVL144
     /tmp/cc6ZYyze.s:1575   .text:00000000000002dc .LVL149
     /tmp/cc6ZYyze.s:1579   .text:00000000000002e4 .LVL150
     /tmp/cc6ZYyze.s:1647   .text:000000000000038c .LVL162
     /tmp/cc6ZYyze.s:1303   .text:0000000000000140 .LVL116
     /tmp/cc6ZYyze.s:1322   .text:0000000000000160 .LVL118
     /tmp/cc6ZYyze.s:1317   .text:0000000000000158 .LVL117
     /tmp/cc6ZYyze.s:1418   .text:000000000000020c .LVL131
     /tmp/cc6ZYyze.s:1362   .text:0000000000000194 .LVL124
     /tmp/cc6ZYyze.s:1390   .text:00000000000001d8 .LVL128
     /tmp/cc6ZYyze.s:1345   .text:000000000000017c .LVL121
     /tmp/cc6ZYyze.s:1354   .text:0000000000000190 .LVL123
     /tmp/cc6ZYyze.s:1136   .text:0000000000000074 .LVL99
     /tmp/cc6ZYyze.s:1155   .text:0000000000000094 .LVL101
     /tmp/cc6ZYyze.s:1150   .text:000000000000008c .LVL100
     /tmp/cc6ZYyze.s:1247   .text:0000000000000138 .LVL113
     /tmp/cc6ZYyze.s:1195   .text:00000000000000c8 .LVL107
     /tmp/cc6ZYyze.s:1223   .text:000000000000010c .LVL111
     /tmp/cc6ZYyze.s:1178   .text:00000000000000b0 .LVL104
     /tmp/cc6ZYyze.s:1187   .text:00000000000000c4 .LVL106
     /tmp/cc6ZYyze.s:1865   .text._ZN7WorkerD3runEv:0000000000000000 .LVL190
     /tmp/cc6ZYyze.s:1662   .text._ZN7WorkerC3runEv:0000000000000000 .LVL163
     /tmp/cc6ZYyze.s:1433   .text._ZN7WorkerB3runEv:0000000000000000 .LVL132
     /tmp/cc6ZYyze.s:1262   .text._ZN7WorkerA3runEv:0000000000000000 .LVL114
     /tmp/cc6ZYyze.s:76     .text:0000000000000000 .LVL3
     /tmp/cc6ZYyze.s:99     .text:0000000000000030 .LVL4
     /tmp/cc6ZYyze.s:123    .text:000000000000005c .LVL7
     /tmp/cc6ZYyze.s:129    .text:0000000000000068 .LVL8
     /tmp/cc6ZYyze.s:40     .text._ZN6Thread14thread_wrapperEPv:0000000000000000 .LVL1
     /tmp/cc6ZYyze.s:602    .text._ZN6ThreadD0Ev:0000000000000000 .LVL49
     /tmp/cc6ZYyze.s:645    .text._ZN6ThreadD0Ev:0000000000000040 .LVL54
     /tmp/cc6ZYyze.s:674    .text._ZN6ThreadD0Ev:0000000000000070 .LVL58
     /tmp/cc6ZYyze.s:616    .text._ZN6ThreadD0Ev:000000000000001c .LVL50
     /tmp/cc6ZYyze.s:624    .text._ZN6ThreadD0Ev:000000000000002c .LVL51
     /tmp/cc6ZYyze.s:631    .text._ZN6ThreadD0Ev:0000000000000034 .LVL52
     /tmp/cc6ZYyze.s:639    .text._ZN6ThreadD0Ev:000000000000003c .LVL53
     /tmp/cc6ZYyze.s:150    .text._ZN6ThreadD2Ev:0000000000000000 .LVL10
     /tmp/cc6ZYyze.s:189    .text._ZN6ThreadD2Ev:0000000000000038 .LVL14
     /tmp/cc6ZYyze.s:167    .text._ZN6ThreadD2Ev:0000000000000024 .LVL11
     /tmp/cc6ZYyze.s:175    .text._ZN6ThreadD2Ev:000000000000002c .LVL12
     /tmp/cc6ZYyze.s:183    .text._ZN6ThreadD2Ev:0000000000000034 .LVL13
     /tmp/cc6ZYyze.s:2232   .debug_info:0000000000000000 .Ldebug_info0
     /tmp/cc6ZYyze.s:5      .text:0000000000000000 .Ltext0
     /tmp/cc6ZYyze.s:2227   .text:0000000000000678 .Letext0
     /tmp/cc6ZYyze.s:1158   .text:0000000000000094 .LBB219
     /tmp/cc6ZYyze.s:1191   .text:00000000000000c4 .LBE219
     /tmp/cc6ZYyze.s:1219   .text:0000000000000104 .LBB223
     /tmp/cc6ZYyze.s:1225   .text:000000000000010c .LBE223
     /tmp/cc6ZYyze.s:1325   .text:0000000000000160 .LBB227
     /tmp/cc6ZYyze.s:1358   .text:0000000000000190 .LBE227
     /tmp/cc6ZYyze.s:1386   .text:00000000000001d0 .LBB231
     /tmp/cc6ZYyze.s:1392   .text:00000000000001d8 .LBE231
GAS LISTING /tmp/cc6ZYyze.s 			page 78


     /tmp/cc6ZYyze.s:219    .gcc_except_table._ZN6ThreadD2Ev:0000000000000000 .LLSDA29
     /tmp/cc6ZYyze.s:310    .gcc_except_table._ZN7WorkerAD2Ev:0000000000000000 .LLSDA83
     /tmp/cc6ZYyze.s:401    .gcc_except_table._ZN7WorkerDD2Ev:0000000000000000 .LLSDA71
     /tmp/cc6ZYyze.s:492    .gcc_except_table._ZN7WorkerCD2Ev:0000000000000000 .LLSDA75
     /tmp/cc6ZYyze.s:583    .gcc_except_table._ZN7WorkerBD2Ev:0000000000000000 .LLSDA79
     /tmp/cc6ZYyze.s:683    .gcc_except_table._ZN6ThreadD0Ev:0000000000000000 .LLSDA31
     /tmp/cc6ZYyze.s:789    .gcc_except_table._ZN7WorkerBD0Ev:0000000000000000 .LLSDA81
     /tmp/cc6ZYyze.s:895    .gcc_except_table._ZN7WorkerAD0Ev:0000000000000000 .LLSDA85
     /tmp/cc6ZYyze.s:1001   .gcc_except_table._ZN7WorkerDD0Ev:0000000000000000 .LLSDA73
     /tmp/cc6ZYyze.s:1107   .gcc_except_table._ZN7WorkerCD0Ev:0000000000000000 .LLSDA77
                           .group:0000000000000000 _ZN6ThreadD5Ev
                           .group:0000000000000000 _ZN7WorkerAD5Ev
                           .group:0000000000000000 _ZN7WorkerDD5Ev
                           .group:0000000000000000 _ZN7WorkerCD5Ev
                           .group:0000000000000000 _ZN7WorkerBD5Ev

UNDEFINED SYMBOLS
_Z15thread_dispatchv
_ZdaPv
_ZdlPv
__gxx_personality_v0
_Z11printStringPKc
_Z8printIntiii
_Znwm
_Z13thread_createPP3PCBPFvPvES2_
